TN:
SF:/usr/local/google/home/gleasonk/Coding/openxla/stablehlo/stablehlo/reference/Index.h
FN:41,_ZN4mlir9stablehlo18IndexSpaceIteratorD2Ev
FNDA:14976,_ZN4mlir9stablehlo18IndexSpaceIteratorD2Ev
FN:44,_ZN4mlir9stablehlo18IndexSpaceIteratorC2EN4llvm8ArrayRefIlEESt8optionalINS2_11SmallVectorIlLj6EEEE
FNDA:30184,_ZN4mlir9stablehlo18IndexSpaceIteratorC2EN4llvm8ArrayRefIlEESt8optionalINS2_11SmallVectorIlLj6EEEE
FN:62,_ZN4mlir9stablehlo18IndexSpaceIteratoreqERKS1_
FNDA:13120,_ZN4mlir9stablehlo18IndexSpaceIteratoreqERKS1_
FN:65,_ZN4mlir9stablehlo18IndexSpaceIteratorneERKS1_
FNDA:13120,_ZN4mlir9stablehlo18IndexSpaceIteratorneERKS1_
DA:44,30184
DA:46,30184
DA:47,30184
DA:48,0
DA:51,30184
DA:62,13120
DA:63,13120
DA:65,13120
end_of_record
SF:/usr/local/google/home/gleasonk/Coding/openxla/stablehlo/stablehlo/reference/Errors.h
FN:29,_ZN4mlir9stablehlo15invalidArgumentIJPKcEEEN4llvm5ErrorES3_DpRKT_
FNDA:0,_ZN4mlir9stablehlo15invalidArgumentIJPKcEEEN4llvm5ErrorES3_DpRKT_
DA:29,0
DA:30,0
end_of_record
SF:/usr/local/google/home/gleasonk/Coding/openxla/stablehlo/stablehlo/reference/Tensor.h
FN:49,_ZN4mlir9stablehlo6detail6Buffer7getTypeEv
FNDA:103160,_ZN4mlir9stablehlo6detail6Buffer7getTypeEv
FN:52,_ZNK4mlir9stablehlo6detail6Buffer7getDataEv
FNDA:24536,_ZNK4mlir9stablehlo6detail6Buffer7getDataEv
FN:55,_ZN4mlir9stablehlo6detail6Buffer14getMutableDataEv
FNDA:11024,_ZN4mlir9stablehlo6detail6Buffer14getMutableDataEv
FN:80,_ZNK4mlir9stablehlo6Tensor7getTypeEv
FNDA:103160,_ZNK4mlir9stablehlo6Tensor7getTypeEv
DA:49,103160
DA:52,24536
DA:55,11024
DA:80,103160
end_of_record
SF:/usr/local/google/home/gleasonk/Coding/openxla/stablehlo/stablehlo/reference/Element.h
FN:33,_ZN4mlir9stablehlo7ElementD2Ev
FNDA:11264,_ZN4mlir9stablehlo7ElementD2Ev
FN:37,_ZN4mlir9stablehlo7ElementC2ENS_4TypeEN4llvm5APIntE
FNDA:11712,_ZN4mlir9stablehlo7ElementC2ENS_4TypeEN4llvm5APIntE
FN:38,_ZN4mlir9stablehlo7ElementC2ENS_4TypeEb
FNDA:1112,_ZN4mlir9stablehlo7ElementC2ENS_4TypeEb
FN:39,_ZN4mlir9stablehlo7ElementC2ENS_4TypeEN4llvm7APFloatE
FNDA:10368,_ZN4mlir9stablehlo7ElementC2ENS_4TypeEN4llvm7APFloatE
FN:40,_ZN4mlir9stablehlo7ElementC2ENS_4TypeESt7complexIN4llvm7APFloatEE
FNDA:0,_ZN4mlir9stablehlo7ElementC2ENS_4TypeESt7complexIN4llvm7APFloatEE
FN:125,_ZN4mlir9stablehlolsERN4llvm11raw_ostreamENS0_7ElementE
FNDA:11264,_ZN4mlir9stablehlolsERN4llvm11raw_ostreamENS0_7ElementE
DA:37,11712
DA:38,1112
DA:39,10368
DA:40,0
DA:41,0
DA:125,11264
DA:126,11264
DA:127,11264
end_of_record
SF:/usr/local/google/home/gleasonk/Coding/openxla/stablehlo/stablehlo/reference/Tensor.cpp
FN:32,_ZN4mlir9stablehlo12_GLOBAL__N_114getSizeInBytesENS_4TypeE
FNDA:41768,_ZN4mlir9stablehlo12_GLOBAL__N_114getSizeInBytesENS_4TypeE
FN:49,_ZN4mlir9stablehlo12_GLOBAL__N_112flattenIndexEN4llvm8ArrayRefIlEES4_
FNDA:35560,_ZN4mlir9stablehlo12_GLOBAL__N_112flattenIndexEN4llvm8ArrayRefIlEES4_
FN:78,_ZN4mlir9stablehlo6detail6BufferC2ENS_10ShapedTypeE
FNDA:1976,_ZN4mlir9stablehlo6detail6BufferC2ENS_10ShapedTypeE
FN:83,_ZN4mlir9stablehlo6detail6BufferC2ENS_10ShapedTypeENS_15AsmResourceBlobE
FNDA:2688,_ZN4mlir9stablehlo6detail6BufferC2ENS_10ShapedTypeENS_15AsmResourceBlobE
FN:88,_ZN4mlir9stablehlo6TensorC2Ev
FNDA:5016,_ZN4mlir9stablehlo6TensorC2Ev
FN:90,_ZN4mlir9stablehlo6TensorC2ENS_10ShapedTypeE
FNDA:1976,_ZN4mlir9stablehlo6TensorC2ENS_10ShapedTypeE
FN:93,_ZN4mlir9stablehlo6TensorC2ENS_10ShapedTypeENS_15AsmResourceBlobE
FNDA:2688,_ZN4mlir9stablehlo6TensorC2ENS_10ShapedTypeENS_15AsmResourceBlobE
FN:96,_ZNK4mlir9stablehlo6Tensor14getNumElementsEv
FNDA:0,_ZNK4mlir9stablehlo6Tensor14getNumElementsEv
FN:98,_ZNK4mlir9stablehlo6Tensor3getEN4llvm8ArrayRefIlEE
FNDA:24536,_ZNK4mlir9stablehlo6Tensor3getEN4llvm8ArrayRefIlEE
FN:205,_ZN4mlir9stablehlo6Tensor3setEN4llvm8ArrayRefIlEERKNS0_7ElementE
FNDA:11024,_ZN4mlir9stablehlo6Tensor3setEN4llvm8ArrayRefIlEERKNS0_7ElementE
FN:328,_ZNK4mlir9stablehlo6Tensor11index_beginEv
FNDA:3968,_ZNK4mlir9stablehlo6Tensor11index_beginEv
FN:331,_ZZNK4mlir9stablehlo6Tensor11index_beginEvENK4$_14clEl
FNDA:4320,_ZZNK4mlir9stablehlo6Tensor11index_beginEvENK4$_14clEl
FN:338,_ZNK4mlir9stablehlo6Tensor9index_endEv
FNDA:26216,_ZNK4mlir9stablehlo6Tensor9index_endEv
FN:343,_ZNK4mlir9stablehlo6Tensor5printERN4llvm11raw_ostreamE
FNDA:1856,_ZNK4mlir9stablehlo6Tensor5printERN4llvm11raw_ostreamE
FN:353,_ZNK4mlir9stablehlo6Tensor4dumpEv
FNDA:0,_ZNK4mlir9stablehlo6Tensor4dumpEv
FN:355,_ZN4mlir9stablehlo10makeTensorENS_17DenseElementsAttrE
FNDA:2688,_ZN4mlir9stablehlo10makeTensorENS_17DenseElementsAttrE
FN:362,_ZZN4mlir9stablehlo10makeTensorENS_17DenseElementsAttrEENK3$_0clEN4llvm7APFloatE
FNDA:2928,_ZZN4mlir9stablehlo10makeTensorENS_17DenseElementsAttrEENK3$_0clEN4llvm7APFloatE
FN:376,_ZZN4mlir9stablehlo10makeTensorENS_17DenseElementsAttrEENK3$_1clEN4llvm7APFloatE
FNDA:1464,_ZZN4mlir9stablehlo10makeTensorENS_17DenseElementsAttrEENK3$_1clEN4llvm7APFloatE
FN:384,_ZZN4mlir9stablehlo10makeTensorENS_17DenseElementsAttrEENK3$_2clEN4llvm7APFloatE
FNDA:1464,_ZZN4mlir9stablehlo10makeTensorENS_17DenseElementsAttrEENK3$_2clEN4llvm7APFloatE
FN:393,_ZZN4mlir9stablehlo10makeTensorENS_17DenseElementsAttrEENK3$_3clEN4llvm5APIntE
FNDA:1232,_ZZN4mlir9stablehlo10makeTensorENS_17DenseElementsAttrEENK3$_3clEN4llvm5APIntE
FN:401,_ZZN4mlir9stablehlo10makeTensorENS_17DenseElementsAttrEENK3$_4clEN4llvm5APIntE
FNDA:648,_ZZN4mlir9stablehlo10makeTensorENS_17DenseElementsAttrEENK3$_4clEN4llvm5APIntE
FN:409,_ZZN4mlir9stablehlo10makeTensorENS_17DenseElementsAttrEENK3$_5clEN4llvm5APIntE
FNDA:1128,_ZZN4mlir9stablehlo10makeTensorENS_17DenseElementsAttrEENK3$_5clEN4llvm5APIntE
FN:417,_ZZN4mlir9stablehlo10makeTensorENS_17DenseElementsAttrEENK3$_6clEN4llvm5APIntE
FNDA:1248,_ZZN4mlir9stablehlo10makeTensorENS_17DenseElementsAttrEENK3$_6clEN4llvm5APIntE
FN:426,_ZZN4mlir9stablehlo10makeTensorENS_17DenseElementsAttrEENK3$_7clEN4llvm5APIntE
FNDA:736,_ZZN4mlir9stablehlo10makeTensorENS_17DenseElementsAttrEENK3$_7clEN4llvm5APIntE
FN:434,_ZZN4mlir9stablehlo10makeTensorENS_17DenseElementsAttrEENK3$_8clEN4llvm5APIntE
FNDA:376,_ZZN4mlir9stablehlo10makeTensorENS_17DenseElementsAttrEENK3$_8clEN4llvm5APIntE
FN:443,_ZZN4mlir9stablehlo10makeTensorENS_17DenseElementsAttrEENK3$_9clEN4llvm5APIntE
FNDA:376,_ZZN4mlir9stablehlo10makeTensorENS_17DenseElementsAttrEENK3$_9clEN4llvm5APIntE
FN:452,_ZZN4mlir9stablehlo10makeTensorENS_17DenseElementsAttrEENK4$_10clEN4llvm5APIntE
FNDA:376,_ZZN4mlir9stablehlo10makeTensorENS_17DenseElementsAttrEENK4$_10clEN4llvm5APIntE
FN:462,_ZZN4mlir9stablehlo10makeTensorENS_17DenseElementsAttrEENK4$_11clEb
FNDA:672,_ZZN4mlir9stablehlo10makeTensorENS_17DenseElementsAttrEENK4$_11clEb
FN:473,_ZZN4mlir9stablehlo10makeTensorENS_17DenseElementsAttrEENK4$_12clESt7complexIN4llvm7APFloatEE
FNDA:304,_ZZN4mlir9stablehlo10makeTensorENS_17DenseElementsAttrEENK4$_12clESt7complexIN4llvm7APFloatEE
FN:485,_ZZN4mlir9stablehlo10makeTensorENS_17DenseElementsAttrEENK4$_13clESt7complexIN4llvm7APFloatEE
FNDA:304,_ZZN4mlir9stablehlo10makeTensorENS_17DenseElementsAttrEENK4$_13clESt7complexIN4llvm7APFloatEE
DA:32,41768
DA:33,41768
DA:34,3952
DA:35,1976
DA:37,39792
DA:38,37536
DA:40,2256
DA:41,2256
DA:43,0
DA:44,0
DA:45,41768
DA:49,35560
DA:50,35560
DA:51,0
DA:54,35560
DA:55,35560
DA:61,34432
DA:62,34432
DA:63,44176
DA:64,9744
DA:70,78608
DA:71,34432
DA:72,35560
DA:78,3952
DA:79,1976
DA:80,1976
DA:81,3952
DA:83,5376
DA:84,5376
DA:88,5016
DA:90,1976
DA:91,1976
DA:93,2688
DA:94,2688
DA:96,0
DA:98,24536
DA:99,24536
DA:100,49072
DA:101,49072
DA:102,24536
DA:105,24536
DA:106,2592
DA:107,5184
DA:108,2592
DA:109,2592
DA:111,21944
DA:112,2592
DA:113,5184
DA:114,2592
DA:115,2592
DA:117,19352
DA:118,2592
DA:119,2592
DA:120,2592
DA:122,16760
DA:123,2592
DA:124,2592
DA:125,2592
DA:132,14168
DA:133,11712
DA:135,11712
DA:136,2256
DA:137,4512
DA:138,2256
DA:139,11712
DA:140,1176
DA:141,2352
DA:142,1176
DA:143,9456
DA:144,2232
DA:145,4464
DA:146,2232
DA:147,8280
DA:148,2904
DA:149,5808
DA:150,2904
DA:151,6048
DA:152,2616
DA:153,1128
DA:154,2256
DA:155,1128
DA:156,3144
DA:157,576
DA:158,1152
DA:159,576
DA:160,2016
DA:161,576
DA:162,1152
DA:163,576
DA:164,1440
DA:165,864
DA:166,1728
DA:167,864
DA:168,864
DA:169,11712
DA:172,2456
DA:173,1112
DA:174,1112
DA:175,592
DA:177,0
DA:178,1112
DA:181,1344
DA:182,1344
DA:184,1344
DA:185,1344
DA:186,672
DA:187,1344
DA:188,1344
DA:189,672
DA:190,672
DA:192,672
DA:193,1344
DA:194,672
DA:195,1344
DA:196,1344
DA:197,672
DA:198,672
DA:199,1344
DA:201,0
DA:202,0
DA:203,24536
DA:205,11024
DA:206,11024
DA:207,22048
DA:208,22048
DA:209,11024
DA:212,11024
DA:213,2256
DA:214,2256
DA:215,2256
DA:217,2256
DA:219,8768
DA:220,1128
DA:221,1128
DA:222,1128
DA:224,1128
DA:226,7640
DA:227,1128
DA:228,1128
DA:229,1128
DA:231,1128
DA:238,6512
DA:239,1024
DA:240,1024
DA:241,1024
DA:243,1024
DA:245,5488
DA:246,528
DA:247,528
DA:248,528
DA:250,528
DA:252,4960
DA:253,1104
DA:254,1104
DA:255,1104
DA:257,1104
DA:259,3856
DA:260,1400
DA:261,1400
DA:262,1400
DA:264,1400
DA:267,2456
DA:268,392
DA:269,392
DA:270,392
DA:272,392
DA:274,2064
DA:275,200
DA:276,200
DA:277,200
DA:279,200
DA:281,1864
DA:282,200
DA:283,200
DA:284,200
DA:286,200
DA:288,1664
DA:289,488
DA:290,488
DA:291,488
DA:293,488
DA:296,1176
DA:297,440
DA:298,440
DA:299,440
DA:301,440
DA:304,736
DA:305,736
DA:306,736
DA:308,736
DA:309,368
DA:310,736
DA:311,368
DA:313,368
DA:315,368
DA:316,368
DA:317,368
DA:318,736
DA:319,368
DA:321,368
DA:322,736
DA:324,0
DA:325,0
DA:326,11024
DA:328,3968
DA:329,3968
DA:331,8288
DA:332,16
DA:334,3952
DA:335,3952
DA:336,3968
DA:338,26216
DA:339,26216
DA:340,26216
DA:341,26216
DA:343,1856
DA:344,1856
DA:345,1856
DA:347,13120
DA:348,11264
DA:350,1856
DA:351,1856
DA:353,0
DA:355,2688
DA:356,2688
DA:357,2688
DA:360,2688
DA:361,544
DA:362,3200
DA:363,2928
DA:368,272
DA:369,272
DA:370,272
DA:371,272
DA:373,2416
DA:374,272
DA:375,136
DA:376,1464
DA:377,272
DA:378,136
DA:379,136
DA:381,2280
DA:382,272
DA:383,136
DA:384,1464
DA:385,272
DA:386,136
DA:387,136
DA:390,2144
DA:391,640
DA:392,320
DA:393,1232
DA:394,640
DA:395,320
DA:396,320
DA:398,1824
DA:399,304
DA:400,152
DA:401,648
DA:402,304
DA:403,152
DA:404,152
DA:406,1672
DA:407,416
DA:408,208
DA:409,1128
DA:410,416
DA:411,208
DA:412,208
DA:414,1464
DA:415,496
DA:416,248
DA:417,1248
DA:418,496
DA:419,248
DA:420,248
DA:423,1216
DA:424,576
DA:425,288
DA:426,736
DA:427,576
DA:428,288
DA:429,288
DA:431,928
DA:432,304
DA:433,152
DA:434,376
DA:435,152
DA:436,152
DA:437,152
DA:438,152
DA:440,776
DA:441,304
DA:442,152
DA:443,376
DA:444,152
DA:445,152
DA:446,152
DA:447,152
DA:449,624
DA:450,304
DA:451,152
DA:452,376
DA:453,152
DA:454,152
DA:455,152
DA:456,152
DA:459,472
DA:460,464
DA:461,232
DA:462,672
DA:463,464
DA:464,232
DA:465,232
DA:468,240
DA:469,240
DA:470,240
DA:471,240
DA:472,120
DA:473,304
DA:474,608
DA:475,304
DA:477,120
DA:478,120
DA:479,120
DA:480,120
DA:481,120
DA:482,120
DA:483,240
DA:484,120
DA:485,304
DA:486,608
DA:487,304
DA:489,120
DA:490,120
DA:491,120
DA:492,120
DA:493,120
DA:494,240
DA:496,0
DA:497,0
DA:498,2688
end_of_record
TN:
SF:/usr/local/google/home/gleasonk/Coding/openxla/stablehlo/stablehlo/reference/Ops.cpp
FN:36,_ZN4mlir9stablehlo12_GLOBAL__N_17permuteEN4llvm8ArrayRefIlEES4_
FNDA:384,_ZN4mlir9stablehlo12_GLOBAL__N_17permuteEN4llvm8ArrayRefIlEES4_
FN:42,_ZN4mlir9stablehlo12_GLOBAL__N_110addIndicesEN4llvm8ArrayRefIlEES4_
FNDA:48,_ZN4mlir9stablehlo12_GLOBAL__N_110addIndicesEN4llvm8ArrayRefIlEES4_
FN:51,_ZN4mlir9stablehlo9evalAddOpERKNS0_6TensorES3_NS_4TypeE
FNDA:232,_ZN4mlir9stablehlo9evalAddOpERKNS0_6TensorES3_NS_4TypeE
FN:58,_ZN4mlir9stablehlo9evalAndOpERKNS0_6TensorES3_NS_4TypeE
FNDA:104,_ZN4mlir9stablehlo9evalAndOpERKNS0_6TensorES3_NS_4TypeE
FN:65,_ZN4mlir9stablehlo20evalBroadcastInDimOpERKNS0_6TensorEN4llvm8ArrayRefIlEENS_4TypeE
FNDA:8,_ZN4mlir9stablehlo20evalBroadcastInDimOpERKNS0_6TensorEN4llvm8ArrayRefIlEENS_4TypeE
FN:81,_ZN4mlir9stablehlo10evalCeilOpERKNS0_6TensorENS_4TypeE
FNDA:32,_ZN4mlir9stablehlo10evalCeilOpERKNS0_6TensorENS_4TypeE
FN:88,_ZN4mlir9stablehlo14evalConstantOpENS_12ElementsAttrE
FNDA:2688,_ZN4mlir9stablehlo14evalConstantOpENS_12ElementsAttrE
FN:94,_ZN4mlir9stablehlo13evalConvertOpERKNS0_6TensorENS_4TypeE
FNDA:88,_ZN4mlir9stablehlo13evalConvertOpERKNS0_6TensorENS_4TypeE
FN:103,_ZN4mlir9stablehlo12evalCosineOpERKNS0_6TensorENS_4TypeE
FNDA:48,_ZN4mlir9stablehlo12evalCosineOpERKNS0_6TensorENS_4TypeE
FN:110,_ZN4mlir9stablehlo24evalDynamicUpdateSliceOpERKNS0_6TensorES3_N4llvm8ArrayRefIS1_EENS_4TypeE
FNDA:8,_ZN4mlir9stablehlo24evalDynamicUpdateSliceOpERKNS0_6TensorES3_N4llvm8ArrayRefIS1_EENS_4TypeE
FN:131,_ZN4mlir9stablehlo11evalFloorOpERKNS0_6TensorENS_4TypeE
FNDA:32,_ZN4mlir9stablehlo11evalFloorOpERKNS0_6TensorENS_4TypeE
FN:138,_ZN4mlir9stablehlo10evalIotaOpElNS_4TypeE
FNDA:200,_ZN4mlir9stablehlo10evalIotaOpElNS_4TypeE
FN:174,_ZN4mlir9stablehlo9evalMaxOpERKNS0_6TensorES3_NS_4TypeE
FNDA:136,_ZN4mlir9stablehlo9evalMaxOpERKNS0_6TensorES3_NS_4TypeE
FN:181,_ZN4mlir9stablehlo9evalMinOpERKNS0_6TensorES3_NS_4TypeE
FNDA:136,_ZN4mlir9stablehlo9evalMinOpERKNS0_6TensorES3_NS_4TypeE
FN:188,_ZN4mlir9stablehlo14evalMultiplyOpERKNS0_6TensorES3_NS_4TypeE
FNDA:120,_ZN4mlir9stablehlo14evalMultiplyOpERKNS0_6TensorES3_NS_4TypeE
FN:195,_ZN4mlir9stablehlo9evalNegOpERKNS0_6TensorENS_4TypeE
FNDA:128,_ZN4mlir9stablehlo9evalNegOpERKNS0_6TensorENS_4TypeE
FN:202,_ZN4mlir9stablehlo9evalNotOpERKNS0_6TensorENS_4TypeE
FNDA:104,_ZN4mlir9stablehlo9evalNotOpERKNS0_6TensorENS_4TypeE
FN:209,_ZN4mlir9stablehlo8evalOrOpERKNS0_6TensorES3_NS_4TypeE
FNDA:104,_ZN4mlir9stablehlo8evalOrOpERKNS0_6TensorES3_NS_4TypeE
FN:216,_ZN4mlir9stablehlo9evalPadOpERKNS0_6TensorES3_N4llvm8ArrayRefIlEES6_NS_4TypeE
FNDA:8,_ZN4mlir9stablehlo9evalPadOpERKNS0_6TensorES3_N4llvm8ArrayRefIlEES6_NS_4TypeE
FN:235,_ZN4mlir9stablehlo13evalReshapeOpERKNS0_6TensorENS_4TypeE
FNDA:32,_ZN4mlir9stablehlo13evalReshapeOpERKNS0_6TensorENS_4TypeE
FN:243,_ZN4mlir9stablehlo13evalReverseOpERKNS0_6TensorEN4llvm8ArrayRefIlEENS_4TypeE
FNDA:8,_ZN4mlir9stablehlo13evalReverseOpERKNS0_6TensorEN4llvm8ArrayRefIlEENS_4TypeE
FN:257,_ZN4mlir9stablehlo10evalSineOpERKNS0_6TensorENS_4TypeE
FNDA:48,_ZN4mlir9stablehlo10evalSineOpERKNS0_6TensorENS_4TypeE
FN:264,_ZN4mlir9stablehlo11evalSliceOpERKNS0_6TensorEN4llvm8ArrayRefIlEES6_NS_4TypeE
FNDA:8,_ZN4mlir9stablehlo11evalSliceOpERKNS0_6TensorEN4llvm8ArrayRefIlEES6_NS_4TypeE
FN:277,_ZN4mlir9stablehlo14evalSubtractOpERKNS0_6TensorES3_NS_4TypeE
FNDA:208,_ZN4mlir9stablehlo14evalSubtractOpERKNS0_6TensorES3_NS_4TypeE
FN:284,_ZN4mlir9stablehlo10evalTanhOpERKNS0_6TensorENS_4TypeE
FNDA:48,_ZN4mlir9stablehlo10evalTanhOpERKNS0_6TensorENS_4TypeE
FN:291,_ZN4mlir9stablehlo15evalTransposeOpERKNS0_6TensorEN4llvm8ArrayRefIlEENS_4TypeE
FNDA:32,_ZN4mlir9stablehlo15evalTransposeOpERKNS0_6TensorEN4llvm8ArrayRefIlEENS_4TypeE
FN:302,_ZN4mlir9stablehlo11evalWhileOpEN4llvm8ArrayRefINS0_6TensorEEERNS_6RegionES6_RNS0_5ScopeE
FNDA:8,_ZN4mlir9stablehlo11evalWhileOpEN4llvm8ArrayRefINS0_6TensorEEERNS_6RegionES6_RNS0_5ScopeE
FN:320,_ZN4mlir9stablehlo9evalXorOpERKNS0_6TensorES3_NS_4TypeE
FNDA:104,_ZN4mlir9stablehlo9evalXorOpERKNS0_6TensorES3_NS_4TypeE
FN:327,_ZN4mlir9stablehlo4evalERNS_6RegionEN4llvm8ArrayRefINS0_6TensorEEEPNS0_5ScopeE
FNDA:2024,_ZN4mlir9stablehlo4evalERNS_6RegionEN4llvm8ArrayRefINS0_6TensorEEEPNS0_5ScopeE
DA:36,384
DA:37,384
DA:38,1536
DA:39,384
DA:40,384
DA:42,48
DA:43,48
DA:44,144
DA:45,288
DA:46,48
DA:47,48
DA:51,232
DA:52,232
DA:53,1016
DA:54,784
DA:55,232
DA:56,232
DA:58,104
DA:59,104
DA:60,408
DA:61,304
DA:62,104
DA:63,104
DA:65,8
DA:67,8
DA:68,8
DA:69,8
DA:70,104
DA:71,96
DA:72,96
DA:73,288
DA:74,384
DA:75,192
DA:76,96
DA:77,96
DA:78,8
DA:79,8
DA:81,32
DA:82,32
DA:83,320
DA:84,288
DA:85,32
DA:86,32
DA:88,2688
DA:89,2688
DA:94,88
DA:95,88
DA:96,88
DA:97,176
DA:98,176
DA:99,88
DA:100,88
DA:101,88
DA:103,48
DA:104,48
DA:105,432
DA:106,384
DA:107,48
DA:108,48
DA:110,8
DA:112,8
DA:113,8
DA:114,8
DA:115,8
DA:116,8
DA:117,24
DA:118,32
DA:119,16
DA:120,16
DA:121,136
DA:122,128
DA:123,128
DA:124,56
DA:125,48
DA:126,96
DA:127,48
DA:128,8
DA:129,8
DA:131,32
DA:132,32
DA:133,320
DA:134,288
DA:135,32
DA:136,32
DA:138,200
DA:139,200
DA:140,200
DA:141,2600
DA:142,2400
DA:143,2400
DA:144,1920
DA:145,960
DA:146,2400
DA:147,576
DA:148,288
DA:149,1440
DA:150,768
DA:151,768
DA:152,768
DA:154,768
DA:155,1152
DA:156,384
DA:157,384
DA:158,384
DA:159,384
DA:160,384
DA:161,384
DA:163,384
DA:165,384
DA:166,384
DA:167,0
DA:168,0
DA:170,2400
DA:171,200
DA:172,200
DA:174,136
DA:175,136
DA:176,864
DA:177,728
DA:178,136
DA:179,136
DA:181,136
DA:182,136
DA:183,864
DA:184,728
DA:185,136
DA:186,136
DA:188,120
DA:189,120
DA:190,768
DA:191,648
DA:192,120
DA:193,120
DA:195,128
DA:196,128
DA:197,832
DA:198,704
DA:199,128
DA:200,128
DA:202,104
DA:203,104
DA:204,376
DA:205,272
DA:206,104
DA:207,104
DA:209,104
DA:210,104
DA:211,408
DA:212,304
DA:213,104
DA:214,104
DA:216,8
DA:218,8
DA:219,8
DA:220,288
DA:221,280
DA:222,280
DA:223,168
DA:224,160
DA:225,160
DA:226,480
DA:227,320
DA:228,320
DA:229,160
DA:230,80
DA:231,160
DA:232,8
DA:233,8
DA:235,32
DA:236,32
DA:237,224
DA:238,224
DA:239,192
DA:240,32
DA:241,32
DA:243,8
DA:244,8
DA:245,8
DA:246,8
DA:247,56
DA:248,48
DA:249,48
DA:250,144
DA:251,96
DA:252,48
DA:253,48
DA:254,8
DA:255,8
DA:257,48
DA:258,48
DA:259,432
DA:260,384
DA:261,48
DA:262,48
DA:264,8
DA:265,8
DA:266,8
DA:267,40
DA:268,32
DA:269,32
DA:270,96
DA:271,64
DA:272,32
DA:273,32
DA:274,8
DA:275,8
DA:277,208
DA:278,208
DA:279,952
DA:280,744
DA:281,208
DA:282,208
DA:284,48
DA:285,48
DA:286,432
DA:287,384
DA:288,48
DA:289,48
DA:291,32
DA:292,32
DA:293,32
DA:294,416
DA:295,384
DA:296,384
DA:297,384
DA:298,384
DA:299,32
DA:300,32
DA:302,8
DA:303,8
DA:304,8
DA:306,8
DA:307,8
DA:308,0
DA:310,88
DA:311,80
DA:312,80
DA:313,80
DA:314,0
DA:317,8
DA:318,8
DA:320,104
DA:321,104
DA:322,408
DA:323,304
DA:324,104
DA:325,104
DA:327,2024
DA:328,2024
DA:329,2024
DA:330,0
DA:332,0
DA:334,2024
DA:335,2024
DA:337,8720
DA:338,13392
DA:339,232
DA:340,232
DA:341,232
DA:342,232
DA:343,13160
DA:344,104
DA:345,104
DA:346,104
DA:347,104
DA:348,12824
DA:349,8
DA:350,16
DA:351,8
DA:352,16
DA:353,8
DA:354,8
DA:355,12712
DA:356,32
DA:357,32
DA:358,32
DA:359,12672
DA:360,2688
DA:361,2688
DA:362,9952
DA:363,88
DA:364,88
DA:365,88
DA:366,7176
DA:367,48
DA:368,48
DA:369,48
DA:370,7040
DA:371,8
DA:372,8
DA:373,8
DA:374,8
DA:375,16
DA:376,8
DA:377,8
DA:378,8
DA:379,6984
DA:380,32
DA:381,32
DA:382,32
DA:383,6944
DA:384,200
DA:385,200
DA:386,200
DA:387,6712
DA:388,136
DA:389,136
DA:390,136
DA:391,136
DA:392,6376
DA:393,136
DA:394,136
DA:395,136
DA:396,136
DA:397,6104
DA:398,120
DA:399,120
DA:400,120
DA:401,120
DA:402,120
DA:403,5848
DA:404,128
DA:405,128
DA:406,128
DA:407,5600
DA:408,104
DA:409,104
DA:410,104
DA:411,5368
DA:412,104
DA:413,104
DA:414,104
DA:415,104
DA:416,5160
DA:417,8
DA:418,8
DA:419,8
DA:420,8
DA:421,8
DA:422,8
DA:423,8
DA:424,16
DA:425,8
DA:426,8
DA:427,5040
DA:428,16
DA:429,8
DA:430,8
DA:431,16
DA:432,8
DA:433,8
DA:434,5032
DA:435,32
DA:436,32
DA:437,32
DA:438,4992
DA:439,8
DA:440,8
DA:441,8
DA:442,8
DA:443,8
DA:444,8
DA:445,3096
DA:446,1856
DA:447,1064
DA:448,168
DA:449,896
DA:450,48
DA:451,48
DA:452,48
DA:453,848
DA:454,8
DA:455,8
DA:456,8
DA:457,8
DA:458,8
DA:459,8
DA:460,8
DA:461,792
DA:462,208
DA:463,208
DA:464,208
DA:465,208
DA:466,208
DA:467,576
DA:468,48
DA:469,48
DA:470,48
DA:471,320
DA:472,32
DA:473,32
DA:474,32
DA:475,32
DA:476,32
DA:477,32
DA:478,240
DA:479,104
DA:480,104
DA:481,104
DA:482,104
DA:483,104
DA:484,0
DA:485,0
DA:487,6696
DA:489,0
DA:490,2024
end_of_record
SF:/usr/local/google/home/gleasonk/Coding/openxla/stablehlo/stablehlo/reference/Index.h
FN:41,_ZN4mlir9stablehlo18IndexSpaceIteratorD2Ev
FNDA:15208,_ZN4mlir9stablehlo18IndexSpaceIteratorD2Ev
FN:62,_ZN4mlir9stablehlo18IndexSpaceIteratoreqERKS1_
FNDA:13096,_ZN4mlir9stablehlo18IndexSpaceIteratoreqERKS1_
FN:65,_ZN4mlir9stablehlo18IndexSpaceIteratorneERKS1_
FNDA:13096,_ZN4mlir9stablehlo18IndexSpaceIteratorneERKS1_
DA:62,13096
DA:63,13096
DA:65,13096
end_of_record
SF:/usr/local/google/home/gleasonk/Coding/openxla/stablehlo/stablehlo/reference/Tensor.h
FN:36,_ZN4mlir9stablehlo6detail6BufferD2Ev
FNDA:0,_ZN4mlir9stablehlo6detail6BufferD2Ev
FN:49,_ZN4mlir9stablehlo6detail6Buffer7getTypeEv
FNDA:1216,_ZN4mlir9stablehlo6detail6Buffer7getTypeEv
FN:66,_ZN4mlir9stablehlo6TensorD2Ev
FNDA:17280,_ZN4mlir9stablehlo6TensorD2Ev
FN:73,_ZN4mlir9stablehlo6TensorC2ERKS1_
FNDA:4680,_ZN4mlir9stablehlo6TensorC2ERKS1_
FN:77,_ZN4mlir9stablehlo6TensoraSERKS1_
FNDA:5256,_ZN4mlir9stablehlo6TensoraSERKS1_
FN:80,_ZNK4mlir9stablehlo6Tensor7getTypeEv
FNDA:1216,_ZNK4mlir9stablehlo6Tensor7getTypeEv
DA:49,1216
DA:73,4680
DA:77,5256
DA:80,1216
end_of_record
SF:/usr/local/google/home/gleasonk/Coding/openxla/stablehlo/stablehlo/reference/Element.h
FN:33,_ZN4mlir9stablehlo7ElementD2Ev
FNDA:23008,_ZN4mlir9stablehlo7ElementD2Ev
FN:37,_ZN4mlir9stablehlo7ElementC2ENS_4TypeEN4llvm5APIntE
FNDA:1248,_ZN4mlir9stablehlo7ElementC2ENS_4TypeEN4llvm5APIntE
FN:38,_ZN4mlir9stablehlo7ElementC2ENS_4TypeEb
FNDA:88,_ZN4mlir9stablehlo7ElementC2ENS_4TypeEb
FN:39,_ZN4mlir9stablehlo7ElementC2ENS_4TypeEN4llvm7APFloatE
FNDA:768,_ZN4mlir9stablehlo7ElementC2ENS_4TypeEN4llvm7APFloatE
FN:40,_ZN4mlir9stablehlo7ElementC2ENS_4TypeESt7complexIN4llvm7APFloatEE
FNDA:2080,_ZN4mlir9stablehlo7ElementC2ENS_4TypeESt7complexIN4llvm7APFloatEE
DA:37,1248
DA:38,88
DA:39,768
DA:40,2080
DA:41,2080
end_of_record
SF:/usr/local/google/home/gleasonk/Coding/openxla/stablehlo/stablehlo/reference/Scope.h
FN:28,_ZN4mlir9stablehlo5ScopeD2Ev
FNDA:2024,_ZN4mlir9stablehlo5ScopeD2Ev
FN:30,_ZN4mlir9stablehlo5ScopeC2EPS1_
FNDA:2024,_ZN4mlir9stablehlo5ScopeC2EPS1_
DA:30,2024
end_of_record
SF:/usr/local/google/home/gleasonk/Coding/openxla/stablehlo/stablehlo/reference/Errors.h
FN:29,_ZN4mlir9stablehlo15invalidArgumentIJPKcEEEN4llvm5ErrorES3_DpRKT_
FNDA:0,_ZN4mlir9stablehlo15invalidArgumentIJPKcEEEN4llvm5ErrorES3_DpRKT_
FN:29,_ZN4mlir9stablehlo15invalidArgumentIJmEEEN4llvm5ErrorEPKcDpRKT_
FNDA:0,_ZN4mlir9stablehlo15invalidArgumentIJmEEEN4llvm5ErrorEPKcDpRKT_
DA:29,0
DA:30,0
end_of_record
TN:
SF:/usr/local/google/home/gleasonk/Coding/openxla/stablehlo/stablehlo/reference/Element.h
FN:37,_ZN4mlir9stablehlo7ElementC2ENS_4TypeEN4llvm5APIntE
FNDA:2800,_ZN4mlir9stablehlo7ElementC2ENS_4TypeEN4llvm5APIntE
FN:38,_ZN4mlir9stablehlo7ElementC2ENS_4TypeEb
FNDA:352,_ZN4mlir9stablehlo7ElementC2ENS_4TypeEb
FN:39,_ZN4mlir9stablehlo7ElementC2ENS_4TypeEN4llvm7APFloatE
FNDA:3744,_ZN4mlir9stablehlo7ElementC2ENS_4TypeEN4llvm7APFloatE
FN:40,_ZN4mlir9stablehlo7ElementC2ENS_4TypeESt7complexIN4llvm7APFloatEE
FNDA:0,_ZN4mlir9stablehlo7ElementC2ENS_4TypeESt7complexIN4llvm7APFloatEE
FN:50,_ZNK4mlir9stablehlo7Element7getTypeEv
FNDA:16896,_ZNK4mlir9stablehlo7Element7getTypeEv
DA:37,2800
DA:38,352
DA:39,3744
DA:40,0
DA:41,0
DA:50,16896
end_of_record
SF:/usr/local/google/home/gleasonk/Coding/openxla/stablehlo/stablehlo/reference/Errors.h
FN:29,_ZN4mlir9stablehlo15invalidArgumentIJPKcS3_EEEN4llvm5ErrorES3_DpRKT_
FNDA:0,_ZN4mlir9stablehlo15invalidArgumentIJPKcS3_EEEN4llvm5ErrorES3_DpRKT_
FN:29,_ZN4mlir9stablehlo15invalidArgumentIJPKcEEEN4llvm5ErrorES3_DpRKT_
FNDA:0,_ZN4mlir9stablehlo15invalidArgumentIJPKcEEEN4llvm5ErrorES3_DpRKT_
DA:29,0
DA:30,0
end_of_record
SF:/usr/local/google/home/gleasonk/Coding/openxla/stablehlo/stablehlo/reference/Element.cpp
FN:35,_ZN4mlir9stablehlo12_GLOBAL__N_13mapIZNKS0_7ElementngEvE4$_12ZNKS3_ngEvE4$_13ZNKS3_ngEvE4$_14ZNKS3_ngEvE4$_15EES3_RKS3_T_T0_T1_T2_
FNDA:704,_ZN4mlir9stablehlo12_GLOBAL__N_13mapIZNKS0_7ElementngEvE4$_12ZNKS3_ngEvE4$_13ZNKS3_ngEvE4$_14ZNKS3_ngEvE4$_15EES3_RKS3_T_T0_T1_T2_
FN:35,_ZN4mlir9stablehlo12_GLOBAL__N_13mapIZNKS0_7ElementcoEvE4$_28ZNKS3_coEvE4$_29ZNKS3_coEvE4$_30ZNKS3_coEvE4$_31EES3_RKS3_T_T0_T1_T2_
FNDA:272,_ZN4mlir9stablehlo12_GLOBAL__N_13mapIZNKS0_7ElementcoEvE4$_28ZNKS3_coEvE4$_29ZNKS3_coEvE4$_30ZNKS3_coEvE4$_31EES3_RKS3_T_T0_T1_T2_
FN:66,_ZN4mlir9stablehlo12_GLOBAL__N_13mapIZNKS0_7ElementanERKS3_E3$_0ZNKS3_anES5_E3$_1ZNKS3_anES5_E3$_2ZNKS3_anES5_E3$_3EES3_S5_S5_T_T0_T1_T2_
FNDA:304,_ZN4mlir9stablehlo12_GLOBAL__N_13mapIZNKS0_7ElementanERKS3_E3$_0ZNKS3_anES5_E3$_1ZNKS3_anES5_E3$_2ZNKS3_anES5_E3$_3EES3_S5_S5_T_T0_T1_T2_
FN:66,_ZN4mlir9stablehlo12_GLOBAL__N_13mapIZNKS0_7ElementplERKS3_E3$_4ZNKS3_plES5_E3$_5ZNKS3_plES5_E3$_6ZNKS3_plES5_E3$_7EES3_S5_S5_T_T0_T1_T2_
FNDA:784,_ZN4mlir9stablehlo12_GLOBAL__N_13mapIZNKS0_7ElementplERKS3_E3$_4ZNKS3_plES5_E3$_5ZNKS3_plES5_E3$_6ZNKS3_plES5_E3$_7EES3_S5_S5_T_T0_T1_T2_
FN:66,_ZN4mlir9stablehlo12_GLOBAL__N_13mapIZNKS0_7ElementmlERKS3_E3$_8ZNKS3_mlES5_E3$_9ZNKS3_mlES5_E4$_10ZNKS3_mlES5_E4$_11EES3_S5_S5_T_T0_T1_T2_
FNDA:648,_ZN4mlir9stablehlo12_GLOBAL__N_13mapIZNKS0_7ElementmlERKS3_E3$_8ZNKS3_mlES5_E3$_9ZNKS3_mlES5_E4$_10ZNKS3_mlES5_E4$_11EES3_S5_S5_T_T0_T1_T2_
FN:66,_ZN4mlir9stablehlo12_GLOBAL__N_13mapIZNKS0_7ElementmiERKS3_E4$_16ZNKS3_miES5_E4$_17ZNKS3_miES5_E4$_18ZNKS3_miES5_E4$_19EES3_S5_S5_T_T0_T1_T2_
FNDA:744,_ZN4mlir9stablehlo12_GLOBAL__N_13mapIZNKS0_7ElementmiERKS3_E4$_16ZNKS3_miES5_E4$_17ZNKS3_miES5_E4$_18ZNKS3_miES5_E4$_19EES3_S5_S5_T_T0_T1_T2_
FN:66,_ZN4mlir9stablehlo12_GLOBAL__N_13mapIZNKS0_7ElementeoERKS3_E4$_20ZNKS3_eoES5_E4$_21ZNKS3_eoES5_E4$_22ZNKS3_eoES5_E4$_23EES3_S5_S5_T_T0_T1_T2_
FNDA:304,_ZN4mlir9stablehlo12_GLOBAL__N_13mapIZNKS0_7ElementeoERKS3_E4$_20ZNKS3_eoES5_E4$_21ZNKS3_eoES5_E4$_22ZNKS3_eoES5_E4$_23EES3_S5_S5_T_T0_T1_T2_
FN:66,_ZN4mlir9stablehlo12_GLOBAL__N_13mapIZNKS0_7ElementorERKS3_E4$_24ZNKS3_orES5_E4$_25ZNKS3_orES5_E4$_26ZNKS3_orES5_E4$_27EES3_S5_S5_T_T0_T1_T2_
FNDA:304,_ZN4mlir9stablehlo12_GLOBAL__N_13mapIZNKS0_7ElementorERKS3_E4$_24ZNKS3_orES5_E4$_25ZNKS3_orES5_E4$_26ZNKS3_orES5_E4$_27EES3_S5_S5_T_T0_T1_T2_
FN:66,_ZN4mlir9stablehlo12_GLOBAL__N_13mapIZNS0_3maxERKNS0_7ElementES5_E4$_34ZNS0_3maxES5_S5_E4$_35ZNS0_3maxES5_S5_E4$_36ZNS0_3maxES5_S5_E4$_37EES3_S5_S5_T_T0_T1_T2_
FNDA:728,_ZN4mlir9stablehlo12_GLOBAL__N_13mapIZNS0_3maxERKNS0_7ElementES5_E4$_34ZNS0_3maxES5_S5_E4$_35ZNS0_3maxES5_S5_E4$_36ZNS0_3maxES5_S5_E4$_37EES3_S5_S5_T_T0_T1_T2_
FN:66,_ZN4mlir9stablehlo12_GLOBAL__N_13mapIZNS0_3minERKNS0_7ElementES5_E4$_38ZNS0_3minES5_S5_E4$_39ZNS0_3minES5_S5_E4$_40ZNS0_3minES5_S5_E4$_41EES3_S5_S5_T_T0_T1_T2_
FNDA:728,_ZN4mlir9stablehlo12_GLOBAL__N_13mapIZNS0_3minERKNS0_7ElementES5_E4$_38ZNS0_3minES5_S5_E4$_39ZNS0_3minES5_S5_E4$_40ZNS0_3minES5_S5_E4$_41EES3_S5_S5_T_T0_T1_T2_
FN:104,_ZN4mlir9stablehlo12_GLOBAL__N_121mapWithUpcastToDoubleIZNS0_6cosineERKNS0_7ElementEE4$_32ZNS0_6cosineES5_E4$_33EES3_S5_T_T0_
FNDA:384,_ZN4mlir9stablehlo12_GLOBAL__N_121mapWithUpcastToDoubleIZNS0_6cosineERKNS0_7ElementEE4$_32ZNS0_6cosineES5_E4$_33EES3_S5_T_T0_
FN:104,_ZN4mlir9stablehlo12_GLOBAL__N_121mapWithUpcastToDoubleIZNS0_4sineERKNS0_7ElementEE4$_42ZNS0_4sineES5_E4$_43EES3_S5_T_T0_
FNDA:384,_ZN4mlir9stablehlo12_GLOBAL__N_121mapWithUpcastToDoubleIZNS0_4sineERKNS0_7ElementEE4$_42ZNS0_4sineES5_E4$_43EES3_S5_T_T0_
FN:104,_ZN4mlir9stablehlo12_GLOBAL__N_121mapWithUpcastToDoubleIZNS0_4tanhERKNS0_7ElementEE4$_44ZNS0_4tanhES5_E4$_45EES3_S5_T_T0_
FNDA:384,_ZN4mlir9stablehlo12_GLOBAL__N_121mapWithUpcastToDoubleIZNS0_4tanhERKNS0_7ElementEE4$_44ZNS0_4tanhES5_E4$_45EES3_S5_T_T0_
FN:136,_ZNK4mlir9stablehlo7Element15getIntegerValueEv
FNDA:15760,_ZNK4mlir9stablehlo7Element15getIntegerValueEv
FN:143,_ZNK4mlir9stablehlo7Element15getBooleanValueEv
FNDA:1552,_ZNK4mlir9stablehlo7Element15getBooleanValueEv
FN:150,_ZNK4mlir9stablehlo7Element13getFloatValueEv
FNDA:14880,_ZNK4mlir9stablehlo7Element13getFloatValueEv
FN:157,_ZNK4mlir9stablehlo7Element15getComplexValueEv
FNDA:2080,_ZNK4mlir9stablehlo7Element15getComplexValueEv
FN:165,_ZNK4mlir9stablehlo7ElementanERKS1_
FNDA:304,_ZNK4mlir9stablehlo7ElementanERKS1_
FN:167,_ZZNK4mlir9stablehlo7ElementanERKS1_ENK3$_0clEN4llvm5APIntES6_
FNDA:240,_ZZNK4mlir9stablehlo7ElementanERKS1_ENK3$_0clEN4llvm5APIntES6_
FN:168,_ZZNK4mlir9stablehlo7ElementanERKS1_ENK3$_1clEbb
FNDA:64,_ZZNK4mlir9stablehlo7ElementanERKS1_ENK3$_1clEbb
FN:169,_ZZNK4mlir9stablehlo7ElementanERKS1_ENK3$_2clEN4llvm7APFloatES6_
FNDA:0,_ZZNK4mlir9stablehlo7ElementanERKS1_ENK3$_2clEN4llvm7APFloatES6_
FN:172,_ZZNK4mlir9stablehlo7ElementanERKS1_ENK3$_3clESt7complexIN4llvm7APFloatEES8_
FNDA:0,_ZZNK4mlir9stablehlo7ElementanERKS1_ENK3$_3clESt7complexIN4llvm7APFloatEES8_
FN:178,_ZNK4mlir9stablehlo7ElementplERKS1_
FNDA:784,_ZNK4mlir9stablehlo7ElementplERKS1_
FN:180,_ZZNK4mlir9stablehlo7ElementplERKS1_ENK3$_4clEN4llvm5APIntES6_
FNDA:368,_ZZNK4mlir9stablehlo7ElementplERKS1_ENK3$_4clEN4llvm5APIntES6_
FN:181,_ZZNK4mlir9stablehlo7ElementplERKS1_ENK3$_5clEbb
FNDA:32,_ZZNK4mlir9stablehlo7ElementplERKS1_ENK3$_5clEbb
FN:182,_ZZNK4mlir9stablehlo7ElementplERKS1_ENK3$_6clEN4llvm7APFloatES6_
FNDA:352,_ZZNK4mlir9stablehlo7ElementplERKS1_ENK3$_6clEN4llvm7APFloatES6_
FN:183,_ZZNK4mlir9stablehlo7ElementplERKS1_ENK3$_7clESt7complexIN4llvm7APFloatEES8_
FNDA:32,_ZZNK4mlir9stablehlo7ElementplERKS1_ENK3$_7clESt7complexIN4llvm7APFloatEES8_
FN:193,_ZNK4mlir9stablehlo7ElementmlERKS1_
FNDA:648,_ZNK4mlir9stablehlo7ElementmlERKS1_
FN:195,_ZZNK4mlir9stablehlo7ElementmlERKS1_ENK3$_8clEN4llvm5APIntES6_
FNDA:232,_ZZNK4mlir9stablehlo7ElementmlERKS1_ENK3$_8clEN4llvm5APIntES6_
FN:196,_ZZNK4mlir9stablehlo7ElementmlERKS1_ENK3$_9clEbb
FNDA:32,_ZZNK4mlir9stablehlo7ElementmlERKS1_ENK3$_9clEbb
FN:197,_ZZNK4mlir9stablehlo7ElementmlERKS1_ENK4$_10clEN4llvm7APFloatES6_
FNDA:352,_ZZNK4mlir9stablehlo7ElementmlERKS1_ENK4$_10clEN4llvm7APFloatES6_
FN:198,_ZZNK4mlir9stablehlo7ElementmlERKS1_ENK4$_11clESt7complexIN4llvm7APFloatEES8_
FNDA:32,_ZZNK4mlir9stablehlo7ElementmlERKS1_ENK4$_11clESt7complexIN4llvm7APFloatEES8_
FN:206,_ZNK4mlir9stablehlo7ElementngEv
FNDA:704,_ZNK4mlir9stablehlo7ElementngEv
FN:208,_ZZNK4mlir9stablehlo7ElementngEvENK4$_12clEN4llvm5APIntE
FNDA:320,_ZZNK4mlir9stablehlo7ElementngEvENK4$_12clEN4llvm5APIntE
FN:209,_ZZNK4mlir9stablehlo7ElementngEvENK4$_13clEb
FNDA:0,_ZZNK4mlir9stablehlo7ElementngEvENK4$_13clEb
FN:212,_ZZNK4mlir9stablehlo7ElementngEvENK4$_14clEN4llvm7APFloatE
FNDA:352,_ZZNK4mlir9stablehlo7ElementngEvENK4$_14clEN4llvm7APFloatE
FN:213,_ZZNK4mlir9stablehlo7ElementngEvENK4$_15clESt7complexIN4llvm7APFloatEE
FNDA:32,_ZZNK4mlir9stablehlo7ElementngEvENK4$_15clESt7complexIN4llvm7APFloatEE
FN:216,_ZNK4mlir9stablehlo7ElementmiERKS1_
FNDA:744,_ZNK4mlir9stablehlo7ElementmiERKS1_
FN:218,_ZZNK4mlir9stablehlo7ElementmiERKS1_ENK4$_16clEN4llvm5APIntES6_
FNDA:360,_ZZNK4mlir9stablehlo7ElementmiERKS1_ENK4$_16clEN4llvm5APIntES6_
FN:219,_ZZNK4mlir9stablehlo7ElementmiERKS1_ENK4$_17clEbb
FNDA:0,_ZZNK4mlir9stablehlo7ElementmiERKS1_ENK4$_17clEbb
FN:222,_ZZNK4mlir9stablehlo7ElementmiERKS1_ENK4$_18clEN4llvm7APFloatES6_
FNDA:352,_ZZNK4mlir9stablehlo7ElementmiERKS1_ENK4$_18clEN4llvm7APFloatES6_
FN:223,_ZZNK4mlir9stablehlo7ElementmiERKS1_ENK4$_19clESt7complexIN4llvm7APFloatEES8_
FNDA:32,_ZZNK4mlir9stablehlo7ElementmiERKS1_ENK4$_19clESt7complexIN4llvm7APFloatEES8_
FN:233,_ZNK4mlir9stablehlo7ElementeoERKS1_
FNDA:304,_ZNK4mlir9stablehlo7ElementeoERKS1_
FN:235,_ZZNK4mlir9stablehlo7ElementeoERKS1_ENK4$_20clEN4llvm5APIntES6_
FNDA:240,_ZZNK4mlir9stablehlo7ElementeoERKS1_ENK4$_20clEN4llvm5APIntES6_
FN:236,_ZZNK4mlir9stablehlo7ElementeoERKS1_ENK4$_21clEbb
FNDA:64,_ZZNK4mlir9stablehlo7ElementeoERKS1_ENK4$_21clEbb
FN:237,_ZZNK4mlir9stablehlo7ElementeoERKS1_ENK4$_22clEN4llvm7APFloatES6_
FNDA:0,_ZZNK4mlir9stablehlo7ElementeoERKS1_ENK4$_22clEN4llvm7APFloatES6_
FN:240,_ZZNK4mlir9stablehlo7ElementeoERKS1_ENK4$_23clESt7complexIN4llvm7APFloatEES8_
FNDA:0,_ZZNK4mlir9stablehlo7ElementeoERKS1_ENK4$_23clESt7complexIN4llvm7APFloatEES8_
FN:246,_ZNK4mlir9stablehlo7ElementorERKS1_
FNDA:304,_ZNK4mlir9stablehlo7ElementorERKS1_
FN:248,_ZZNK4mlir9stablehlo7ElementorERKS1_ENK4$_24clEN4llvm5APIntES6_
FNDA:240,_ZZNK4mlir9stablehlo7ElementorERKS1_ENK4$_24clEN4llvm5APIntES6_
FN:249,_ZZNK4mlir9stablehlo7ElementorERKS1_ENK4$_25clEbb
FNDA:64,_ZZNK4mlir9stablehlo7ElementorERKS1_ENK4$_25clEbb
FN:250,_ZZNK4mlir9stablehlo7ElementorERKS1_ENK4$_26clEN4llvm7APFloatES6_
FNDA:0,_ZZNK4mlir9stablehlo7ElementorERKS1_ENK4$_26clEN4llvm7APFloatES6_
FN:253,_ZZNK4mlir9stablehlo7ElementorERKS1_ENK4$_27clESt7complexIN4llvm7APFloatEES8_
FNDA:0,_ZZNK4mlir9stablehlo7ElementorERKS1_ENK4$_27clESt7complexIN4llvm7APFloatEES8_
FN:259,_ZNK4mlir9stablehlo7ElementcoEv
FNDA:272,_ZNK4mlir9stablehlo7ElementcoEv
FN:261,_ZZNK4mlir9stablehlo7ElementcoEvENK4$_28clEN4llvm5APIntE
FNDA:240,_ZZNK4mlir9stablehlo7ElementcoEvENK4$_28clEN4llvm5APIntE
FN:262,_ZZNK4mlir9stablehlo7ElementcoEvENK4$_29clEb
FNDA:32,_ZZNK4mlir9stablehlo7ElementcoEvENK4$_29clEb
FN:263,_ZZNK4mlir9stablehlo7ElementcoEvENK4$_30clEN4llvm7APFloatE
FNDA:0,_ZZNK4mlir9stablehlo7ElementcoEvENK4$_30clEN4llvm7APFloatE
FN:266,_ZZNK4mlir9stablehlo7ElementcoEvENK4$_31clESt7complexIN4llvm7APFloatEE
FNDA:0,_ZZNK4mlir9stablehlo7ElementcoEvENK4$_31clESt7complexIN4llvm7APFloatEE
FN:271,_ZN4mlir9stablehlo4ceilERKNS0_7ElementE
FNDA:288,_ZN4mlir9stablehlo4ceilERKNS0_7ElementE
FN:277,_ZN4mlir9stablehlo5floorERKNS0_7ElementE
FNDA:288,_ZN4mlir9stablehlo5floorERKNS0_7ElementE
FN:283,_ZN4mlir9stablehlo6cosineERKNS0_7ElementE
FNDA:384,_ZN4mlir9stablehlo6cosineERKNS0_7ElementE
FN:285,_ZZN4mlir9stablehlo6cosineERKNS0_7ElementEENK4$_32clEd
FNDA:352,_ZZN4mlir9stablehlo6cosineERKNS0_7ElementEENK4$_32clEd
FN:286,_ZZN4mlir9stablehlo6cosineERKNS0_7ElementEENK4$_33clESt7complexIdE
FNDA:32,_ZZN4mlir9stablehlo6cosineERKNS0_7ElementEENK4$_33clESt7complexIdE
FN:289,_ZN4mlir9stablehlo3maxERKNS0_7ElementES3_
FNDA:728,_ZN4mlir9stablehlo3maxERKNS0_7ElementES3_
FN:292,_ZZN4mlir9stablehlo3maxERKNS0_7ElementES3_ENK4$_34clEN4llvm5APIntES6_
FNDA:280,_ZZN4mlir9stablehlo3maxERKNS0_7ElementES3_ENK4$_34clEN4llvm5APIntES6_
FN:297,_ZZN4mlir9stablehlo3maxERKNS0_7ElementES3_ENK4$_35clEbb
FNDA:32,_ZZN4mlir9stablehlo3maxERKNS0_7ElementES3_ENK4$_35clEbb
FN:298,_ZZN4mlir9stablehlo3maxERKNS0_7ElementES3_ENK4$_36clEN4llvm7APFloatES6_
FNDA:352,_ZZN4mlir9stablehlo3maxERKNS0_7ElementES3_ENK4$_36clEN4llvm7APFloatES6_
FN:299,_ZZN4mlir9stablehlo3maxERKNS0_7ElementES3_ENK4$_37clESt7complexIN4llvm7APFloatEES8_
FNDA:64,_ZZN4mlir9stablehlo3maxERKNS0_7ElementES3_ENK4$_37clESt7complexIN4llvm7APFloatEES8_
FN:307,_ZN4mlir9stablehlo3minERKNS0_7ElementES3_
FNDA:728,_ZN4mlir9stablehlo3minERKNS0_7ElementES3_
FN:310,_ZZN4mlir9stablehlo3minERKNS0_7ElementES3_ENK4$_38clEN4llvm5APIntES6_
FNDA:280,_ZZN4mlir9stablehlo3minERKNS0_7ElementES3_ENK4$_38clEN4llvm5APIntES6_
FN:315,_ZZN4mlir9stablehlo3minERKNS0_7ElementES3_ENK4$_39clEbb
FNDA:32,_ZZN4mlir9stablehlo3minERKNS0_7ElementES3_ENK4$_39clEbb
FN:316,_ZZN4mlir9stablehlo3minERKNS0_7ElementES3_ENK4$_40clEN4llvm7APFloatES6_
FNDA:352,_ZZN4mlir9stablehlo3minERKNS0_7ElementES3_ENK4$_40clEN4llvm7APFloatES6_
FN:317,_ZZN4mlir9stablehlo3minERKNS0_7ElementES3_ENK4$_41clESt7complexIN4llvm7APFloatEES8_
FNDA:64,_ZZN4mlir9stablehlo3minERKNS0_7ElementES3_ENK4$_41clESt7complexIN4llvm7APFloatEES8_
FN:325,_ZN4mlir9stablehlo4sineERKNS0_7ElementE
FNDA:384,_ZN4mlir9stablehlo4sineERKNS0_7ElementE
FN:327,_ZZN4mlir9stablehlo4sineERKNS0_7ElementEENK4$_42clEd
FNDA:352,_ZZN4mlir9stablehlo4sineERKNS0_7ElementEENK4$_42clEd
FN:328,_ZZN4mlir9stablehlo4sineERKNS0_7ElementEENK4$_43clESt7complexIdE
FNDA:32,_ZZN4mlir9stablehlo4sineERKNS0_7ElementEENK4$_43clESt7complexIdE
FN:331,_ZN4mlir9stablehlo4tanhERKNS0_7ElementE
FNDA:384,_ZN4mlir9stablehlo4tanhERKNS0_7ElementE
FN:333,_ZZN4mlir9stablehlo4tanhERKNS0_7ElementEENK4$_44clEd
FNDA:352,_ZZN4mlir9stablehlo4tanhERKNS0_7ElementEENK4$_44clEd
FN:334,_ZZN4mlir9stablehlo4tanhERKNS0_7ElementEENK4$_45clESt7complexIdE
FNDA:32,_ZZN4mlir9stablehlo4tanhERKNS0_7ElementEENK4$_45clESt7complexIdE
FN:337,_ZNK4mlir9stablehlo7Element5printERN4llvm11raw_ostreamE
FNDA:11264,_ZNK4mlir9stablehlo7Element5printERN4llvm11raw_ostreamE
FN:367,_ZNK4mlir9stablehlo7Element4dumpEv
FNDA:0,_ZNK4mlir9stablehlo7Element4dumpEv
DA:35,976
DA:36,976
DA:37,976
DA:39,976
DA:40,560
DA:41,560
DA:42,560
DA:44,416
DA:45,32
DA:46,32
DA:47,32
DA:49,384
DA:50,352
DA:51,352
DA:52,352
DA:54,32
DA:55,32
DA:56,32
DA:57,32
DA:58,32
DA:60,0
DA:61,0
DA:62,976
DA:66,4544
DA:67,4544
DA:68,4544
DA:69,4544
DA:70,0
DA:71,0
DA:72,0
DA:74,4544
DA:75,2240
DA:76,2240
DA:77,2240
DA:78,2240
DA:80,2304
DA:81,320
DA:82,320
DA:83,320
DA:84,320
DA:86,1984
DA:87,1760
DA:88,1760
DA:89,1760
DA:90,1760
DA:92,224
DA:93,224
DA:94,224
DA:95,224
DA:96,224
DA:97,224
DA:99,0
DA:100,0
DA:101,4544
DA:104,1152
DA:105,1152
DA:106,1152
DA:108,1152
DA:109,1056
DA:110,1056
DA:111,1056
DA:112,1056
DA:113,1056
DA:114,1056
DA:115,1056
DA:117,96
DA:118,96
DA:119,96
DA:120,192
DA:121,96
DA:122,96
DA:123,96
DA:124,96
DA:125,96
DA:126,96
DA:127,96
DA:128,96
DA:130,0
DA:131,0
DA:132,1152
DA:136,15760
DA:137,15760
DA:138,0
DA:140,15760
DA:143,1552
DA:144,1552
DA:145,0
DA:147,1552
DA:150,14880
DA:151,14880
DA:152,0
DA:154,14880
DA:157,2080
DA:158,2080
DA:159,0
DA:161,2080
DA:162,2080
DA:163,2080
DA:165,304
DA:166,304
DA:167,544
DA:168,64
DA:169,0
DA:170,0
DA:172,0
DA:173,0
DA:174,0
DA:178,784
DA:179,784
DA:180,1152
DA:181,32
DA:182,352
DA:183,32
DA:187,32
DA:188,32
DA:189,32
DA:190,32
DA:193,648
DA:194,648
DA:195,880
DA:196,32
DA:197,352
DA:198,32
DA:200,32
DA:201,32
DA:202,32
DA:203,32
DA:206,704
DA:207,704
DA:208,320
DA:209,0
DA:210,0
DA:212,352
DA:213,32
DA:216,744
DA:217,744
DA:218,1104
DA:219,0
DA:220,0
DA:222,352
DA:223,32
DA:227,32
DA:228,32
DA:229,32
DA:230,32
DA:233,304
DA:234,304
DA:235,544
DA:236,64
DA:237,0
DA:238,0
DA:240,0
DA:241,0
DA:242,0
DA:246,304
DA:247,304
DA:248,544
DA:249,64
DA:250,0
DA:251,0
DA:253,0
DA:254,0
DA:255,0
DA:259,272
DA:260,272
DA:261,240
DA:262,32
DA:263,0
DA:264,0
DA:266,0
DA:267,0
DA:271,288
DA:272,288
DA:273,288
DA:274,288
DA:275,288
DA:277,288
DA:278,288
DA:279,288
DA:280,288
DA:281,288
DA:283,384
DA:284,384
DA:285,736
DA:286,32
DA:289,728
DA:290,728
DA:291,728
DA:292,1008
DA:293,280
DA:294,200
DA:295,80
DA:297,32
DA:298,352
DA:299,64
DA:300,64
DA:301,48
DA:302,16
DA:303,64
DA:304,64
DA:307,728
DA:308,728
DA:309,728
DA:310,1008
DA:311,280
DA:312,200
DA:313,80
DA:315,32
DA:316,352
DA:317,64
DA:318,64
DA:319,48
DA:320,16
DA:321,64
DA:322,64
DA:325,384
DA:326,384
DA:327,736
DA:328,32
DA:331,384
DA:332,384
DA:333,736
DA:334,32
DA:337,11264
DA:338,11264
DA:339,5280
DA:340,5280
DA:343,5984
DA:344,352
DA:345,352
DA:348,5632
DA:349,4864
DA:350,4864
DA:353,768
DA:354,768
DA:355,768
DA:357,768
DA:358,768
DA:359,768
DA:360,768
DA:361,768
DA:364,768
DA:365,11264
DA:367,0
end_of_record
TN:
SF:/usr/local/google/home/gleasonk/Coding/openxla/stablehlo/stablehlo/reference/Types.cpp
FN:23,_ZN4mlir9stablehlo30isSupportedUnsignedIntegerTypeENS_4TypeE
FNDA:48152,_ZN4mlir9stablehlo30isSupportedUnsignedIntegerTypeENS_4TypeE
FN:29,_ZN4mlir9stablehlo28isSupportedSignedIntegerTypeENS_4TypeE
FNDA:39712,_ZN4mlir9stablehlo28isSupportedSignedIntegerTypeENS_4TypeE
FN:39,_ZN4mlir9stablehlo22isSupportedBooleanTypeENS_4TypeE
FNDA:14360,_ZN4mlir9stablehlo22isSupportedBooleanTypeENS_4TypeE
FN:41,_ZN4mlir9stablehlo22isSupportedIntegerTypeENS_4TypeE
FNDA:46712,_ZN4mlir9stablehlo22isSupportedIntegerTypeENS_4TypeE
FN:46,_ZN4mlir9stablehlo20isSupportedFloatTypeENS_4TypeE
FNDA:25184,_ZN4mlir9stablehlo20isSupportedFloatTypeENS_4TypeE
FN:50,_ZN4mlir9stablehlo22isSupportedComplexTypeENS_4TypeE
FNDA:3584,_ZN4mlir9stablehlo22isSupportedComplexTypeENS_4TypeE
DA:23,48152
DA:24,92824
DA:25,44672
DA:26,41120
DA:29,39712
DA:34,71600
DA:35,31888
DA:36,21184
DA:39,14360
DA:41,46712
DA:42,46712
DA:43,36752
DA:46,25184
DA:47,25184
DA:50,3584
DA:51,3584
DA:52,3584
DA:54,3584
DA:55,3584
DA:56,3584
end_of_record
TN:
SF:/usr/local/google/home/gleasonk/Coding/openxla/stablehlo/stablehlo/reference/Index.h
FN:41,_ZN4mlir9stablehlo18IndexSpaceIteratorC2ERKS1_
FNDA:0,_ZN4mlir9stablehlo18IndexSpaceIteratorC2ERKS1_
FN:41,_ZN4mlir9stablehlo18IndexSpaceIteratorD2Ev
FNDA:0,_ZN4mlir9stablehlo18IndexSpaceIteratorD2Ev
end_of_record
SF:/usr/local/google/home/gleasonk/Coding/openxla/stablehlo/stablehlo/reference/Index.cpp
FN:23,_ZN4mlir9stablehlo11verifyIndexEN4llvm8ArrayRefIlEES3_
FNDA:39672,_ZN4mlir9stablehlo11verifyIndexEN4llvm8ArrayRefIlEES3_
FN:33,_ZNK4mlir9stablehlo18IndexSpaceIteratordeEv
FNDA:37936,_ZNK4mlir9stablehlo18IndexSpaceIteratordeEv
FN:39,_ZN4mlir9stablehlo18IndexSpaceIteratorppEv
FNDA:22560,_ZN4mlir9stablehlo18IndexSpaceIteratorppEv
FN:61,_ZN4mlir9stablehlo18IndexSpaceIteratorppEi
FNDA:0,_ZN4mlir9stablehlo18IndexSpaceIteratorppEi
DA:23,39672
DA:24,39672
DA:25,39672
DA:27,88456
DA:28,48784
DA:30,39592
DA:31,39672
DA:33,37936
DA:34,37936
DA:35,0
DA:36,37936
DA:39,22560
DA:40,22560
DA:41,0
DA:43,22560
DA:45,47296
DA:46,24736
DA:47,24736
DA:48,6040
DA:49,6040
DA:50,3560
DA:51,3560
DA:53,2480
DA:54,18696
DA:56,2480
DA:58,22560
DA:61,0
DA:62,0
DA:63,0
DA:64,0
DA:65,0
end_of_record
TN:
SF:/usr/local/google/home/gleasonk/Coding/openxla/stablehlo/stablehlo/reference/Tensor.h
FN:36,_ZN4mlir9stablehlo6detail6BufferD2Ev
FNDA:0,_ZN4mlir9stablehlo6detail6BufferD2Ev
FN:49,_ZN4mlir9stablehlo6detail6Buffer7getTypeEv
FNDA:5016,_ZN4mlir9stablehlo6detail6Buffer7getTypeEv
FN:66,_ZN4mlir9stablehlo6TensorD2Ev
FNDA:7152,_ZN4mlir9stablehlo6TensorD2Ev
FN:73,_ZN4mlir9stablehlo6TensorC2ERKS1_
FNDA:12224,_ZN4mlir9stablehlo6TensorC2ERKS1_
FN:77,_ZN4mlir9stablehlo6TensoraSERKS1_
FNDA:0,_ZN4mlir9stablehlo6TensoraSERKS1_
FN:80,_ZNK4mlir9stablehlo6Tensor7getTypeEv
FNDA:5016,_ZNK4mlir9stablehlo6Tensor7getTypeEv
DA:49,5016
DA:73,12224
DA:77,0
DA:80,5016
end_of_record
SF:/usr/local/google/home/gleasonk/Coding/openxla/stablehlo/stablehlo/reference/Scope.cpp
FN:24,_ZN4mlir9stablehlo5Scope3addENS_5ValueENS0_6TensorE
FNDA:5016,_ZN4mlir9stablehlo5Scope3addENS_5ValueENS0_6TensorE
FN:38,_ZN4mlir9stablehlo5Scope3addENS_10ValueRangeEN4llvm8ArrayRefINS0_6TensorEEE
FNDA:6696,_ZN4mlir9stablehlo5Scope3addENS_10ValueRangeEN4llvm8ArrayRefINS0_6TensorEEE
FN:44,_ZNK4mlir9stablehlo5Scope4findENS_5ValueE
FNDA:5232,_ZNK4mlir9stablehlo5Scope4findENS_5ValueE
FN:56,_ZNK4mlir9stablehlo5Scope4findENS_10ValueRangeE
FNDA:2040,_ZNK4mlir9stablehlo5Scope4findENS_10ValueRangeE
FN:58,_ZZNK4mlir9stablehlo5Scope4findENS_10ValueRangeEENK3$_0clENS_5ValueE
FNDA:2136,_ZZNK4mlir9stablehlo5Scope4findENS_10ValueRangeEENK3$_0clENS_5ValueE
DA:24,5016
DA:28,5016
DA:29,0
DA:31,5016
DA:32,0
DA:35,5016
DA:36,5016
DA:38,6696
DA:39,6696
DA:40,11712
DA:41,10032
DA:42,6696
DA:44,5232
DA:45,5232
DA:47,5232
DA:49,160
DA:50,0
DA:51,0
DA:53,160
DA:54,5232
DA:56,2040
DA:57,2040
DA:58,4176
end_of_record
TN:
SF:/usr/local/google/home/gleasonk/Coding/openxla/stablehlo/stablehlo/dialect/Version.h
FN:46,_ZN4mlir4vhlo7VersionC2Elll
FNDA:67320,_ZN4mlir4vhlo7VersionC2Elll
FN:49,_ZNK4mlir4vhlo7Version8getMajorEv
FNDA:32,_ZNK4mlir4vhlo7Version8getMajorEv
FN:50,_ZNK4mlir4vhlo7Version8getMinorEv
FNDA:32,_ZNK4mlir4vhlo7Version8getMinorEv
FN:51,_ZNK4mlir4vhlo7Version8getPatchEv
FNDA:32,_ZNK4mlir4vhlo7Version8getPatchEv
DA:46,67320
DA:47,67320
DA:49,32
DA:50,32
DA:51,32
end_of_record
SF:/usr/local/google/home/gleasonk/Coding/openxla/stablehlo/stablehlo/dialect/Version.cpp
FN:28,_ZN4mlir4vhlo12_GLOBAL__N_111parseNumberEN4llvm9StringRefE
FNDA:201960,_ZN4mlir4vhlo12_GLOBAL__N_111parseNumberEN4llvm9StringRefE
FN:39,_ZN4mlir4vhlo12_GLOBAL__N_121extractVersionNumbersEN4llvm9StringRefE
FNDA:67336,_ZN4mlir4vhlo12_GLOBAL__N_121extractVersionNumbersEN4llvm9StringRefE
FN:50,_ZN4mlir4vhlo12_GLOBAL__N_14dumpINS_10DiagnosticEEERT_S5_RKNS0_7VersionE
FNDA:32,_ZN4mlir4vhlo12_GLOBAL__N_14dumpINS_10DiagnosticEEERT_S5_RKNS0_7VersionE
FN:50,_ZN4mlir4vhlo12_GLOBAL__N_14dumpIN4llvm11raw_ostreamEEERT_S6_RKNS0_7VersionE
FNDA:0,_ZN4mlir4vhlo12_GLOBAL__N_14dumpIN4llvm11raw_ostreamEEERT_S6_RKNS0_7VersionE
FN:56,_ZN4mlir4vhlo7Version10fromStringEN4llvm9StringRefE
FNDA:67336,_ZN4mlir4vhlo7Version10fromStringEN4llvm9StringRefE
FN:63,_ZN4mlir4vhlolsERNS_10DiagnosticERKNS0_7VersionE
FNDA:32,_ZN4mlir4vhlolsERNS_10DiagnosticERKNS0_7VersionE
FN:66,_ZN4mlir4vhlolsERN4llvm11raw_ostreamERKNS0_7VersionE
FNDA:0,_ZN4mlir4vhlolsERN4llvm11raw_ostreamERKNS0_7VersionE
DA:28,201960
DA:29,201960
DA:30,201960
DA:31,0
DA:33,403920
DA:34,201960
DA:39,67336
DA:40,67336
DA:41,67336
DA:42,67336
DA:43,67336
DA:44,201960
DA:45,67320
DA:46,67320
DA:47,67336
DA:50,32
DA:51,64
DA:52,32
DA:56,67336
DA:57,67336
DA:58,67336
DA:59,67320
DA:60,67320
DA:61,67336
DA:63,32
DA:64,32
DA:66,0
DA:67,0
end_of_record
TN:
SF:/usr/local/google/home/gleasonk/Coding/openxla/stablehlo/stablehlo/dialect/VhloOps.h
FN:32,_ZN4mlir4vhlo11VhloDialectD0Ev
FNDA:256,_ZN4mlir4vhlo11VhloDialectD0Ev
FN:35,_ZN4mlir4vhlo11VhloDialect19getDialectNamespaceEv
FNDA:13704,_ZN4mlir4vhlo11VhloDialect19getDialectNamespaceEv
FN:57,_ZN4mlir4vhlo11VhloDialect26addTypesWithoutRegisteringIJNS0_14BFloat16V1TypeENS0_13ComplexV1TypeENS0_13Float16V1TypeENS0_13Float32V1TypeENS0_13Float64V1TypeENS0_18Float8E4M3FNV1TypeENS0_16Float8E5M2V1TypeENS0_14FunctionV1TypeENS0_11IndexV1TypeENS0_16IntegerI16V1TypeENS0_15IntegerI1V1TypeENS0_16IntegerI32V1TypeENS0_15IntegerI4V1TypeENS0_16IntegerI64V1TypeENS0_15IntegerI8V1TypeENS0_17IntegerUI16V1TypeENS0_17IntegerUI32V1TypeENS0_16IntegerUI4V1TypeENS0_17IntegerUI64V1TypeENS0_16IntegerUI8V1TypeENS0_18RankedTensorV1TypeENS0_11TokenV1TypeENS0_11TupleV1TypeENS0_22UniformQuantizedV1TypeENS0_20UnrankedTensorV1TypeENS0_13WitnessV1TypeEEEEvv
FNDA:256,_ZN4mlir4vhlo11VhloDialect26addTypesWithoutRegisteringIJNS0_14BFloat16V1TypeENS0_13ComplexV1TypeENS0_13Float16V1TypeENS0_13Float32V1TypeENS0_13Float64V1TypeENS0_18Float8E4M3FNV1TypeENS0_16Float8E5M2V1TypeENS0_14FunctionV1TypeENS0_11IndexV1TypeENS0_16IntegerI16V1TypeENS0_15IntegerI1V1TypeENS0_16IntegerI32V1TypeENS0_15IntegerI4V1TypeENS0_16IntegerI64V1TypeENS0_15IntegerI8V1TypeENS0_17IntegerUI16V1TypeENS0_17IntegerUI32V1TypeENS0_16IntegerUI4V1TypeENS0_17IntegerUI64V1TypeENS0_16IntegerUI8V1TypeENS0_18RankedTensorV1TypeENS0_11TokenV1TypeENS0_11TupleV1TypeENS0_22UniformQuantizedV1TypeENS0_20UnrankedTensorV1TypeENS0_13WitnessV1TypeEEEEvv
DA:35,13704
DA:57,256
DA:58,256
DA:59,256
end_of_record
SF:/usr/local/google/home/gleasonk/Coding/openxla/stablehlo/stablehlo/dialect/VhloOps.cpp
FN:45,_ZN4mlir4vhlo12_GLOBAL__N_110isFromVhloINS_4TypeEEEbT_
FNDA:12304,_ZN4mlir4vhlo12_GLOBAL__N_110isFromVhloINS_4TypeEEEbT_
FN:45,_ZN4mlir4vhlo12_GLOBAL__N_110isFromVhloINS_9AttributeEEEbT_
FNDA:1144,_ZN4mlir4vhlo12_GLOBAL__N_110isFromVhloINS_9AttributeEEEbT_
FN:50,_ZN4mlir4vhlo12_GLOBAL__N_111allFromVhloINS_9AttributeEEEbN4llvm8ArrayRefIT_EE
FNDA:752,_ZN4mlir4vhlo12_GLOBAL__N_111allFromVhloINS_9AttributeEEEbN4llvm8ArrayRefIT_EE
FN:54,_ZN4mlir4vhlo12_GLOBAL__N_128convertTypeToBuiltinForPrintENS_4TypeE
FNDA:3256,_ZN4mlir4vhlo12_GLOBAL__N_128convertTypeToBuiltinForPrintENS_4TypeE
FN:55,_ZZN4mlir4vhlo12_GLOBAL__N_128convertTypeToBuiltinForPrintENS_4TypeEEN27VhloToBuiltinPrintConverterD0Ev
FNDA:0,_ZZN4mlir4vhlo12_GLOBAL__N_128convertTypeToBuiltinForPrintENS_4TypeEEN27VhloToBuiltinPrintConverterD0Ev
FN:56,_ZZN4mlir4vhlo12_GLOBAL__N_128convertTypeToBuiltinForPrintENS_4TypeEEN27VhloToBuiltinPrintConverterC2Ev
FNDA:3256,_ZZN4mlir4vhlo12_GLOBAL__N_128convertTypeToBuiltinForPrintENS_4TypeEEN27VhloToBuiltinPrintConverterC2Ev
FN:59,_ZZN4mlir4vhlo12_GLOBAL__N_128convertTypeToBuiltinForPrintENS_4TypeEEN27VhloToBuiltinPrintConverter15convertEncodingENS_9AttributeE
FNDA:0,_ZZN4mlir4vhlo12_GLOBAL__N_128convertTypeToBuiltinForPrintENS_4TypeEEN27VhloToBuiltinPrintConverter15convertEncodingENS_9AttributeE
FN:65,_ZN4mlir4vhlo12_GLOBAL__N_125convertTypeToVhloForParseENS_4TypeE
FNDA:872,_ZN4mlir4vhlo12_GLOBAL__N_125convertTypeToVhloForParseENS_4TypeE
FN:66,_ZZN4mlir4vhlo12_GLOBAL__N_125convertTypeToVhloForParseENS_4TypeEEN27BuiltinToVhloParseConverterD0Ev
FNDA:0,_ZZN4mlir4vhlo12_GLOBAL__N_125convertTypeToVhloForParseENS_4TypeEEN27BuiltinToVhloParseConverterD0Ev
FN:67,_ZZN4mlir4vhlo12_GLOBAL__N_125convertTypeToVhloForParseENS_4TypeEEN27BuiltinToVhloParseConverterC2Ev
FNDA:872,_ZZN4mlir4vhlo12_GLOBAL__N_125convertTypeToVhloForParseENS_4TypeEEN27BuiltinToVhloParseConverterC2Ev
FN:70,_ZZN4mlir4vhlo12_GLOBAL__N_125convertTypeToVhloForParseENS_4TypeEEN27BuiltinToVhloParseConverter15convertEncodingENS_9AttributeE
FNDA:0,_ZZN4mlir4vhlo12_GLOBAL__N_125convertTypeToVhloForParseENS_4TypeEEN27BuiltinToVhloParseConverter15convertEncodingENS_9AttributeE
FN:78,_ZN4mlir4vhloL19printAttributeArrayERNS_10AsmPrinterEN4llvm8ArrayRefINS_9AttributeEEE
FNDA:600,_ZN4mlir4vhloL19printAttributeArrayERNS_10AsmPrinterEN4llvm8ArrayRefINS_9AttributeEEE
FN:83,_ZN4mlir4vhlo19parseAttributeArrayERNS_9AsmParserERN4llvm11SmallVectorINS_9AttributeELj6EEE
FNDA:144,_ZN4mlir4vhlo19parseAttributeArrayERNS_9AsmParserERN4llvm11SmallVectorINS_9AttributeELj6EEE
FN:93,_ZNK4mlir4vhlo13IntegerV1Attr5printERNS_10AsmPrinterE
FNDA:1432,_ZNK4mlir4vhlo13IntegerV1Attr5printERNS_10AsmPrinterE
FN:99,_ZN4mlir4vhlo13IntegerV1Attr5parseERNS_9AsmParserENS_4TypeE
FNDA:432,_ZN4mlir4vhlo13IntegerV1Attr5parseERNS_9AsmParserENS_4TypeE
FN:110,_ZN4mlir4vhloL24printAttributeDictionaryERNS_10AsmPrinterEN4llvm8ArrayRefISt4pairINS_9AttributeES6_EEE
FNDA:72,_ZN4mlir4vhloL24printAttributeDictionaryERNS_10AsmPrinterEN4llvm8ArrayRefISt4pairINS_9AttributeES6_EEE
FN:120,_ZN4mlir4vhlo24parseAttributeDictionaryERNS_9AsmParserERN4llvm11SmallVectorISt4pairINS_9AttributeES6_ELj3EEE
FNDA:24,_ZN4mlir4vhlo24parseAttributeDictionaryERNS_9AsmParserERN4llvm11SmallVectorISt4pairINS_9AttributeES6_ELj3EEE
FN:122,_ZZN4mlir4vhlo24parseAttributeDictionaryERNS_9AsmParserERN4llvm11SmallVectorISt4pairINS_9AttributeES6_ELj3EEEENK3$_0clEv
FNDA:24,_ZZN4mlir4vhlo24parseAttributeDictionaryERNS_9AsmParserERN4llvm11SmallVectorISt4pairINS_9AttributeES6_ELj3EEEENK3$_0clEv
FN:140,_ZN4mlir4vhlo17printFunctionBodyERNS_12OpAsmPrinterEPNS_9OperationENS_9AttributeERNS_6RegionES5_
FNDA:5744,_ZN4mlir4vhlo17printFunctionBodyERNS_12OpAsmPrinterEPNS_9OperationENS_9AttributeERNS_6RegionES5_
FN:145,_ZZN4mlir4vhlo17printFunctionBodyERNS_12OpAsmPrinterEPNS_9OperationENS_9AttributeERNS_6RegionES5_ENK3$_1clINS_13BlockArgumentEEEDaT_
FNDA:9232,_ZZN4mlir4vhlo17printFunctionBodyERNS_12OpAsmPrinterEPNS_9OperationENS_9AttributeERNS_6RegionES5_ENK3$_1clINS_13BlockArgumentEEEDaT_
FN:149,_ZZN4mlir4vhlo17printFunctionBodyERNS_12OpAsmPrinterEPNS_9OperationENS_9AttributeERNS_6RegionES5_ENK3$_2clINS_4TypeEEEDaT_
FNDA:6000,_ZZN4mlir4vhlo17printFunctionBodyERNS_12OpAsmPrinterEPNS_9OperationENS_9AttributeERNS_6RegionES5_ENK3$_2clINS_4TypeEEEDaT_
FN:155,_ZN4mlir4vhlo17parseFunctionBodyERNS_11OpAsmParserERNS_9AttributeERNS_6RegionES4_
FNDA:1544,_ZN4mlir4vhlo17parseFunctionBodyERNS_11OpAsmParserERNS_9AttributeERNS_6RegionES4_
FN:179,_ZNK4mlir4vhlo26DenseIntOrFPElementsV1Attr5printERNS_10AsmPrinterE
FNDA:1824,_ZNK4mlir4vhlo26DenseIntOrFPElementsV1Attr5printERNS_10AsmPrinterE
FN:187,_ZN4mlir4vhlo26DenseIntOrFPElementsV1Attr5parseERNS_9AsmParserENS_4TypeE
FNDA:440,_ZN4mlir4vhlo26DenseIntOrFPElementsV1Attr5parseERNS_9AsmParserENS_4TypeE
FN:217,_ZN4mlir4vhlo11VhloDialectC2EPNS_11MLIRContextE
FNDA:256,_ZN4mlir4vhlo11VhloDialectC2EPNS_11MLIRContextE
FN:231,_ZN4mlir4vhlo11VhloDialect12addVhloTypesEv
FNDA:256,_ZN4mlir4vhlo11VhloDialect12addVhloTypesEv
FN:253,_ZNK4mlir4vhlo11VhloDialect9parseTypeERNS_16DialectAsmParserE
FNDA:20272,_ZNK4mlir4vhlo11VhloDialect9parseTypeERNS_16DialectAsmParserE
FN:262,_ZNK4mlir4vhlo11VhloDialect9printTypeENS_4TypeERNS_17DialectAsmPrinterE
FNDA:66320,_ZNK4mlir4vhlo11VhloDialect9printTypeENS_4TypeERNS_17DialectAsmPrinterE
FN:269,_ZNK4mlir4vhlo11VhloDialect14parseAttributeERNS_16DialectAsmParserENS_4TypeE
FNDA:1984,_ZNK4mlir4vhlo11VhloDialect14parseAttributeERNS_16DialectAsmParserENS_4TypeE
FN:281,_ZNK4mlir4vhlo11VhloDialect14printAttributeENS_9AttributeERNS_17DialectAsmPrinterE
FNDA:12512,_ZNK4mlir4vhlo11VhloDialect14printAttributeENS_9AttributeERNS_17DialectAsmPrinterE
DA:45,13448
DA:46,13448
DA:50,752
DA:51,752
DA:54,3256
DA:56,3256
DA:57,3256
DA:58,3256
DA:59,0
DA:61,3256
DA:62,3256
DA:63,3256
DA:65,872
DA:67,872
DA:68,872
DA:69,872
DA:70,0
DA:72,872
DA:73,872
DA:74,872
DA:78,600
DA:79,600
DA:80,600
DA:83,144
DA:84,144
DA:85,144
DA:86,144
DA:87,0
DA:89,144
DA:90,144
DA:91,144
DA:93,1432
DA:94,2864
DA:95,1432
DA:96,1432
DA:97,1432
DA:99,432
DA:100,432
DA:101,432
DA:102,432
DA:103,0
DA:105,864
DA:106,432
DA:107,432
DA:108,432
DA:110,72
DA:111,72
DA:112,72
DA:113,144
DA:114,72
DA:115,72
DA:116,72
DA:117,72
DA:120,24
DA:121,24
DA:122,48
DA:123,24
DA:124,24
DA:125,24
DA:126,24
DA:127,0
DA:129,24
DA:130,24
DA:131,24
DA:132,48
DA:133,24
DA:134,0
DA:136,24
DA:137,24
DA:140,5744
DA:141,5744
DA:142,5744
DA:143,5744
DA:144,11488
DA:145,14976
DA:146,5744
DA:147,5744
DA:148,11488
DA:149,11744
DA:150,5744
DA:151,5744
DA:152,5744
DA:155,1544
DA:156,1544
DA:157,1544
DA:158,1544
DA:159,1544
DA:160,1544
DA:161,3088
DA:162,1544
DA:163,3088
DA:164,1544
DA:165,1544
DA:166,0
DA:168,1544
DA:169,3984
DA:170,2440
DA:171,2440
DA:172,3088
DA:173,1544
DA:174,1544
DA:176,1544
DA:177,1544
DA:179,1824
DA:180,3648
DA:181,3648
DA:182,1824
DA:183,1824
DA:184,1824
DA:187,440
DA:188,440
DA:189,440
DA:190,440
DA:191,0
DA:193,880
DA:194,440
DA:195,440
DA:196,440
DA:217,256
DA:218,256
DA:219,256
DA:223,256
DA:224,256
DA:225,256
DA:229,256
DA:231,256
DA:246,256
DA:250,256
DA:251,256
DA:253,20272
DA:254,20272
DA:255,20272
DA:256,20272
DA:257,20272
DA:258,0
DA:259,0
DA:260,20272
DA:262,66320
DA:263,66320
DA:264,0
DA:265,66320
DA:269,1984
DA:270,1984
DA:271,1984
DA:272,1984
DA:273,1984
DA:274,1984
DA:275,0
DA:276,0
DA:277,1984
DA:281,12512
DA:282,12512
DA:284,12512
DA:285,12512
end_of_record
SF:/usr/local/google/home/gleasonk/Coding/openxla/stablehlo/stablehlo/dialect/VhloTypes.h
FN:32,_ZN4mlir4vhlo21VhloTypeConverterBaseC2Ev
FNDA:4128,_ZN4mlir4vhlo21VhloTypeConverterBaseC2Ev
FN:34,_ZN4mlir4vhlo21VhloTypeConverterBaseD2Ev
FNDA:4128,_ZN4mlir4vhlo21VhloTypeConverterBaseD2Ev
FN:34,_ZN4mlir4vhlo21VhloTypeConverterBaseD0Ev
FNDA:0,_ZN4mlir4vhlo21VhloTypeConverterBaseD0Ev
FN:41,_ZN4mlir4vhlo17VhloTypeConverterD0Ev
FNDA:0,_ZN4mlir4vhlo17VhloTypeConverterD0Ev
FN:43,_ZN4mlir4vhlo17VhloTypeConverterC2Ev
FNDA:4128,_ZN4mlir4vhlo17VhloTypeConverterC2Ev
DA:32,4128
DA:34,4128
DA:43,4128
end_of_record
SF:/usr/local/google/home/gleasonk/Coding/openxla/stablehlo/stablehlo/dialect/Version.h
FN:40,_ZN4mlir4vhlo7Version17getCurrentVersionEv
FNDA:66072,_ZN4mlir4vhlo7Version17getCurrentVersionEv
FN:46,_ZN4mlir4vhlo7VersionC2Elll
FNDA:66072,_ZN4mlir4vhlo7VersionC2Elll
DA:40,66072
DA:46,66072
DA:47,66072
end_of_record
TN:
SF:/usr/local/google/home/gleasonk/Coding/openxla/stablehlo/stablehlo/dialect/VhloBytecode.cpp
FN:382,_ZN4mlir4vhlo12_GLOBAL__N_121VhloBytecodeInterfaceD0Ev
FNDA:256,_ZN4mlir4vhlo12_GLOBAL__N_121VhloBytecodeInterfaceD0Ev
FN:384,_ZN4mlir4vhlo12_GLOBAL__N_121VhloBytecodeInterfaceC2EPNS_7DialectE
FNDA:256,_ZN4mlir4vhlo12_GLOBAL__N_121VhloBytecodeInterfaceC2EPNS_7DialectE
FN:520,_ZNK4mlir4vhlo12_GLOBAL__N_121VhloBytecodeInterface13readAttributeERNS_21DialectBytecodeReaderE
FNDA:2784,_ZNK4mlir4vhlo12_GLOBAL__N_121VhloBytecodeInterface13readAttributeERNS_21DialectBytecodeReaderE
FN:585,_ZNK4mlir4vhlo12_GLOBAL__N_121VhloBytecodeInterface14writeAttributeENS_9AttributeERNS_21DialectBytecodeWriterE
FNDA:11136,_ZNK4mlir4vhlo12_GLOBAL__N_121VhloBytecodeInterface14writeAttributeENS_9AttributeERNS_21DialectBytecodeWriterE
FN:595,_ZZNK4mlir4vhlo12_GLOBAL__N_121VhloBytecodeInterface14writeAttributeENS_9AttributeERNS_21DialectBytecodeWriterEENK3$_0clINS0_20ArgResultAliasV1AttrEEEDaT_
FNDA:0,_ZZNK4mlir4vhlo12_GLOBAL__N_121VhloBytecodeInterface14writeAttributeENS_9AttributeERNS_21DialectBytecodeWriterEENK3$_0clINS0_20ArgResultAliasV1AttrEEEDaT_
FN:595,_ZZNK4mlir4vhlo12_GLOBAL__N_121VhloBytecodeInterface14writeAttributeENS_9AttributeERNS_21DialectBytecodeWriterEENK3$_0clINS0_19ChannelHandleV1AttrEEEDaT_
FNDA:64,_ZZNK4mlir4vhlo12_GLOBAL__N_121VhloBytecodeInterface14writeAttributeENS_9AttributeERNS_21DialectBytecodeWriterEENK3$_0clINS0_19ChannelHandleV1AttrEEEDaT_
FN:595,_ZZNK4mlir4vhlo12_GLOBAL__N_121VhloBytecodeInterface14writeAttributeENS_9AttributeERNS_21DialectBytecodeWriterEENK3$_0clINS0_25ComparisonDirectionV1AttrEEEDaT_
FNDA:192,_ZZNK4mlir4vhlo12_GLOBAL__N_121VhloBytecodeInterface14writeAttributeENS_9AttributeERNS_21DialectBytecodeWriterEENK3$_0clINS0_25ComparisonDirectionV1AttrEEEDaT_
FN:595,_ZZNK4mlir4vhlo12_GLOBAL__N_121VhloBytecodeInterface14writeAttributeENS_9AttributeERNS_21DialectBytecodeWriterEENK3$_0clINS0_20ComparisonTypeV1AttrEEEDaT_
FNDA:160,_ZZNK4mlir4vhlo12_GLOBAL__N_121VhloBytecodeInterface14writeAttributeENS_9AttributeERNS_21DialectBytecodeWriterEENK3$_0clINS0_20ComparisonTypeV1AttrEEEDaT_
FN:595,_ZZNK4mlir4vhlo12_GLOBAL__N_121VhloBytecodeInterface14writeAttributeENS_9AttributeERNS_21DialectBytecodeWriterEENK3$_0clINS0_26ConvDimensionNumbersV1AttrEEEDaT_
FNDA:32,_ZZNK4mlir4vhlo12_GLOBAL__N_121VhloBytecodeInterface14writeAttributeENS_9AttributeERNS_21DialectBytecodeWriterEENK3$_0clINS0_26ConvDimensionNumbersV1AttrEEEDaT_
FN:595,_ZZNK4mlir4vhlo12_GLOBAL__N_121VhloBytecodeInterface14writeAttributeENS_9AttributeERNS_21DialectBytecodeWriterEENK3$_0clINS0_26CustomCallApiVersionV1AttrEEEDaT_
FNDA:128,_ZZNK4mlir4vhlo12_GLOBAL__N_121VhloBytecodeInterface14writeAttributeENS_9AttributeERNS_21DialectBytecodeWriterEENK3$_0clINS0_26CustomCallApiVersionV1AttrEEEDaT_
FN:595,_ZZNK4mlir4vhlo12_GLOBAL__N_121VhloBytecodeInterface14writeAttributeENS_9AttributeERNS_21DialectBytecodeWriterEENK3$_0clINS0_25DotDimensionNumbersV1AttrEEEDaT_
FNDA:32,_ZZNK4mlir4vhlo12_GLOBAL__N_121VhloBytecodeInterface14writeAttributeENS_9AttributeERNS_21DialectBytecodeWriterEENK3$_0clINS0_25DotDimensionNumbersV1AttrEEEDaT_
FN:595,_ZZNK4mlir4vhlo12_GLOBAL__N_121VhloBytecodeInterface14writeAttributeENS_9AttributeERNS_21DialectBytecodeWriterEENK3$_0clINS0_13FftTypeV1AttrEEEDaT_
FNDA:128,_ZZNK4mlir4vhlo12_GLOBAL__N_121VhloBytecodeInterface14writeAttributeENS_9AttributeERNS_21DialectBytecodeWriterEENK3$_0clINS0_13FftTypeV1AttrEEEDaT_
FN:595,_ZZNK4mlir4vhlo12_GLOBAL__N_121VhloBytecodeInterface14writeAttributeENS_9AttributeERNS_21DialectBytecodeWriterEENK3$_0clINS0_28GatherDimensionNumbersV1AttrEEEDaT_
FNDA:32,_ZZNK4mlir4vhlo12_GLOBAL__N_121VhloBytecodeInterface14writeAttributeENS_9AttributeERNS_21DialectBytecodeWriterEENK3$_0clINS0_28GatherDimensionNumbersV1AttrEEEDaT_
FN:595,_ZZNK4mlir4vhlo12_GLOBAL__N_121VhloBytecodeInterface14writeAttributeENS_9AttributeERNS_21DialectBytecodeWriterEENK3$_0clINS0_24OutputOperandAliasV1AttrEEEDaT_
FNDA:32,_ZZNK4mlir4vhlo12_GLOBAL__N_121VhloBytecodeInterface14writeAttributeENS_9AttributeERNS_21DialectBytecodeWriterEENK3$_0clINS0_24OutputOperandAliasV1AttrEEEDaT_
FN:595,_ZZNK4mlir4vhlo12_GLOBAL__N_121VhloBytecodeInterface14writeAttributeENS_9AttributeERNS_21DialectBytecodeWriterEENK3$_0clINS0_15PrecisionV1AttrEEEDaT_
FNDA:96,_ZZNK4mlir4vhlo12_GLOBAL__N_121VhloBytecodeInterface14writeAttributeENS_9AttributeERNS_21DialectBytecodeWriterEENK3$_0clINS0_15PrecisionV1AttrEEEDaT_
FN:595,_ZZNK4mlir4vhlo12_GLOBAL__N_121VhloBytecodeInterface14writeAttributeENS_9AttributeERNS_21DialectBytecodeWriterEENK3$_0clINS0_18RngAlgorithmV1AttrEEEDaT_
FNDA:96,_ZZNK4mlir4vhlo12_GLOBAL__N_121VhloBytecodeInterface14writeAttributeENS_9AttributeERNS_21DialectBytecodeWriterEENK3$_0clINS0_18RngAlgorithmV1AttrEEEDaT_
FN:595,_ZZNK4mlir4vhlo12_GLOBAL__N_121VhloBytecodeInterface14writeAttributeENS_9AttributeERNS_21DialectBytecodeWriterEENK3$_0clINS0_21RngDistributionV1AttrEEEDaT_
FNDA:64,_ZZNK4mlir4vhlo12_GLOBAL__N_121VhloBytecodeInterface14writeAttributeENS_9AttributeERNS_21DialectBytecodeWriterEENK3$_0clINS0_21RngDistributionV1AttrEEEDaT_
FN:595,_ZZNK4mlir4vhlo12_GLOBAL__N_121VhloBytecodeInterface14writeAttributeENS_9AttributeERNS_21DialectBytecodeWriterEENK3$_0clINS0_29ScatterDimensionNumbersV1AttrEEEDaT_
FNDA:32,_ZZNK4mlir4vhlo12_GLOBAL__N_121VhloBytecodeInterface14writeAttributeENS_9AttributeERNS_21DialectBytecodeWriterEENK3$_0clINS0_29ScatterDimensionNumbersV1AttrEEEDaT_
FN:595,_ZZNK4mlir4vhlo12_GLOBAL__N_121VhloBytecodeInterface14writeAttributeENS_9AttributeERNS_21DialectBytecodeWriterEENK3$_0clINS0_15TransposeV1AttrEEEDaT_
FNDA:96,_ZZNK4mlir4vhlo12_GLOBAL__N_121VhloBytecodeInterface14writeAttributeENS_9AttributeERNS_21DialectBytecodeWriterEENK3$_0clINS0_15TransposeV1AttrEEEDaT_
FN:595,_ZZNK4mlir4vhlo12_GLOBAL__N_121VhloBytecodeInterface14writeAttributeENS_9AttributeERNS_21DialectBytecodeWriterEENK3$_0clINS0_20TypeExtensionsV1AttrEEEDaT_
FNDA:32,_ZZNK4mlir4vhlo12_GLOBAL__N_121VhloBytecodeInterface14writeAttributeENS_9AttributeERNS_21DialectBytecodeWriterEENK3$_0clINS0_20TypeExtensionsV1AttrEEEDaT_
FN:602,_ZZNK4mlir4vhlo12_GLOBAL__N_121VhloBytecodeInterface14writeAttributeENS_9AttributeERNS_21DialectBytecodeWriterEENK3$_1clINS0_11ArrayV1AttrEEEDaT_
FNDA:288,_ZZNK4mlir4vhlo12_GLOBAL__N_121VhloBytecodeInterface14writeAttributeENS_9AttributeERNS_21DialectBytecodeWriterEENK3$_1clINS0_11ArrayV1AttrEEEDaT_
FN:602,_ZZNK4mlir4vhlo12_GLOBAL__N_121VhloBytecodeInterface14writeAttributeENS_9AttributeERNS_21DialectBytecodeWriterEENK3$_1clINS0_26DenseIntOrFPElementsV1AttrEEEDaT_
FNDA:640,_ZZNK4mlir4vhlo12_GLOBAL__N_121VhloBytecodeInterface14writeAttributeENS_9AttributeERNS_21DialectBytecodeWriterEENK3$_1clINS0_26DenseIntOrFPElementsV1AttrEEEDaT_
FN:602,_ZZNK4mlir4vhlo12_GLOBAL__N_121VhloBytecodeInterface14writeAttributeENS_9AttributeERNS_21DialectBytecodeWriterEENK3$_1clINS0_16DictionaryV1AttrEEEDaT_
FNDA:32,_ZZNK4mlir4vhlo12_GLOBAL__N_121VhloBytecodeInterface14writeAttributeENS_9AttributeERNS_21DialectBytecodeWriterEENK3$_1clINS0_16DictionaryV1AttrEEEDaT_
FN:602,_ZZNK4mlir4vhlo12_GLOBAL__N_121VhloBytecodeInterface14writeAttributeENS_9AttributeERNS_21DialectBytecodeWriterEENK3$_1clINS0_19FlatSymbolRefV1AttrEEEDaT_
FNDA:64,_ZZNK4mlir4vhlo12_GLOBAL__N_121VhloBytecodeInterface14writeAttributeENS_9AttributeERNS_21DialectBytecodeWriterEENK3$_1clINS0_19FlatSymbolRefV1AttrEEEDaT_
FN:602,_ZZNK4mlir4vhlo12_GLOBAL__N_121VhloBytecodeInterface14writeAttributeENS_9AttributeERNS_21DialectBytecodeWriterEENK3$_1clINS0_11FloatV1AttrEEEDaT_
FNDA:32,_ZZNK4mlir4vhlo12_GLOBAL__N_121VhloBytecodeInterface14writeAttributeENS_9AttributeERNS_21DialectBytecodeWriterEENK3$_1clINS0_11FloatV1AttrEEEDaT_
FN:602,_ZZNK4mlir4vhlo12_GLOBAL__N_121VhloBytecodeInterface14writeAttributeENS_9AttributeERNS_21DialectBytecodeWriterEENK3$_1clINS0_13IntegerV1AttrEEEDaT_
FNDA:256,_ZZNK4mlir4vhlo12_GLOBAL__N_121VhloBytecodeInterface14writeAttributeENS_9AttributeERNS_21DialectBytecodeWriterEENK3$_1clINS0_13IntegerV1AttrEEEDaT_
FN:602,_ZZNK4mlir4vhlo12_GLOBAL__N_121VhloBytecodeInterface14writeAttributeENS_9AttributeERNS_21DialectBytecodeWriterEENK3$_1clINS0_12StringV1AttrEEEDaT_
FNDA:5696,_ZZNK4mlir4vhlo12_GLOBAL__N_121VhloBytecodeInterface14writeAttributeENS_9AttributeERNS_21DialectBytecodeWriterEENK3$_1clINS0_12StringV1AttrEEEDaT_
FN:602,_ZZNK4mlir4vhlo12_GLOBAL__N_121VhloBytecodeInterface14writeAttributeENS_9AttributeERNS_21DialectBytecodeWriterEENK3$_1clINS0_10TypeV1AttrEEEDaT_
FNDA:2880,_ZZNK4mlir4vhlo12_GLOBAL__N_121VhloBytecodeInterface14writeAttributeENS_9AttributeERNS_21DialectBytecodeWriterEENK3$_1clINS0_10TypeV1AttrEEEDaT_
FN:607,_ZZNK4mlir4vhlo12_GLOBAL__N_121VhloBytecodeInterface14writeAttributeENS_9AttributeERNS_21DialectBytecodeWriterEENK3$_2clENS0_10UnitV1AttrE
FNDA:32,_ZZNK4mlir4vhlo12_GLOBAL__N_121VhloBytecodeInterface14writeAttributeENS_9AttributeERNS_21DialectBytecodeWriterEENK3$_2clENS0_10UnitV1AttrE
FN:611,_ZZNK4mlir4vhlo12_GLOBAL__N_121VhloBytecodeInterface14writeAttributeENS_9AttributeERNS_21DialectBytecodeWriterEENK3$_3clES3_
FNDA:0,_ZZNK4mlir4vhlo12_GLOBAL__N_121VhloBytecodeInterface14writeAttributeENS_9AttributeERNS_21DialectBytecodeWriterEENK3$_3clES3_
FN:620,_ZNK4mlir4vhlo12_GLOBAL__N_121VhloBytecodeInterface24readArgResultAliasV1AttrERNS_21DialectBytecodeReaderE
FNDA:0,_ZNK4mlir4vhlo12_GLOBAL__N_121VhloBytecodeInterface24readArgResultAliasV1AttrERNS_21DialectBytecodeReaderE
FN:639,_ZNK4mlir4vhlo12_GLOBAL__N_121VhloBytecodeInterface5writeENS0_20ArgResultAliasV1AttrERNS_21DialectBytecodeWriterE
FNDA:0,_ZNK4mlir4vhlo12_GLOBAL__N_121VhloBytecodeInterface5writeENS0_20ArgResultAliasV1AttrERNS_21DialectBytecodeWriterE
FN:651,_ZNK4mlir4vhlo12_GLOBAL__N_121VhloBytecodeInterface23readChannelHandleV1AttrERNS_21DialectBytecodeReaderE
FNDA:16,_ZNK4mlir4vhlo12_GLOBAL__N_121VhloBytecodeInterface23readChannelHandleV1AttrERNS_21DialectBytecodeReaderE
FN:661,_ZNK4mlir4vhlo12_GLOBAL__N_121VhloBytecodeInterface5writeENS0_19ChannelHandleV1AttrERNS_21DialectBytecodeWriterE
FNDA:64,_ZNK4mlir4vhlo12_GLOBAL__N_121VhloBytecodeInterface5writeENS0_19ChannelHandleV1AttrERNS_21DialectBytecodeWriterE
FN:671,_ZNK4mlir4vhlo12_GLOBAL__N_121VhloBytecodeInterface29readComparisonDirectionV1AttrERNS_21DialectBytecodeReaderE
FNDA:48,_ZNK4mlir4vhlo12_GLOBAL__N_121VhloBytecodeInterface29readComparisonDirectionV1AttrERNS_21DialectBytecodeReaderE
FN:676,_ZZNK4mlir4vhlo12_GLOBAL__N_121VhloBytecodeInterface29readComparisonDirectionV1AttrERNS_21DialectBytecodeReaderEENK3$_4clEj
FNDA:48,_ZZNK4mlir4vhlo12_GLOBAL__N_121VhloBytecodeInterface29readComparisonDirectionV1AttrERNS_21DialectBytecodeReaderEENK3$_4clEj
FN:679,_ZNK4mlir4vhlo12_GLOBAL__N_121VhloBytecodeInterface5writeENS0_25ComparisonDirectionV1AttrERNS_21DialectBytecodeWriterE
FNDA:192,_ZNK4mlir4vhlo12_GLOBAL__N_121VhloBytecodeInterface5writeENS0_25ComparisonDirectionV1AttrERNS_21DialectBytecodeWriterE
FN:688,_ZNK4mlir4vhlo12_GLOBAL__N_121VhloBytecodeInterface24readComparisonTypeV1AttrERNS_21DialectBytecodeReaderE
FNDA:40,_ZNK4mlir4vhlo12_GLOBAL__N_121VhloBytecodeInterface24readComparisonTypeV1AttrERNS_21DialectBytecodeReaderE
FN:693,_ZZNK4mlir4vhlo12_GLOBAL__N_121VhloBytecodeInterface24readComparisonTypeV1AttrERNS_21DialectBytecodeReaderEENK3$_5clEj
FNDA:40,_ZZNK4mlir4vhlo12_GLOBAL__N_121VhloBytecodeInterface24readComparisonTypeV1AttrERNS_21DialectBytecodeReaderEENK3$_5clEj
FN:696,_ZNK4mlir4vhlo12_GLOBAL__N_121VhloBytecodeInterface5writeENS0_20ComparisonTypeV1AttrERNS_21DialectBytecodeWriterE
FNDA:160,_ZNK4mlir4vhlo12_GLOBAL__N_121VhloBytecodeInterface5writeENS0_20ComparisonTypeV1AttrERNS_21DialectBytecodeWriterE
FN:706,_ZNK4mlir4vhlo12_GLOBAL__N_121VhloBytecodeInterface30readConvDimensionNumbersV1AttrERNS_21DialectBytecodeReaderE
FNDA:8,_ZNK4mlir4vhlo12_GLOBAL__N_121VhloBytecodeInterface30readConvDimensionNumbersV1AttrERNS_21DialectBytecodeReaderE
FN:736,_ZNK4mlir4vhlo12_GLOBAL__N_121VhloBytecodeInterface5writeENS0_26ConvDimensionNumbersV1AttrERNS_21DialectBytecodeWriterE
FNDA:32,_ZNK4mlir4vhlo12_GLOBAL__N_121VhloBytecodeInterface5writeENS0_26ConvDimensionNumbersV1AttrERNS_21DialectBytecodeWriterE
FN:754,_ZNK4mlir4vhlo12_GLOBAL__N_121VhloBytecodeInterface30readCustomCallApiVersionV1AttrERNS_21DialectBytecodeReaderE
FNDA:32,_ZNK4mlir4vhlo12_GLOBAL__N_121VhloBytecodeInterface30readCustomCallApiVersionV1AttrERNS_21DialectBytecodeReaderE
FN:759,_ZZNK4mlir4vhlo12_GLOBAL__N_121VhloBytecodeInterface30readCustomCallApiVersionV1AttrERNS_21DialectBytecodeReaderEENK3$_6clEj
FNDA:32,_ZZNK4mlir4vhlo12_GLOBAL__N_121VhloBytecodeInterface30readCustomCallApiVersionV1AttrERNS_21DialectBytecodeReaderEENK3$_6clEj
FN:762,_ZNK4mlir4vhlo12_GLOBAL__N_121VhloBytecodeInterface5writeENS0_26CustomCallApiVersionV1AttrERNS_21DialectBytecodeWriterE
FNDA:128,_ZNK4mlir4vhlo12_GLOBAL__N_121VhloBytecodeInterface5writeENS0_26CustomCallApiVersionV1AttrERNS_21DialectBytecodeWriterE
FN:771,_ZNK4mlir4vhlo12_GLOBAL__N_121VhloBytecodeInterface29readDotDimensionNumbersV1AttrERNS_21DialectBytecodeReaderE
FNDA:8,_ZNK4mlir4vhlo12_GLOBAL__N_121VhloBytecodeInterface29readDotDimensionNumbersV1AttrERNS_21DialectBytecodeReaderE
FN:788,_ZNK4mlir4vhlo12_GLOBAL__N_121VhloBytecodeInterface5writeENS0_25DotDimensionNumbersV1AttrERNS_21DialectBytecodeWriterE
FNDA:32,_ZNK4mlir4vhlo12_GLOBAL__N_121VhloBytecodeInterface5writeENS0_25DotDimensionNumbersV1AttrERNS_21DialectBytecodeWriterE
FN:800,_ZNK4mlir4vhlo12_GLOBAL__N_121VhloBytecodeInterface17readFftTypeV1AttrERNS_21DialectBytecodeReaderE
FNDA:32,_ZNK4mlir4vhlo12_GLOBAL__N_121VhloBytecodeInterface17readFftTypeV1AttrERNS_21DialectBytecodeReaderE
FN:805,_ZZNK4mlir4vhlo12_GLOBAL__N_121VhloBytecodeInterface17readFftTypeV1AttrERNS_21DialectBytecodeReaderEENK3$_7clEj
FNDA:32,_ZZNK4mlir4vhlo12_GLOBAL__N_121VhloBytecodeInterface17readFftTypeV1AttrERNS_21DialectBytecodeReaderEENK3$_7clEj
FN:807,_ZNK4mlir4vhlo12_GLOBAL__N_121VhloBytecodeInterface5writeENS0_13FftTypeV1AttrERNS_21DialectBytecodeWriterE
FNDA:128,_ZNK4mlir4vhlo12_GLOBAL__N_121VhloBytecodeInterface5writeENS0_13FftTypeV1AttrERNS_21DialectBytecodeWriterE
FN:817,_ZNK4mlir4vhlo12_GLOBAL__N_121VhloBytecodeInterface32readGatherDimensionNumbersV1AttrERNS_21DialectBytecodeReaderE
FNDA:8,_ZNK4mlir4vhlo12_GLOBAL__N_121VhloBytecodeInterface32readGatherDimensionNumbersV1AttrERNS_21DialectBytecodeReaderE
FN:834,_ZNK4mlir4vhlo12_GLOBAL__N_121VhloBytecodeInterface5writeENS0_28GatherDimensionNumbersV1AttrERNS_21DialectBytecodeWriterE
FNDA:32,_ZNK4mlir4vhlo12_GLOBAL__N_121VhloBytecodeInterface5writeENS0_28GatherDimensionNumbersV1AttrERNS_21DialectBytecodeWriterE
FN:846,_ZNK4mlir4vhlo12_GLOBAL__N_121VhloBytecodeInterface28readOutputOperandAliasV1AttrERNS_21DialectBytecodeReaderE
FNDA:8,_ZNK4mlir4vhlo12_GLOBAL__N_121VhloBytecodeInterface28readOutputOperandAliasV1AttrERNS_21DialectBytecodeReaderE
FN:861,_ZNK4mlir4vhlo12_GLOBAL__N_121VhloBytecodeInterface5writeENS0_24OutputOperandAliasV1AttrERNS_21DialectBytecodeWriterE
FNDA:32,_ZNK4mlir4vhlo12_GLOBAL__N_121VhloBytecodeInterface5writeENS0_24OutputOperandAliasV1AttrERNS_21DialectBytecodeWriterE
FN:872,_ZNK4mlir4vhlo12_GLOBAL__N_121VhloBytecodeInterface19readPrecisionV1AttrERNS_21DialectBytecodeReaderE
FNDA:24,_ZNK4mlir4vhlo12_GLOBAL__N_121VhloBytecodeInterface19readPrecisionV1AttrERNS_21DialectBytecodeReaderE
FN:877,_ZZNK4mlir4vhlo12_GLOBAL__N_121VhloBytecodeInterface19readPrecisionV1AttrERNS_21DialectBytecodeReaderEENK3$_8clEj
FNDA:24,_ZZNK4mlir4vhlo12_GLOBAL__N_121VhloBytecodeInterface19readPrecisionV1AttrERNS_21DialectBytecodeReaderEENK3$_8clEj
FN:880,_ZNK4mlir4vhlo12_GLOBAL__N_121VhloBytecodeInterface5writeENS0_15PrecisionV1AttrERNS_21DialectBytecodeWriterE
FNDA:96,_ZNK4mlir4vhlo12_GLOBAL__N_121VhloBytecodeInterface5writeENS0_15PrecisionV1AttrERNS_21DialectBytecodeWriterE
FN:889,_ZNK4mlir4vhlo12_GLOBAL__N_121VhloBytecodeInterface22readRngAlgorithmV1AttrERNS_21DialectBytecodeReaderE
FNDA:24,_ZNK4mlir4vhlo12_GLOBAL__N_121VhloBytecodeInterface22readRngAlgorithmV1AttrERNS_21DialectBytecodeReaderE
FN:894,_ZZNK4mlir4vhlo12_GLOBAL__N_121VhloBytecodeInterface22readRngAlgorithmV1AttrERNS_21DialectBytecodeReaderEENK3$_9clEj
FNDA:24,_ZZNK4mlir4vhlo12_GLOBAL__N_121VhloBytecodeInterface22readRngAlgorithmV1AttrERNS_21DialectBytecodeReaderEENK3$_9clEj
FN:897,_ZNK4mlir4vhlo12_GLOBAL__N_121VhloBytecodeInterface5writeENS0_18RngAlgorithmV1AttrERNS_21DialectBytecodeWriterE
FNDA:96,_ZNK4mlir4vhlo12_GLOBAL__N_121VhloBytecodeInterface5writeENS0_18RngAlgorithmV1AttrERNS_21DialectBytecodeWriterE
FN:906,_ZNK4mlir4vhlo12_GLOBAL__N_121VhloBytecodeInterface25readRngDistributionV1AttrERNS_21DialectBytecodeReaderE
FNDA:16,_ZNK4mlir4vhlo12_GLOBAL__N_121VhloBytecodeInterface25readRngDistributionV1AttrERNS_21DialectBytecodeReaderE
FN:911,_ZZNK4mlir4vhlo12_GLOBAL__N_121VhloBytecodeInterface25readRngDistributionV1AttrERNS_21DialectBytecodeReaderEENK4$_10clEj
FNDA:16,_ZZNK4mlir4vhlo12_GLOBAL__N_121VhloBytecodeInterface25readRngDistributionV1AttrERNS_21DialectBytecodeReaderEENK4$_10clEj
FN:914,_ZNK4mlir4vhlo12_GLOBAL__N_121VhloBytecodeInterface5writeENS0_21RngDistributionV1AttrERNS_21DialectBytecodeWriterE
FNDA:64,_ZNK4mlir4vhlo12_GLOBAL__N_121VhloBytecodeInterface5writeENS0_21RngDistributionV1AttrERNS_21DialectBytecodeWriterE
FN:924,_ZNK4mlir4vhlo12_GLOBAL__N_121VhloBytecodeInterface33readScatterDimensionNumbersV1AttrERNS_21DialectBytecodeReaderE
FNDA:8,_ZNK4mlir4vhlo12_GLOBAL__N_121VhloBytecodeInterface33readScatterDimensionNumbersV1AttrERNS_21DialectBytecodeReaderE
FN:942,_ZNK4mlir4vhlo12_GLOBAL__N_121VhloBytecodeInterface5writeENS0_29ScatterDimensionNumbersV1AttrERNS_21DialectBytecodeWriterE
FNDA:32,_ZNK4mlir4vhlo12_GLOBAL__N_121VhloBytecodeInterface5writeENS0_29ScatterDimensionNumbersV1AttrERNS_21DialectBytecodeWriterE
FN:954,_ZNK4mlir4vhlo12_GLOBAL__N_121VhloBytecodeInterface19readTransposeV1AttrERNS_21DialectBytecodeReaderE
FNDA:24,_ZNK4mlir4vhlo12_GLOBAL__N_121VhloBytecodeInterface19readTransposeV1AttrERNS_21DialectBytecodeReaderE
FN:959,_ZZNK4mlir4vhlo12_GLOBAL__N_121VhloBytecodeInterface19readTransposeV1AttrERNS_21DialectBytecodeReaderEENK4$_11clEj
FNDA:24,_ZZNK4mlir4vhlo12_GLOBAL__N_121VhloBytecodeInterface19readTransposeV1AttrERNS_21DialectBytecodeReaderEENK4$_11clEj
FN:962,_ZNK4mlir4vhlo12_GLOBAL__N_121VhloBytecodeInterface5writeENS0_15TransposeV1AttrERNS_21DialectBytecodeWriterE
FNDA:96,_ZNK4mlir4vhlo12_GLOBAL__N_121VhloBytecodeInterface5writeENS0_15TransposeV1AttrERNS_21DialectBytecodeWriterE
FN:971,_ZNK4mlir4vhlo12_GLOBAL__N_121VhloBytecodeInterface24readTypeExtensionsV1AttrERNS_21DialectBytecodeReaderE
FNDA:8,_ZNK4mlir4vhlo12_GLOBAL__N_121VhloBytecodeInterface24readTypeExtensionsV1AttrERNS_21DialectBytecodeReaderE
FN:979,_ZNK4mlir4vhlo12_GLOBAL__N_121VhloBytecodeInterface5writeENS0_20TypeExtensionsV1AttrERNS_21DialectBytecodeWriterE
FNDA:32,_ZNK4mlir4vhlo12_GLOBAL__N_121VhloBytecodeInterface5writeENS0_20TypeExtensionsV1AttrERNS_21DialectBytecodeWriterE
FN:992,_ZNK4mlir4vhlo12_GLOBAL__N_121VhloBytecodeInterface15readArrayV1AttrERNS_21DialectBytecodeReaderE
FNDA:72,_ZNK4mlir4vhlo12_GLOBAL__N_121VhloBytecodeInterface15readArrayV1AttrERNS_21DialectBytecodeReaderE
FN:1000,_ZNK4mlir4vhlo12_GLOBAL__N_121VhloBytecodeInterface5writeENS0_11ArrayV1AttrERNS_21DialectBytecodeWriterE
FNDA:288,_ZNK4mlir4vhlo12_GLOBAL__N_121VhloBytecodeInterface5writeENS0_11ArrayV1AttrERNS_21DialectBytecodeWriterE
FN:1010,_ZNK4mlir4vhlo12_GLOBAL__N_121VhloBytecodeInterface30readDenseIntOrFPElementsV1AttrERNS_21DialectBytecodeReaderE
FNDA:160,_ZNK4mlir4vhlo12_GLOBAL__N_121VhloBytecodeInterface30readDenseIntOrFPElementsV1AttrERNS_21DialectBytecodeReaderE
FN:1020,_ZNK4mlir4vhlo12_GLOBAL__N_121VhloBytecodeInterface5writeENS0_26DenseIntOrFPElementsV1AttrERNS_21DialectBytecodeWriterE
FNDA:640,_ZNK4mlir4vhlo12_GLOBAL__N_121VhloBytecodeInterface5writeENS0_26DenseIntOrFPElementsV1AttrERNS_21DialectBytecodeWriterE
FN:1030,_ZNK4mlir4vhlo12_GLOBAL__N_121VhloBytecodeInterface20readDictionaryV1AttrERNS_21DialectBytecodeReaderE
FNDA:8,_ZNK4mlir4vhlo12_GLOBAL__N_121VhloBytecodeInterface20readDictionaryV1AttrERNS_21DialectBytecodeReaderE
FN:1033,_ZZNK4mlir4vhlo12_GLOBAL__N_121VhloBytecodeInterface20readDictionaryV1AttrERNS_21DialectBytecodeReaderEENK4$_12clEv
FNDA:8,_ZZNK4mlir4vhlo12_GLOBAL__N_121VhloBytecodeInterface20readDictionaryV1AttrERNS_21DialectBytecodeReaderEENK4$_12clEv
FN:1047,_ZNK4mlir4vhlo12_GLOBAL__N_121VhloBytecodeInterface5writeENS0_16DictionaryV1AttrERNS_21DialectBytecodeWriterE
FNDA:32,_ZNK4mlir4vhlo12_GLOBAL__N_121VhloBytecodeInterface5writeENS0_16DictionaryV1AttrERNS_21DialectBytecodeWriterE
FN:1050,_ZZNK4mlir4vhlo12_GLOBAL__N_121VhloBytecodeInterface5writeENS0_16DictionaryV1AttrERNS_21DialectBytecodeWriterEENK4$_13clISt4pairINS_9AttributeES9_EEEDaT_
FNDA:32,_ZZNK4mlir4vhlo12_GLOBAL__N_121VhloBytecodeInterface5writeENS0_16DictionaryV1AttrERNS_21DialectBytecodeWriterEENK4$_13clISt4pairINS_9AttributeES9_EEEDaT_
FN:1061,_ZN4mlir4vhlo12_GLOBAL__N_112_GLOBAL__N_117getFloatSemanticsENS_4TypeE
FNDA:8,_ZN4mlir4vhlo12_GLOBAL__N_112_GLOBAL__N_117getFloatSemanticsENS_4TypeE
FN:1072,_ZNK4mlir4vhlo12_GLOBAL__N_121VhloBytecodeInterface15readFloatV1AttrERNS_21DialectBytecodeReaderE
FNDA:8,_ZNK4mlir4vhlo12_GLOBAL__N_121VhloBytecodeInterface15readFloatV1AttrERNS_21DialectBytecodeReaderE
FN:1085,_ZNK4mlir4vhlo12_GLOBAL__N_121VhloBytecodeInterface5writeENS0_11FloatV1AttrERNS_21DialectBytecodeWriterE
FNDA:32,_ZNK4mlir4vhlo12_GLOBAL__N_121VhloBytecodeInterface5writeENS0_11FloatV1AttrERNS_21DialectBytecodeWriterE
FN:1095,_ZNK4mlir4vhlo12_GLOBAL__N_121VhloBytecodeInterface23readFlatSymbolRefV1AttrERNS_21DialectBytecodeReaderE
FNDA:16,_ZNK4mlir4vhlo12_GLOBAL__N_121VhloBytecodeInterface23readFlatSymbolRefV1AttrERNS_21DialectBytecodeReaderE
FN:1103,_ZNK4mlir4vhlo12_GLOBAL__N_121VhloBytecodeInterface5writeENS0_19FlatSymbolRefV1AttrERNS_21DialectBytecodeWriterE
FNDA:64,_ZNK4mlir4vhlo12_GLOBAL__N_121VhloBytecodeInterface5writeENS0_19FlatSymbolRefV1AttrERNS_21DialectBytecodeWriterE
FN:1113,_ZN4mlir4vhlo12_GLOBAL__N_112_GLOBAL__N_125getBitWidthForIntegerTypeENS_4TypeE
FNDA:64,_ZN4mlir4vhlo12_GLOBAL__N_112_GLOBAL__N_125getBitWidthForIntegerTypeENS_4TypeE
FN:1124,_ZNK4mlir4vhlo12_GLOBAL__N_121VhloBytecodeInterface17readIntegerV1AttrERNS_21DialectBytecodeReaderE
FNDA:64,_ZNK4mlir4vhlo12_GLOBAL__N_121VhloBytecodeInterface17readIntegerV1AttrERNS_21DialectBytecodeReaderE
FN:1143,_ZNK4mlir4vhlo12_GLOBAL__N_121VhloBytecodeInterface5writeENS0_13IntegerV1AttrERNS_21DialectBytecodeWriterE
FNDA:256,_ZNK4mlir4vhlo12_GLOBAL__N_121VhloBytecodeInterface5writeENS0_13IntegerV1AttrERNS_21DialectBytecodeWriterE
FN:1153,_ZNK4mlir4vhlo12_GLOBAL__N_121VhloBytecodeInterface16readStringV1AttrERNS_21DialectBytecodeReaderE
FNDA:1424,_ZNK4mlir4vhlo12_GLOBAL__N_121VhloBytecodeInterface16readStringV1AttrERNS_21DialectBytecodeReaderE
FN:1161,_ZNK4mlir4vhlo12_GLOBAL__N_121VhloBytecodeInterface5writeENS0_12StringV1AttrERNS_21DialectBytecodeWriterE
FNDA:5696,_ZNK4mlir4vhlo12_GLOBAL__N_121VhloBytecodeInterface5writeENS0_12StringV1AttrERNS_21DialectBytecodeWriterE
FN:1170,_ZNK4mlir4vhlo12_GLOBAL__N_121VhloBytecodeInterface14readTypeV1AttrERNS_21DialectBytecodeReaderE
FNDA:720,_ZNK4mlir4vhlo12_GLOBAL__N_121VhloBytecodeInterface14readTypeV1AttrERNS_21DialectBytecodeReaderE
FN:1179,_ZNK4mlir4vhlo12_GLOBAL__N_121VhloBytecodeInterface5writeENS0_10TypeV1AttrERNS_21DialectBytecodeWriterE
FNDA:2880,_ZNK4mlir4vhlo12_GLOBAL__N_121VhloBytecodeInterface5writeENS0_10TypeV1AttrERNS_21DialectBytecodeWriterE
FN:1190,_ZNK4mlir4vhlo12_GLOBAL__N_121VhloBytecodeInterface8readTypeERNS_21DialectBytecodeReaderE
FNDA:1536,_ZNK4mlir4vhlo12_GLOBAL__N_121VhloBytecodeInterface8readTypeERNS_21DialectBytecodeReaderE
FN:1257,_ZNK4mlir4vhlo12_GLOBAL__N_121VhloBytecodeInterface9writeTypeENS_4TypeERNS_21DialectBytecodeWriterE
FNDA:6144,_ZNK4mlir4vhlo12_GLOBAL__N_121VhloBytecodeInterface9writeTypeENS_4TypeERNS_21DialectBytecodeWriterE
FN:1260,_ZZNK4mlir4vhlo12_GLOBAL__N_121VhloBytecodeInterface9writeTypeENS_4TypeERNS_21DialectBytecodeWriterEENK4$_14clINS0_11TokenV1TypeEEEDaT_
FNDA:32,_ZZNK4mlir4vhlo12_GLOBAL__N_121VhloBytecodeInterface9writeTypeENS_4TypeERNS_21DialectBytecodeWriterEENK4$_14clINS0_11TokenV1TypeEEEDaT_
FN:1266,_ZZNK4mlir4vhlo12_GLOBAL__N_121VhloBytecodeInterface9writeTypeENS_4TypeERNS_21DialectBytecodeWriterEENK4$_15clINS0_13ComplexV1TypeEEEDaT_
FNDA:64,_ZZNK4mlir4vhlo12_GLOBAL__N_121VhloBytecodeInterface9writeTypeENS_4TypeERNS_21DialectBytecodeWriterEENK4$_15clINS0_13ComplexV1TypeEEEDaT_
FN:1266,_ZZNK4mlir4vhlo12_GLOBAL__N_121VhloBytecodeInterface9writeTypeENS_4TypeERNS_21DialectBytecodeWriterEENK4$_15clINS0_14FunctionV1TypeEEEDaT_
FNDA:2880,_ZZNK4mlir4vhlo12_GLOBAL__N_121VhloBytecodeInterface9writeTypeENS_4TypeERNS_21DialectBytecodeWriterEENK4$_15clINS0_14FunctionV1TypeEEEDaT_
FN:1266,_ZZNK4mlir4vhlo12_GLOBAL__N_121VhloBytecodeInterface9writeTypeENS_4TypeERNS_21DialectBytecodeWriterEENK4$_15clINS0_18RankedTensorV1TypeEEEDaT_
FNDA:2400,_ZZNK4mlir4vhlo12_GLOBAL__N_121VhloBytecodeInterface9writeTypeENS_4TypeERNS_21DialectBytecodeWriterEENK4$_15clINS0_18RankedTensorV1TypeEEEDaT_
FN:1266,_ZZNK4mlir4vhlo12_GLOBAL__N_121VhloBytecodeInterface9writeTypeENS_4TypeERNS_21DialectBytecodeWriterEENK4$_15clINS0_11TupleV1TypeEEEDaT_
FNDA:96,_ZZNK4mlir4vhlo12_GLOBAL__N_121VhloBytecodeInterface9writeTypeENS_4TypeERNS_21DialectBytecodeWriterEENK4$_15clINS0_11TupleV1TypeEEEDaT_
FN:1266,_ZZNK4mlir4vhlo12_GLOBAL__N_121VhloBytecodeInterface9writeTypeENS_4TypeERNS_21DialectBytecodeWriterEENK4$_15clINS0_20UnrankedTensorV1TypeEEEDaT_
FNDA:32,_ZZNK4mlir4vhlo12_GLOBAL__N_121VhloBytecodeInterface9writeTypeENS_4TypeERNS_21DialectBytecodeWriterEENK4$_15clINS0_20UnrankedTensorV1TypeEEEDaT_
FN:1266,_ZZNK4mlir4vhlo12_GLOBAL__N_121VhloBytecodeInterface9writeTypeENS_4TypeERNS_21DialectBytecodeWriterEENK4$_15clINS0_22UniformQuantizedV1TypeEEEDaT_
FNDA:32,_ZZNK4mlir4vhlo12_GLOBAL__N_121VhloBytecodeInterface9writeTypeENS_4TypeERNS_21DialectBytecodeWriterEENK4$_15clINS0_22UniformQuantizedV1TypeEEEDaT_
FN:1270,_ZZNK4mlir4vhlo12_GLOBAL__N_121VhloBytecodeInterface9writeTypeENS_4TypeERNS_21DialectBytecodeWriterEENK4$_16clENS0_14BFloat16V1TypeE
FNDA:32,_ZZNK4mlir4vhlo12_GLOBAL__N_121VhloBytecodeInterface9writeTypeENS_4TypeERNS_21DialectBytecodeWriterEENK4$_16clENS0_14BFloat16V1TypeE
FN:1274,_ZZNK4mlir4vhlo12_GLOBAL__N_121VhloBytecodeInterface9writeTypeENS_4TypeERNS_21DialectBytecodeWriterEENK4$_17clENS0_13Float16V1TypeE
FNDA:32,_ZZNK4mlir4vhlo12_GLOBAL__N_121VhloBytecodeInterface9writeTypeENS_4TypeERNS_21DialectBytecodeWriterEENK4$_17clENS0_13Float16V1TypeE
FN:1278,_ZZNK4mlir4vhlo12_GLOBAL__N_121VhloBytecodeInterface9writeTypeENS_4TypeERNS_21DialectBytecodeWriterEENK4$_18clENS0_13Float32V1TypeE
FNDA:32,_ZZNK4mlir4vhlo12_GLOBAL__N_121VhloBytecodeInterface9writeTypeENS_4TypeERNS_21DialectBytecodeWriterEENK4$_18clENS0_13Float32V1TypeE
FN:1282,_ZZNK4mlir4vhlo12_GLOBAL__N_121VhloBytecodeInterface9writeTypeENS_4TypeERNS_21DialectBytecodeWriterEENK4$_19clENS0_13Float64V1TypeE
FNDA:32,_ZZNK4mlir4vhlo12_GLOBAL__N_121VhloBytecodeInterface9writeTypeENS_4TypeERNS_21DialectBytecodeWriterEENK4$_19clENS0_13Float64V1TypeE
FN:1286,_ZZNK4mlir4vhlo12_GLOBAL__N_121VhloBytecodeInterface9writeTypeENS_4TypeERNS_21DialectBytecodeWriterEENK4$_20clENS0_18Float8E4M3FNV1TypeE
FNDA:32,_ZZNK4mlir4vhlo12_GLOBAL__N_121VhloBytecodeInterface9writeTypeENS_4TypeERNS_21DialectBytecodeWriterEENK4$_20clENS0_18Float8E4M3FNV1TypeE
FN:1290,_ZZNK4mlir4vhlo12_GLOBAL__N_121VhloBytecodeInterface9writeTypeENS_4TypeERNS_21DialectBytecodeWriterEENK4$_21clENS0_16Float8E5M2V1TypeE
FNDA:32,_ZZNK4mlir4vhlo12_GLOBAL__N_121VhloBytecodeInterface9writeTypeENS_4TypeERNS_21DialectBytecodeWriterEENK4$_21clENS0_16Float8E5M2V1TypeE
FN:1294,_ZZNK4mlir4vhlo12_GLOBAL__N_121VhloBytecodeInterface9writeTypeENS_4TypeERNS_21DialectBytecodeWriterEENK4$_22clENS0_11IndexV1TypeE
FNDA:32,_ZZNK4mlir4vhlo12_GLOBAL__N_121VhloBytecodeInterface9writeTypeENS_4TypeERNS_21DialectBytecodeWriterEENK4$_22clENS0_11IndexV1TypeE
FN:1298,_ZZNK4mlir4vhlo12_GLOBAL__N_121VhloBytecodeInterface9writeTypeENS_4TypeERNS_21DialectBytecodeWriterEENK4$_23clENS0_15IntegerI1V1TypeE
FNDA:32,_ZZNK4mlir4vhlo12_GLOBAL__N_121VhloBytecodeInterface9writeTypeENS_4TypeERNS_21DialectBytecodeWriterEENK4$_23clENS0_15IntegerI1V1TypeE
FN:1302,_ZZNK4mlir4vhlo12_GLOBAL__N_121VhloBytecodeInterface9writeTypeENS_4TypeERNS_21DialectBytecodeWriterEENK4$_24clENS0_15IntegerI4V1TypeE
FNDA:32,_ZZNK4mlir4vhlo12_GLOBAL__N_121VhloBytecodeInterface9writeTypeENS_4TypeERNS_21DialectBytecodeWriterEENK4$_24clENS0_15IntegerI4V1TypeE
FN:1306,_ZZNK4mlir4vhlo12_GLOBAL__N_121VhloBytecodeInterface9writeTypeENS_4TypeERNS_21DialectBytecodeWriterEENK4$_25clENS0_15IntegerI8V1TypeE
FNDA:32,_ZZNK4mlir4vhlo12_GLOBAL__N_121VhloBytecodeInterface9writeTypeENS_4TypeERNS_21DialectBytecodeWriterEENK4$_25clENS0_15IntegerI8V1TypeE
FN:1310,_ZZNK4mlir4vhlo12_GLOBAL__N_121VhloBytecodeInterface9writeTypeENS_4TypeERNS_21DialectBytecodeWriterEENK4$_26clENS0_16IntegerI16V1TypeE
FNDA:32,_ZZNK4mlir4vhlo12_GLOBAL__N_121VhloBytecodeInterface9writeTypeENS_4TypeERNS_21DialectBytecodeWriterEENK4$_26clENS0_16IntegerI16V1TypeE
FN:1314,_ZZNK4mlir4vhlo12_GLOBAL__N_121VhloBytecodeInterface9writeTypeENS_4TypeERNS_21DialectBytecodeWriterEENK4$_27clENS0_16IntegerI32V1TypeE
FNDA:32,_ZZNK4mlir4vhlo12_GLOBAL__N_121VhloBytecodeInterface9writeTypeENS_4TypeERNS_21DialectBytecodeWriterEENK4$_27clENS0_16IntegerI32V1TypeE
FN:1318,_ZZNK4mlir4vhlo12_GLOBAL__N_121VhloBytecodeInterface9writeTypeENS_4TypeERNS_21DialectBytecodeWriterEENK4$_28clENS0_16IntegerI64V1TypeE
FNDA:32,_ZZNK4mlir4vhlo12_GLOBAL__N_121VhloBytecodeInterface9writeTypeENS_4TypeERNS_21DialectBytecodeWriterEENK4$_28clENS0_16IntegerI64V1TypeE
FN:1322,_ZZNK4mlir4vhlo12_GLOBAL__N_121VhloBytecodeInterface9writeTypeENS_4TypeERNS_21DialectBytecodeWriterEENK4$_29clENS0_16IntegerUI4V1TypeE
FNDA:32,_ZZNK4mlir4vhlo12_GLOBAL__N_121VhloBytecodeInterface9writeTypeENS_4TypeERNS_21DialectBytecodeWriterEENK4$_29clENS0_16IntegerUI4V1TypeE
FN:1326,_ZZNK4mlir4vhlo12_GLOBAL__N_121VhloBytecodeInterface9writeTypeENS_4TypeERNS_21DialectBytecodeWriterEENK4$_30clENS0_16IntegerUI8V1TypeE
FNDA:32,_ZZNK4mlir4vhlo12_GLOBAL__N_121VhloBytecodeInterface9writeTypeENS_4TypeERNS_21DialectBytecodeWriterEENK4$_30clENS0_16IntegerUI8V1TypeE
FN:1330,_ZZNK4mlir4vhlo12_GLOBAL__N_121VhloBytecodeInterface9writeTypeENS_4TypeERNS_21DialectBytecodeWriterEENK4$_31clENS0_17IntegerUI16V1TypeE
FNDA:32,_ZZNK4mlir4vhlo12_GLOBAL__N_121VhloBytecodeInterface9writeTypeENS_4TypeERNS_21DialectBytecodeWriterEENK4$_31clENS0_17IntegerUI16V1TypeE
FN:1334,_ZZNK4mlir4vhlo12_GLOBAL__N_121VhloBytecodeInterface9writeTypeENS_4TypeERNS_21DialectBytecodeWriterEENK4$_32clENS0_17IntegerUI32V1TypeE
FNDA:32,_ZZNK4mlir4vhlo12_GLOBAL__N_121VhloBytecodeInterface9writeTypeENS_4TypeERNS_21DialectBytecodeWriterEENK4$_32clENS0_17IntegerUI32V1TypeE
FN:1338,_ZZNK4mlir4vhlo12_GLOBAL__N_121VhloBytecodeInterface9writeTypeENS_4TypeERNS_21DialectBytecodeWriterEENK4$_33clENS0_17IntegerUI64V1TypeE
FNDA:32,_ZZNK4mlir4vhlo12_GLOBAL__N_121VhloBytecodeInterface9writeTypeENS_4TypeERNS_21DialectBytecodeWriterEENK4$_33clENS0_17IntegerUI64V1TypeE
FN:1342,_ZZNK4mlir4vhlo12_GLOBAL__N_121VhloBytecodeInterface9writeTypeENS_4TypeERNS_21DialectBytecodeWriterEENK4$_34clENS0_13WitnessV1TypeE
FNDA:32,_ZZNK4mlir4vhlo12_GLOBAL__N_121VhloBytecodeInterface9writeTypeENS_4TypeERNS_21DialectBytecodeWriterEENK4$_34clENS0_13WitnessV1TypeE
FN:1346,_ZZNK4mlir4vhlo12_GLOBAL__N_121VhloBytecodeInterface9writeTypeENS_4TypeERNS_21DialectBytecodeWriterEENK4$_35clES3_
FNDA:0,_ZZNK4mlir4vhlo12_GLOBAL__N_121VhloBytecodeInterface9writeTypeENS_4TypeERNS_21DialectBytecodeWriterEENK4$_35clES3_
FN:1355,_ZNK4mlir4vhlo12_GLOBAL__N_121VhloBytecodeInterface15readTokenV1TypeERNS_21DialectBytecodeReaderE
FNDA:8,_ZNK4mlir4vhlo12_GLOBAL__N_121VhloBytecodeInterface15readTokenV1TypeERNS_21DialectBytecodeReaderE
FN:1361,_ZNK4mlir4vhlo12_GLOBAL__N_121VhloBytecodeInterface5writeENS0_11TokenV1TypeERNS_21DialectBytecodeWriterE
FNDA:32,_ZNK4mlir4vhlo12_GLOBAL__N_121VhloBytecodeInterface5writeENS0_11TokenV1TypeERNS_21DialectBytecodeWriterE
FN:1373,_ZNK4mlir4vhlo12_GLOBAL__N_121VhloBytecodeInterface15readComplexTypeERNS_21DialectBytecodeReaderE
FNDA:16,_ZNK4mlir4vhlo12_GLOBAL__N_121VhloBytecodeInterface15readComplexTypeERNS_21DialectBytecodeReaderE
FN:1381,_ZNK4mlir4vhlo12_GLOBAL__N_121VhloBytecodeInterface5writeENS0_13ComplexV1TypeERNS_21DialectBytecodeWriterE
FNDA:64,_ZNK4mlir4vhlo12_GLOBAL__N_121VhloBytecodeInterface5writeENS0_13ComplexV1TypeERNS_21DialectBytecodeWriterE
FN:1390,_ZNK4mlir4vhlo12_GLOBAL__N_121VhloBytecodeInterface16readFunctionTypeERNS_21DialectBytecodeReaderE
FNDA:720,_ZNK4mlir4vhlo12_GLOBAL__N_121VhloBytecodeInterface16readFunctionTypeERNS_21DialectBytecodeReaderE
FN:1401,_ZNK4mlir4vhlo12_GLOBAL__N_121VhloBytecodeInterface5writeENS0_14FunctionV1TypeERNS_21DialectBytecodeWriterE
FNDA:2880,_ZNK4mlir4vhlo12_GLOBAL__N_121VhloBytecodeInterface5writeENS0_14FunctionV1TypeERNS_21DialectBytecodeWriterE
FN:1411,_ZNK4mlir4vhlo12_GLOBAL__N_121VhloBytecodeInterface20readRankedTensorTypeERNS_21DialectBytecodeReaderEb
FNDA:600,_ZNK4mlir4vhlo12_GLOBAL__N_121VhloBytecodeInterface20readRankedTensorTypeERNS_21DialectBytecodeReaderEb
FN:1427,_ZNK4mlir4vhlo12_GLOBAL__N_121VhloBytecodeInterface5writeENS0_18RankedTensorV1TypeERNS_21DialectBytecodeWriterE
FNDA:2400,_ZNK4mlir4vhlo12_GLOBAL__N_121VhloBytecodeInterface5writeENS0_18RankedTensorV1TypeERNS_21DialectBytecodeWriterE
FN:1442,_ZNK4mlir4vhlo12_GLOBAL__N_121VhloBytecodeInterface13readTupleTypeERNS_21DialectBytecodeReaderE
FNDA:24,_ZNK4mlir4vhlo12_GLOBAL__N_121VhloBytecodeInterface13readTupleTypeERNS_21DialectBytecodeReaderE
FN:1451,_ZNK4mlir4vhlo12_GLOBAL__N_121VhloBytecodeInterface5writeENS0_11TupleV1TypeERNS_21DialectBytecodeWriterE
FNDA:96,_ZNK4mlir4vhlo12_GLOBAL__N_121VhloBytecodeInterface5writeENS0_11TupleV1TypeERNS_21DialectBytecodeWriterE
FN:1460,_ZNK4mlir4vhlo12_GLOBAL__N_121VhloBytecodeInterface24readUniformQuantizedTypeERNS_21DialectBytecodeReaderE
FNDA:8,_ZNK4mlir4vhlo12_GLOBAL__N_121VhloBytecodeInterface24readUniformQuantizedTypeERNS_21DialectBytecodeReaderE
FN:1483,_ZNK4mlir4vhlo12_GLOBAL__N_121VhloBytecodeInterface5writeENS0_22UniformQuantizedV1TypeERNS_21DialectBytecodeWriterE
FNDA:32,_ZNK4mlir4vhlo12_GLOBAL__N_121VhloBytecodeInterface5writeENS0_22UniformQuantizedV1TypeERNS_21DialectBytecodeWriterE
FN:1498,_ZNK4mlir4vhlo12_GLOBAL__N_121VhloBytecodeInterface22readUnrankedTensorTypeERNS_21DialectBytecodeReaderE
FNDA:8,_ZNK4mlir4vhlo12_GLOBAL__N_121VhloBytecodeInterface22readUnrankedTensorTypeERNS_21DialectBytecodeReaderE
FN:1507,_ZNK4mlir4vhlo12_GLOBAL__N_121VhloBytecodeInterface5writeENS0_20UnrankedTensorV1TypeERNS_21DialectBytecodeWriterE
FNDA:32,_ZNK4mlir4vhlo12_GLOBAL__N_121VhloBytecodeInterface5writeENS0_20UnrankedTensorV1TypeERNS_21DialectBytecodeWriterE
FN:1515,_ZN4mlir4vhlo20addBytecodeInterfaceEPNS0_11VhloDialectE
FNDA:256,_ZN4mlir4vhlo20addBytecodeInterfaceEPNS0_11VhloDialectE
DA:384,256
DA:520,2784
DA:521,2784
DA:522,2784
DA:523,2784
DA:524,2784
DA:526,16
DA:528,64
DA:530,88
DA:532,48
DA:534,40
DA:536,40
DA:538,40
DA:540,40
DA:542,16
DA:544,32
DA:546,48
DA:548,40
DA:550,24
DA:552,32
DA:554,32
DA:556,80
DA:559,232
DA:561,168
DA:563,24
DA:565,24
DA:567,72
DA:569,1488
DA:571,2144
DA:573,728
DA:575,8
DA:577,0
DA:578,0
DA:580,2784
DA:585,11136
DA:586,11136
DA:587,44544
DA:588,11136
DA:595,12352
DA:596,1216
DA:597,1216
DA:598,1216
DA:600,11136
DA:602,21024
DA:603,9888
DA:604,9888
DA:605,9888
DA:607,11168
DA:608,32
DA:609,32
DA:611,11136
DA:612,0
DA:613,0
DA:620,0
DA:621,0
DA:622,0
DA:624,0
DA:625,0
DA:626,0
DA:627,0
DA:629,0
DA:630,0
DA:631,0
DA:632,0
DA:633,0
DA:634,0
DA:635,0
DA:636,0
DA:637,0
DA:639,0
DA:640,0
DA:641,0
DA:642,0
DA:643,0
DA:644,0
DA:645,0
DA:646,0
DA:651,16
DA:652,16
DA:653,16
DA:654,16
DA:655,16
DA:656,16
DA:657,0
DA:658,16
DA:659,16
DA:661,64
DA:662,64
DA:663,64
DA:664,64
DA:665,64
DA:666,64
DA:671,48
DA:672,48
DA:673,48
DA:674,48
DA:675,48
DA:676,48
DA:679,192
DA:680,192
DA:681,192
DA:682,192
DA:683,192
DA:688,40
DA:689,40
DA:690,40
DA:691,40
DA:692,40
DA:693,40
DA:696,160
DA:697,160
DA:698,160
DA:699,160
DA:700,160
DA:706,8
DA:707,8
DA:708,8
DA:709,8
DA:710,8
DA:712,8
DA:713,8
DA:715,8
DA:716,8
DA:718,24
DA:719,8
DA:720,8
DA:721,8
DA:722,8
DA:723,8
DA:724,8
DA:725,8
DA:726,8
DA:727,0
DA:729,8
DA:730,8
DA:731,8
DA:732,8
DA:733,8
DA:734,8
DA:736,32
DA:737,32
DA:738,32
DA:739,32
DA:740,32
DA:741,32
DA:742,32
DA:743,32
DA:744,32
DA:745,32
DA:746,32
DA:747,32
DA:748,32
DA:754,32
DA:755,32
DA:756,32
DA:757,32
DA:758,32
DA:759,32
DA:762,128
DA:763,128
DA:764,128
DA:765,128
DA:766,128
DA:771,8
DA:772,8
DA:773,8
DA:774,16
DA:775,16
DA:777,24
DA:778,8
DA:779,8
DA:780,8
DA:781,0
DA:783,8
DA:784,8
DA:785,8
DA:786,8
DA:788,32
DA:789,32
DA:790,32
DA:791,32
DA:792,32
DA:793,32
DA:794,32
DA:795,32
DA:800,32
DA:801,32
DA:802,32
DA:803,32
DA:804,32
DA:805,32
DA:807,128
DA:808,128
DA:809,128
DA:810,128
DA:811,128
DA:817,8
DA:818,8
DA:819,8
DA:820,8
DA:821,8
DA:823,24
DA:824,8
DA:825,8
DA:826,8
DA:827,0
DA:829,16
DA:830,8
DA:831,8
DA:832,8
DA:834,32
DA:835,32
DA:836,32
DA:837,32
DA:838,32
DA:839,32
DA:840,32
DA:841,32
DA:846,8
DA:847,8
DA:848,8
DA:849,8
DA:850,8
DA:852,24
DA:853,8
DA:854,8
DA:855,0
DA:857,16
DA:858,8
DA:859,8
DA:861,32
DA:862,32
DA:863,32
DA:864,32
DA:865,32
DA:866,32
DA:867,32
DA:872,24
DA:873,24
DA:874,24
DA:875,24
DA:876,24
DA:877,24
DA:880,96
DA:881,96
DA:882,96
DA:883,96
DA:884,96
DA:889,24
DA:890,24
DA:891,24
DA:892,24
DA:893,24
DA:894,24
DA:897,96
DA:898,96
DA:899,96
DA:900,96
DA:901,96
DA:906,16
DA:907,16
DA:908,16
DA:909,16
DA:910,16
DA:911,16
DA:914,64
DA:915,64
DA:916,64
DA:917,64
DA:918,64
DA:924,8
DA:925,8
DA:926,8
DA:927,8
DA:928,8
DA:929,8
DA:931,24
DA:932,8
DA:933,8
DA:934,8
DA:935,0
DA:937,8
DA:938,8
DA:939,8
DA:940,8
DA:942,32
DA:943,32
DA:944,32
DA:945,32
DA:946,32
DA:947,32
DA:948,32
DA:949,32
DA:954,24
DA:955,24
DA:956,24
DA:957,24
DA:958,24
DA:959,24
DA:962,96
DA:963,96
DA:964,96
DA:965,96
DA:966,96
DA:971,8
DA:972,8
DA:973,8
DA:974,8
DA:975,8
DA:976,8
DA:977,8
DA:979,32
DA:980,32
DA:981,32
DA:982,32
DA:983,32
DA:992,72
DA:993,72
DA:994,72
DA:995,72
DA:996,72
DA:997,72
DA:998,72
DA:1000,288
DA:1001,288
DA:1002,288
DA:1003,288
DA:1004,288
DA:1010,160
DA:1011,160
DA:1012,160
DA:1013,160
DA:1014,160
DA:1015,160
DA:1016,0
DA:1017,160
DA:1018,160
DA:1020,640
DA:1021,640
DA:1022,640
DA:1023,640
DA:1024,640
DA:1025,640
DA:1030,8
DA:1031,8
DA:1032,8
DA:1033,16
DA:1034,8
DA:1035,8
DA:1036,8
DA:1037,8
DA:1038,0
DA:1039,8
DA:1040,8
DA:1041,8
DA:1042,8
DA:1044,8
DA:1045,8
DA:1047,32
DA:1048,32
DA:1049,32
DA:1050,64
DA:1051,32
DA:1052,32
DA:1053,32
DA:1054,32
DA:1061,8
DA:1062,8
DA:1063,8
DA:1064,8
DA:1065,8
DA:1066,8
DA:1067,0
DA:1068,0
DA:1069,8
DA:1072,8
DA:1073,8
DA:1074,8
DA:1075,8
DA:1076,8
DA:1078,8
DA:1079,8
DA:1080,8
DA:1082,8
DA:1083,8
DA:1085,32
DA:1086,32
DA:1087,32
DA:1088,32
DA:1089,32
DA:1090,32
DA:1095,16
DA:1096,16
DA:1097,16
DA:1098,16
DA:1099,16
DA:1100,16
DA:1101,16
DA:1103,64
DA:1104,64
DA:1105,64
DA:1106,64
DA:1107,64
DA:1113,64
DA:1114,64
DA:1115,48
DA:1116,48
DA:1117,48
DA:1118,48
DA:1119,24
DA:1120,0
DA:1121,64
DA:1124,64
DA:1125,64
DA:1126,64
DA:1127,64
DA:1128,64
DA:1131,64
DA:1132,64
DA:1133,0
DA:1134,0
DA:1135,64
DA:1138,64
DA:1139,64
DA:1140,64
DA:1141,64
DA:1143,256
DA:1144,256
DA:1145,256
DA:1146,256
DA:1147,256
DA:1148,256
DA:1153,1424
DA:1154,1424
DA:1155,1424
DA:1156,1424
DA:1157,1424
DA:1158,1424
DA:1159,1424
DA:1161,5696
DA:1162,5696
DA:1163,5696
DA:1164,5696
DA:1165,5696
DA:1170,720
DA:1171,720
DA:1172,720
DA:1173,720
DA:1174,720
DA:1176,720
DA:1177,720
DA:1179,2880
DA:1180,2880
DA:1181,2880
DA:1182,2880
DA:1183,2880
DA:1190,1536
DA:1191,1536
DA:1192,1536
DA:1194,1536
DA:1196,16
DA:1199,24
DA:1201,24
DA:1203,16
DA:1205,16
DA:1207,16
DA:1209,16
DA:1211,728
DA:1213,728
DA:1215,16
DA:1217,16
DA:1219,16
DA:1221,16
DA:1223,16
DA:1225,16
DA:1227,16
DA:1229,16
DA:1231,16
DA:1233,16
DA:1235,16
DA:1237,600
DA:1239,600
DA:1241,32
DA:1243,32
DA:1245,16
DA:1247,16
DA:1249,8
DA:1251,0
DA:1252,0
DA:1254,1536
DA:1257,6144
DA:1258,6144
DA:1259,135168
DA:1260,6176
DA:1261,32
DA:1262,32
DA:1263,32
DA:1265,6144
DA:1266,11648
DA:1267,5504
DA:1268,5504
DA:1270,6176
DA:1271,32
DA:1272,32
DA:1274,6176
DA:1275,32
DA:1276,32
DA:1278,6176
DA:1279,32
DA:1280,32
DA:1282,6176
DA:1283,32
DA:1284,32
DA:1286,6176
DA:1287,32
DA:1288,32
DA:1290,6176
DA:1291,32
DA:1292,32
DA:1294,6176
DA:1295,32
DA:1296,32
DA:1298,6176
DA:1299,32
DA:1300,32
DA:1302,6176
DA:1303,32
DA:1304,32
DA:1306,6176
DA:1307,32
DA:1308,32
DA:1310,6176
DA:1311,32
DA:1312,32
DA:1314,6176
DA:1315,32
DA:1316,32
DA:1318,6176
DA:1319,32
DA:1320,32
DA:1322,6176
DA:1323,32
DA:1324,32
DA:1326,6176
DA:1327,32
DA:1328,32
DA:1330,6176
DA:1331,32
DA:1332,32
DA:1334,6176
DA:1335,32
DA:1336,32
DA:1338,6176
DA:1339,32
DA:1340,32
DA:1342,6176
DA:1343,32
DA:1344,32
DA:1346,6144
DA:1347,0
DA:1348,0
DA:1355,8
DA:1356,8
DA:1357,8
DA:1358,8
DA:1361,32
DA:1362,32
DA:1363,32
DA:1364,32
DA:1373,16
DA:1374,16
DA:1375,16
DA:1376,16
DA:1377,16
DA:1378,16
DA:1379,16
DA:1381,64
DA:1382,64
DA:1383,64
DA:1384,64
DA:1385,64
DA:1390,720
DA:1391,720
DA:1392,720
DA:1393,720
DA:1394,720
DA:1395,720
DA:1396,0
DA:1398,720
DA:1399,720
DA:1401,2880
DA:1402,2880
DA:1403,2880
DA:1404,2880
DA:1405,2880
DA:1406,2880
DA:1411,600
DA:1412,600
DA:1413,600
DA:1414,600
DA:1415,600
DA:1416,0
DA:1418,600
DA:1419,600
DA:1420,600
DA:1421,600
DA:1422,0
DA:1424,600
DA:1425,600
DA:1427,2400
DA:1428,2400
DA:1429,4768
DA:1430,32
DA:1431,32
DA:1432,32
DA:1433,2368
DA:1435,2400
DA:1436,2400
DA:1437,2400
DA:1442,24
DA:1443,24
DA:1444,24
DA:1445,24
DA:1446,24
DA:1448,24
DA:1449,24
DA:1451,96
DA:1452,96
DA:1453,96
DA:1454,96
DA:1455,96
DA:1460,8
DA:1461,8
DA:1462,8
DA:1463,8
DA:1464,8
DA:1465,8
DA:1466,8
DA:1467,16
DA:1468,8
DA:1469,8
DA:1470,16
DA:1471,24
DA:1472,8
DA:1473,8
DA:1474,8
DA:1475,0
DA:1476,0
DA:1478,16
DA:1479,8
DA:1480,8
DA:1481,8
DA:1483,32
DA:1484,32
DA:1485,32
DA:1486,32
DA:1487,32
DA:1488,32
DA:1489,32
DA:1490,32
DA:1491,32
DA:1492,32
DA:1493,32
DA:1498,8
DA:1499,8
DA:1500,8
DA:1501,8
DA:1502,8
DA:1504,8
DA:1505,8
DA:1507,32
DA:1508,32
DA:1509,32
DA:1510,32
DA:1511,32
DA:1515,256
DA:1516,256
DA:1517,256
end_of_record
SF:/usr/local/google/home/gleasonk/Coding/openxla/stablehlo/stablehlo/dialect/Base.h
FN:166,_ZN4mlir3hlo8bytecode17readEnumAttributeINS_4vhlo25ComparisonDirectionV1AttrEZNKS3_12_GLOBAL__N_121VhloBytecodeInterface29readComparisonDirectionV1AttrERNS_21DialectBytecodeReaderEE3$_4EET_S8_PNS_11MLIRContextET0_
FNDA:48,_ZN4mlir3hlo8bytecode17readEnumAttributeINS_4vhlo25ComparisonDirectionV1AttrEZNKS3_12_GLOBAL__N_121VhloBytecodeInterface29readComparisonDirectionV1AttrERNS_21DialectBytecodeReaderEE3$_4EET_S8_PNS_11MLIRContextET0_
FN:166,_ZN4mlir3hlo8bytecode17readEnumAttributeINS_4vhlo20ComparisonTypeV1AttrEZNKS3_12_GLOBAL__N_121VhloBytecodeInterface24readComparisonTypeV1AttrERNS_21DialectBytecodeReaderEE3$_5EET_S8_PNS_11MLIRContextET0_
FNDA:40,_ZN4mlir3hlo8bytecode17readEnumAttributeINS_4vhlo20ComparisonTypeV1AttrEZNKS3_12_GLOBAL__N_121VhloBytecodeInterface24readComparisonTypeV1AttrERNS_21DialectBytecodeReaderEE3$_5EET_S8_PNS_11MLIRContextET0_
FN:166,_ZN4mlir3hlo8bytecode17readEnumAttributeINS_4vhlo26CustomCallApiVersionV1AttrEZNKS3_12_GLOBAL__N_121VhloBytecodeInterface30readCustomCallApiVersionV1AttrERNS_21DialectBytecodeReaderEE3$_6EET_S8_PNS_11MLIRContextET0_
FNDA:32,_ZN4mlir3hlo8bytecode17readEnumAttributeINS_4vhlo26CustomCallApiVersionV1AttrEZNKS3_12_GLOBAL__N_121VhloBytecodeInterface30readCustomCallApiVersionV1AttrERNS_21DialectBytecodeReaderEE3$_6EET_S8_PNS_11MLIRContextET0_
FN:166,_ZN4mlir3hlo8bytecode17readEnumAttributeINS_4vhlo13FftTypeV1AttrEZNKS3_12_GLOBAL__N_121VhloBytecodeInterface17readFftTypeV1AttrERNS_21DialectBytecodeReaderEE3$_7EET_S8_PNS_11MLIRContextET0_
FNDA:32,_ZN4mlir3hlo8bytecode17readEnumAttributeINS_4vhlo13FftTypeV1AttrEZNKS3_12_GLOBAL__N_121VhloBytecodeInterface17readFftTypeV1AttrERNS_21DialectBytecodeReaderEE3$_7EET_S8_PNS_11MLIRContextET0_
FN:166,_ZN4mlir3hlo8bytecode17readEnumAttributeINS_4vhlo15PrecisionV1AttrEZNKS3_12_GLOBAL__N_121VhloBytecodeInterface19readPrecisionV1AttrERNS_21DialectBytecodeReaderEE3$_8EET_S8_PNS_11MLIRContextET0_
FNDA:24,_ZN4mlir3hlo8bytecode17readEnumAttributeINS_4vhlo15PrecisionV1AttrEZNKS3_12_GLOBAL__N_121VhloBytecodeInterface19readPrecisionV1AttrERNS_21DialectBytecodeReaderEE3$_8EET_S8_PNS_11MLIRContextET0_
FN:166,_ZN4mlir3hlo8bytecode17readEnumAttributeINS_4vhlo18RngAlgorithmV1AttrEZNKS3_12_GLOBAL__N_121VhloBytecodeInterface22readRngAlgorithmV1AttrERNS_21DialectBytecodeReaderEE3$_9EET_S8_PNS_11MLIRContextET0_
FNDA:24,_ZN4mlir3hlo8bytecode17readEnumAttributeINS_4vhlo18RngAlgorithmV1AttrEZNKS3_12_GLOBAL__N_121VhloBytecodeInterface22readRngAlgorithmV1AttrERNS_21DialectBytecodeReaderEE3$_9EET_S8_PNS_11MLIRContextET0_
FN:166,_ZN4mlir3hlo8bytecode17readEnumAttributeINS_4vhlo21RngDistributionV1AttrEZNKS3_12_GLOBAL__N_121VhloBytecodeInterface25readRngDistributionV1AttrERNS_21DialectBytecodeReaderEE4$_10EET_S8_PNS_11MLIRContextET0_
FNDA:16,_ZN4mlir3hlo8bytecode17readEnumAttributeINS_4vhlo21RngDistributionV1AttrEZNKS3_12_GLOBAL__N_121VhloBytecodeInterface25readRngDistributionV1AttrERNS_21DialectBytecodeReaderEE4$_10EET_S8_PNS_11MLIRContextET0_
FN:166,_ZN4mlir3hlo8bytecode17readEnumAttributeINS_4vhlo15TransposeV1AttrEZNKS3_12_GLOBAL__N_121VhloBytecodeInterface19readTransposeV1AttrERNS_21DialectBytecodeReaderEE4$_11EET_S8_PNS_11MLIRContextET0_
FNDA:24,_ZN4mlir3hlo8bytecode17readEnumAttributeINS_4vhlo15TransposeV1AttrEZNKS3_12_GLOBAL__N_121VhloBytecodeInterface19readTransposeV1AttrERNS_21DialectBytecodeReaderEE4$_11EET_S8_PNS_11MLIRContextET0_
FN:178,_ZN4mlir3hlo8bytecode18writeEnumAttributeINS_4vhlo21ComparisonDirectionV1ENS3_25ComparisonDirectionV1AttrEEEvT0_RNS_21DialectBytecodeWriterE
FNDA:192,_ZN4mlir3hlo8bytecode18writeEnumAttributeINS_4vhlo21ComparisonDirectionV1ENS3_25ComparisonDirectionV1AttrEEEvT0_RNS_21DialectBytecodeWriterE
FN:178,_ZN4mlir3hlo8bytecode18writeEnumAttributeINS_4vhlo16ComparisonTypeV1ENS3_20ComparisonTypeV1AttrEEEvT0_RNS_21DialectBytecodeWriterE
FNDA:160,_ZN4mlir3hlo8bytecode18writeEnumAttributeINS_4vhlo16ComparisonTypeV1ENS3_20ComparisonTypeV1AttrEEEvT0_RNS_21DialectBytecodeWriterE
FN:178,_ZN4mlir3hlo8bytecode18writeEnumAttributeINS_4vhlo22CustomCallApiVersionV1ENS3_26CustomCallApiVersionV1AttrEEEvT0_RNS_21DialectBytecodeWriterE
FNDA:128,_ZN4mlir3hlo8bytecode18writeEnumAttributeINS_4vhlo22CustomCallApiVersionV1ENS3_26CustomCallApiVersionV1AttrEEEvT0_RNS_21DialectBytecodeWriterE
FN:178,_ZN4mlir3hlo8bytecode18writeEnumAttributeINS_4vhlo9FftTypeV1ENS3_13FftTypeV1AttrEEEvT0_RNS_21DialectBytecodeWriterE
FNDA:128,_ZN4mlir3hlo8bytecode18writeEnumAttributeINS_4vhlo9FftTypeV1ENS3_13FftTypeV1AttrEEEvT0_RNS_21DialectBytecodeWriterE
FN:178,_ZN4mlir3hlo8bytecode18writeEnumAttributeINS_4vhlo11PrecisionV1ENS3_15PrecisionV1AttrEEEvT0_RNS_21DialectBytecodeWriterE
FNDA:96,_ZN4mlir3hlo8bytecode18writeEnumAttributeINS_4vhlo11PrecisionV1ENS3_15PrecisionV1AttrEEEvT0_RNS_21DialectBytecodeWriterE
FN:178,_ZN4mlir3hlo8bytecode18writeEnumAttributeINS_4vhlo14RngAlgorithmV1ENS3_18RngAlgorithmV1AttrEEEvT0_RNS_21DialectBytecodeWriterE
FNDA:96,_ZN4mlir3hlo8bytecode18writeEnumAttributeINS_4vhlo14RngAlgorithmV1ENS3_18RngAlgorithmV1AttrEEEvT0_RNS_21DialectBytecodeWriterE
FN:178,_ZN4mlir3hlo8bytecode18writeEnumAttributeINS_4vhlo17RngDistributionV1ENS3_21RngDistributionV1AttrEEEvT0_RNS_21DialectBytecodeWriterE
FNDA:64,_ZN4mlir3hlo8bytecode18writeEnumAttributeINS_4vhlo17RngDistributionV1ENS3_21RngDistributionV1AttrEEEvT0_RNS_21DialectBytecodeWriterE
FN:178,_ZN4mlir3hlo8bytecode18writeEnumAttributeINS_4vhlo11TransposeV1ENS3_15TransposeV1AttrEEEvT0_RNS_21DialectBytecodeWriterE
FNDA:96,_ZN4mlir3hlo8bytecode18writeEnumAttributeINS_4vhlo11TransposeV1ENS3_15TransposeV1AttrEEEvT0_RNS_21DialectBytecodeWriterE
DA:166,240
DA:167,240
DA:168,240
DA:169,240
DA:171,240
DA:172,240
DA:174,240
DA:175,240
DA:178,960
DA:184,1920
DA:185,960
DA:186,960
DA:187,960
end_of_record
TN:
SF:/usr/local/google/home/gleasonk/Coding/openxla/stablehlo/stablehlo/dialect/AssemblyFormat.cpp
FN:39,_ZN4mlir3hlo12_GLOBAL__N_122assignFromFunctionTypeERNS_11OpAsmParserEN4llvm5SMLocENS4_8ArrayRefIPNS_4TypeEEERS7_RNS_12FunctionTypeE
FNDA:432,_ZN4mlir3hlo12_GLOBAL__N_122assignFromFunctionTypeERNS_11OpAsmParserEN4llvm5SMLocENS4_8ArrayRefIPNS_4TypeEEERS7_RNS_12FunctionTypeE
FN:62,_ZN4mlir3hlo6detail34printSameOperandsAndResultTypeImplERNS_12OpAsmPrinterEPNS_9OperationENS_9TypeRangeENS_4TypeE
FNDA:10368,_ZN4mlir3hlo6detail34printSameOperandsAndResultTypeImplERNS_12OpAsmPrinterEPNS_9OperationENS_9TypeRangeENS_4TypeE
FN:72,_ZZN4mlir3hlo6detail34printSameOperandsAndResultTypeImplERNS_12OpAsmPrinterEPNS_9OperationENS_9TypeRangeENS_4TypeEENK3$_0clIS7_EEDaT_
FNDA:15968,_ZZN4mlir3hlo6detail34printSameOperandsAndResultTypeImplERNS_12OpAsmPrinterEPNS_9OperationENS_9TypeRangeENS_4TypeEENK3$_0clIS7_EEDaT_
FN:82,_ZN4mlir3hlo6detail34parseSameOperandsAndResultTypeImplERNS_11OpAsmParserEN4llvm8ArrayRefIPNS_4TypeEEERS6_
FNDA:4904,_ZN4mlir3hlo6detail34parseSameOperandsAndResultTypeImplERNS_11OpAsmParserEN4llvm8ArrayRefIPNS_4TypeEEERS6_
FN:100,_ZN4mlir3hlo38printVariadicSameOperandsAndResultTypeERNS_12OpAsmPrinterEPNS_9OperationENS_12OperandRangeENS_9TypeRangeENS_4TypeE
FNDA:240,_ZN4mlir3hlo38printVariadicSameOperandsAndResultTypeERNS_12OpAsmPrinterEPNS_9OperationENS_12OperandRangeENS_9TypeRangeENS_4TypeE
FN:106,_ZN4mlir3hlo38parseVariadicSameOperandsAndResultTypeERNS_11OpAsmParserERN4llvm15SmallVectorImplINS1_17UnresolvedOperandEEERNS4_INS_4TypeEEERS8_
FNDA:24,_ZN4mlir3hlo38parseVariadicSameOperandsAndResultTypeERNS_11OpAsmParserERN4llvm15SmallVectorImplINS1_17UnresolvedOperandEEERNS4_INS_4TypeEEERS8_
FN:122,_ZN4mlir3hlo16printTupleOpTypeERNS_12OpAsmPrinterEPNS_9OperationENS_9TypeRangeENS_4TypeE
FNDA:1024,_ZN4mlir3hlo16printTupleOpTypeERNS_12OpAsmPrinterEPNS_9OperationENS_9TypeRangeENS_4TypeE
FN:127,_ZN4mlir3hlo16parseTupleOpTypeERNS_11OpAsmParserERN4llvm15SmallVectorImplINS_4TypeEEERS5_
FNDA:168,_ZN4mlir3hlo16parseTupleOpTypeERNS_11OpAsmParserERN4llvm15SmallVectorImplINS_4TypeEEERS5_
FN:141,_ZN4mlir3hlo19printPairwiseOpTypeERNS_12OpAsmPrinterEPNS_9OperationENS_9TypeRangeES5_
FNDA:208,_ZN4mlir3hlo19printPairwiseOpTypeERNS_12OpAsmPrinterEPNS_9OperationENS_9TypeRangeES5_
FN:146,_ZN4mlir3hlo19parsePairwiseOpTypeERNS_11OpAsmParserERN4llvm15SmallVectorImplINS_4TypeEEES7_
FNDA:40,_ZN4mlir3hlo19parsePairwiseOpTypeERNS_11OpAsmParserERN4llvm15SmallVectorImplINS_4TypeEEES7_
FN:156,_ZN4mlir3hlo33printVariadicOperandWithAttributeERNS_12OpAsmPrinterEPNS_9OperationENS_12OperandRangeE
FNDA:608,_ZN4mlir3hlo33printVariadicOperandWithAttributeERNS_12OpAsmPrinterEPNS_9OperationENS_12OperandRangeE
FN:162,_ZN4mlir3hlo33parseVariadicOperandWithAttributeERNS_11OpAsmParserERN4llvm15SmallVectorImplINS1_17UnresolvedOperandEEE
FNDA:80,_ZN4mlir3hlo33parseVariadicOperandWithAttributeERNS_11OpAsmParserERN4llvm15SmallVectorImplINS1_17UnresolvedOperandEEE
FN:181,_ZN4mlir3hlo18printComplexOpTypeERNS_12OpAsmPrinterEPNS_9OperationENS_4TypeES5_S5_
FNDA:160,_ZN4mlir3hlo18printComplexOpTypeERNS_12OpAsmPrinterEPNS_9OperationENS_4TypeES5_S5_
FN:193,_ZN4mlir3hlo18parseComplexOpTypeERNS_11OpAsmParserERNS_4TypeES4_S4_
FNDA:40,_ZN4mlir3hlo18parseComplexOpTypeERNS_11OpAsmParserERNS_4TypeES4_S4_
FN:215,_ZN4mlir3hlo17printSelectOpTypeERNS_12OpAsmPrinterEPNS_9OperationENS_4TypeES5_S5_S5_
FNDA:400,_ZN4mlir3hlo17printSelectOpTypeERNS_12OpAsmPrinterEPNS_9OperationENS_4TypeES5_S5_S5_
FN:227,_ZN4mlir3hlo17parseSelectOpTypeERNS_11OpAsmParserERNS_4TypeES4_S4_S4_
FNDA:48,_ZN4mlir3hlo17parseSelectOpTypeERNS_11OpAsmParserERNS_4TypeES4_S4_S4_
FN:258,_ZN4mlir3hlo18printDenseI64ArrayERNS_12OpAsmPrinterEPNS_9OperationENS_20DenseIntElementsAttrE
FNDA:2336,_ZN4mlir3hlo18printDenseI64ArrayERNS_12OpAsmPrinterEPNS_9OperationENS_20DenseIntElementsAttrE
FN:268,_ZN4mlir3hlo18parseDenseI64ArrayERNS_11OpAsmParserERNS_20DenseIntElementsAttrE
FNDA:200,_ZN4mlir3hlo18parseDenseI64ArrayERNS_11OpAsmParserERNS_20DenseIntElementsAttrE
FN:281,_ZN4mlir3hlo15dimSizeToStringB5cxx11El
FNDA:28792,_ZN4mlir3hlo15dimSizeToStringB5cxx11El
FN:287,_ZN4mlir3hlo13printDimSizesIN4llvm18raw_string_ostreamEEEvRT_NS2_8ArrayRefIlEE
FNDA:88,_ZN4mlir3hlo13printDimSizesIN4llvm18raw_string_ostreamEEEvRT_NS2_8ArrayRefIlEE
FN:287,_ZN4mlir3hlo13printDimSizesINS_10AsmPrinterEEEvRT_N4llvm8ArrayRefIlEE
FNDA:3408,_ZN4mlir3hlo13printDimSizesINS_10AsmPrinterEEEvRT_N4llvm8ArrayRefIlEE
FN:289,_ZZN4mlir3hlo13printDimSizesIN4llvm18raw_string_ostreamEEEvRT_NS2_8ArrayRefIlEEENKUllE_clEl
FNDA:320,_ZZN4mlir3hlo13printDimSizesIN4llvm18raw_string_ostreamEEEvRT_NS2_8ArrayRefIlEEENKUllE_clEl
FN:289,_ZZN4mlir3hlo13printDimSizesINS_10AsmPrinterEEEvRT_N4llvm8ArrayRefIlEEENKUllE_clEl
FNDA:7072,_ZZN4mlir3hlo13printDimSizesINS_10AsmPrinterEEEvRT_N4llvm8ArrayRefIlEEENKUllE_clEl
FN:295,_ZN4mlir3hlo16dimSizesToStringB5cxx11EN4llvm8ArrayRefIlEE
FNDA:88,_ZN4mlir3hlo16dimSizesToStringB5cxx11EN4llvm8ArrayRefIlEE
FN:302,_ZN4mlir3hlo13printDimSizesERNS_10AsmPrinterEN4llvm8ArrayRefIlEE
FNDA:3408,_ZN4mlir3hlo13printDimSizesERNS_10AsmPrinterEN4llvm8ArrayRefIlEE
FN:306,_ZN4mlir3hlo13parseDimSizesERNS_9AsmParserE
FNDA:5528,_ZN4mlir3hlo13parseDimSizesERNS_9AsmParserE
FN:312,_ZN4mlir3hlo13parseDimSizesERNS_9AsmParserERN4llvm11SmallVectorIlLj6EEE
FNDA:7072,_ZN4mlir3hlo13parseDimSizesERNS_9AsmParserERN4llvm11SmallVectorIlLj6EEE
FN:313,_ZZN4mlir3hlo13parseDimSizesERNS_9AsmParserERN4llvm11SmallVectorIlLj6EEEENK3$_1clEv
FNDA:11568,_ZZN4mlir3hlo13parseDimSizesERNS_9AsmParserERN4llvm11SmallVectorIlLj6EEEENK3$_1clEv
FN:324,_ZN4mlir3hlo21printExponentMantissaERNS_10AsmPrinterEPNS_9OperationENS_11IntegerAttrES5_
FNDA:176,_ZN4mlir3hlo21printExponentMantissaERNS_10AsmPrinterEPNS_9OperationENS_11IntegerAttrES5_
FN:333,_ZN4mlir3hlo21parseExponentMantissaERNS_9AsmParserERNS_11IntegerAttrES4_
FNDA:64,_ZN4mlir3hlo21parseExponentMantissaERNS_9AsmParserERNS_11IntegerAttrES4_
FN:366,_ZN4mlir3hlo21printCustomCallTargetERNS_10AsmPrinterEPNS_9OperationENS_10StringAttrE
FNDA:608,_ZN4mlir3hlo21printCustomCallTargetERNS_10AsmPrinterEPNS_9OperationENS_10StringAttrE
FN:370,_ZN4mlir3hlo21parseCustomCallTargetERNS_9AsmParserERNS_10StringAttrE
FNDA:72,_ZN4mlir3hlo21parseCustomCallTargetERNS_9AsmParserERNS_10StringAttrE
DA:39,432
DA:41,432
DA:42,432
DA:43,432
DA:44,32
DA:45,16
DA:46,16
DA:49,952
DA:50,536
DA:53,416
DA:54,8
DA:55,408
DA:57,408
DA:58,432
DA:62,10368
DA:63,10368
DA:65,10368
DA:66,64
DA:67,64
DA:71,20608
DA:72,26272
DA:73,10304
DA:74,8688
DA:75,8688
DA:79,1616
DA:80,10368
DA:82,4904
DA:84,4904
DA:85,4904
DA:86,4904
DA:87,4904
DA:90,4896
DA:91,416
DA:94,12680
DA:95,4480
DA:96,4480
DA:97,4904
DA:100,240
DA:102,240
DA:103,240
DA:106,24
DA:109,24
DA:112,24
DA:115,24
DA:116,24
DA:117,56
DA:119,24
DA:120,24
DA:122,1024
DA:123,1024
DA:124,1024
DA:125,1024
DA:127,168
DA:128,168
DA:130,168
DA:131,168
DA:133,160
DA:134,160
DA:137,152
DA:138,152
DA:139,168
DA:141,208
DA:142,208
DA:143,208
DA:144,208
DA:146,40
DA:148,40
DA:149,40
DA:150,40
DA:151,8
DA:152,32
DA:153,32
DA:154,40
DA:156,608
DA:157,608
DA:158,608
DA:159,608
DA:160,608
DA:162,80
DA:164,80
DA:167,80
DA:168,80
DA:169,216
DA:170,152
DA:171,152
DA:172,136
DA:174,64
DA:175,80
DA:181,160
DA:182,160
DA:183,160
DA:185,160
DA:186,64
DA:187,64
DA:190,96
DA:191,160
DA:193,40
DA:194,40
DA:195,40
DA:196,40
DA:197,40
DA:200,32
DA:201,8
DA:204,24
DA:205,24
DA:206,16
DA:209,8
DA:210,8
DA:211,8
DA:212,8
DA:213,40
DA:215,400
DA:216,400
DA:218,400
DA:219,176
DA:220,176
DA:224,224
DA:225,400
DA:227,48
DA:228,48
DA:229,48
DA:230,48
DA:231,48
DA:235,64
DA:236,24
DA:237,48
DA:238,32
DA:239,16
DA:242,32
DA:243,24
DA:244,24
DA:245,24
DA:249,8
DA:250,8
DA:252,48
DA:258,2336
DA:259,2336
DA:260,2336
DA:261,0
DA:262,2336
DA:263,2336
DA:264,2336
DA:265,2336
DA:266,2336
DA:268,200
DA:269,200
DA:270,400
DA:271,200
DA:272,200
DA:274,192
DA:275,192
DA:276,192
DA:277,192
DA:278,192
DA:279,200
DA:281,28792
DA:282,28792
DA:283,23960
DA:284,28792
DA:287,3496
DA:288,3496
DA:289,10888
DA:290,7392
DA:291,7392
DA:292,3496
DA:293,3496
DA:295,88
DA:296,88
DA:297,88
DA:298,88
DA:299,88
DA:300,88
DA:302,3408
DA:303,3408
DA:304,3408
DA:306,5528
DA:307,5528
DA:308,5528
DA:309,5528
DA:310,5528
DA:312,7072
DA:313,18640
DA:314,11568
DA:315,1936
DA:316,1936
DA:318,9632
DA:319,11568
DA:320,7072
DA:321,7072
DA:324,176
DA:325,176
DA:326,176
DA:327,176
DA:328,176
DA:329,176
DA:330,176
DA:333,64
DA:334,64
DA:335,64
DA:336,64
DA:337,64
DA:340,56
DA:341,56
DA:342,56
DA:343,72
DA:344,24
DA:345,24
DA:348,32
DA:349,32
DA:350,32
DA:353,32
DA:354,32
DA:355,16
DA:356,8
DA:357,24
DA:358,16
DA:359,8
DA:361,16
DA:362,16
DA:363,16
DA:364,64
DA:366,608
DA:367,608
DA:368,608
DA:370,72
DA:371,72
end_of_record
SF:/usr/local/google/home/gleasonk/Coding/openxla/stablehlo/stablehlo/dialect/Base.h
FN:49,_ZN4mlir3hloL16isDynamicDimSizeEl
FNDA:28792,_ZN4mlir3hloL16isDynamicDimSizeEl
DA:49,28792
DA:50,28792
end_of_record
TN:
SF:/usr/local/google/home/gleasonk/Coding/openxla/stablehlo/stablehlo/dialect/BroadcastUtils.cpp
FN:29,_ZN4mlir3hlo27isLegalNumpyRankedBroadcastENS_5ValueES1_NS_20DenseIntElementsAttrE
FNDA:8,_ZN4mlir3hlo27isLegalNumpyRankedBroadcastENS_5ValueES1_NS_20DenseIntElementsAttrE
FN:47,_ZN4mlir3hlo49computeBinaryElementwiseBroadcastingResultExtentsENS_8LocationENS_5ValueES2_RNS_9OpBuilderE
FNDA:32,_ZN4mlir3hlo49computeBinaryElementwiseBroadcastingResultExtentsENS_8LocationENS_5ValueES2_RNS_9OpBuilderE
FN:54,_ZN4mlir3hlo47computeNaryElementwiseBroadcastingResultExtentsENS_8LocationENS_10ValueRangeERNS_9OpBuilderE
FNDA:40,_ZN4mlir3hlo47computeNaryElementwiseBroadcastingResultExtentsENS_8LocationENS_10ValueRangeERNS_9OpBuilderE
FN:57,_ZZN4mlir3hlo47computeNaryElementwiseBroadcastingResultExtentsENS_8LocationENS_10ValueRangeERNS_9OpBuilderEENK3$_0clENS_5ValueE
FNDA:88,_ZZN4mlir3hlo47computeNaryElementwiseBroadcastingResultExtentsENS_8LocationENS_10ValueRangeERNS_9OpBuilderEENK3$_0clENS_5ValueE
DA:29,8
DA:30,8
DA:31,8
DA:32,8
DA:33,8
DA:34,0
DA:37,0
DA:38,0
DA:40,0
DA:41,0
DA:42,0
DA:43,0
DA:44,0
DA:45,8
DA:47,32
DA:49,32
DA:50,32
DA:51,32
DA:54,40
DA:56,40
DA:57,128
DA:58,88
DA:61,40
DA:62,128
DA:63,88
DA:64,88
DA:65,88
DA:66,0
DA:67,0
DA:69,88
DA:70,88
DA:71,40
DA:72,40
DA:74,80
DA:75,40
DA:76,40
end_of_record
TN:
SF:/usr/local/google/home/gleasonk/Coding/openxla/stablehlo/stablehlo/dialect/VhloTypes.cpp
FN:28,_ZN4mlir4vhlo12_GLOBAL__N_125convertBuiltinIntegerTypeENS_11IntegerTypeE
FNDA:1256,_ZN4mlir4vhlo12_GLOBAL__N_125convertBuiltinIntegerTypeENS_11IntegerTypeE
FN:59,_ZN4mlir4vhlo17VhloTypeConverter27addBuiltinToVhloConversionsEv
FNDA:992,_ZN4mlir4vhlo17VhloTypeConverter27addBuiltinToVhloConversionsEv
FN:60,_ZZN4mlir4vhlo17VhloTypeConverter27addBuiltinToVhloConversionsEvENK3$_0clENS_12BFloat16TypeE
FNDA:32,_ZZN4mlir4vhlo17VhloTypeConverter27addBuiltinToVhloConversionsEvENK3$_0clENS_12BFloat16TypeE
FN:63,_ZZN4mlir4vhlo17VhloTypeConverter27addBuiltinToVhloConversionsEvENK3$_1clENS_11ComplexTypeE
FNDA:64,_ZZN4mlir4vhlo17VhloTypeConverter27addBuiltinToVhloConversionsEvENK3$_1clENS_11ComplexTypeE
FN:68,_ZZN4mlir4vhlo17VhloTypeConverter27addBuiltinToVhloConversionsEvENK3$_2clENS_11Float16TypeE
FNDA:32,_ZZN4mlir4vhlo17VhloTypeConverter27addBuiltinToVhloConversionsEvENK3$_2clENS_11Float16TypeE
FN:70,_ZZN4mlir4vhlo17VhloTypeConverter27addBuiltinToVhloConversionsEvENK3$_3clENS_11Float32TypeE
FNDA:104,_ZZN4mlir4vhlo17VhloTypeConverter27addBuiltinToVhloConversionsEvENK3$_3clENS_11Float32TypeE
FN:72,_ZZN4mlir4vhlo17VhloTypeConverter27addBuiltinToVhloConversionsEvENK3$_4clENS_11Float64TypeE
FNDA:32,_ZZN4mlir4vhlo17VhloTypeConverter27addBuiltinToVhloConversionsEvENK3$_4clENS_11Float64TypeE
FN:73,_ZZN4mlir4vhlo17VhloTypeConverter27addBuiltinToVhloConversionsEvENK3$_5clENS_16Float8E4M3FNTypeE
FNDA:40,_ZZN4mlir4vhlo17VhloTypeConverter27addBuiltinToVhloConversionsEvENK3$_5clENS_16Float8E4M3FNTypeE
FN:76,_ZZN4mlir4vhlo17VhloTypeConverter27addBuiltinToVhloConversionsEvENK3$_6clENS_14Float8E5M2TypeE
FNDA:40,_ZZN4mlir4vhlo17VhloTypeConverter27addBuiltinToVhloConversionsEvENK3$_6clENS_14Float8E5M2TypeE
FN:79,_ZZN4mlir4vhlo17VhloTypeConverter27addBuiltinToVhloConversionsEvENK3$_7clENS_12FunctionTypeE
FNDA:3000,_ZZN4mlir4vhlo17VhloTypeConverter27addBuiltinToVhloConversionsEvENK3$_7clENS_12FunctionTypeE
FN:88,_ZZN4mlir4vhlo17VhloTypeConverter27addBuiltinToVhloConversionsEvENK3$_8clENS_9IndexTypeE
FNDA:64,_ZZN4mlir4vhlo17VhloTypeConverter27addBuiltinToVhloConversionsEvENK3$_8clENS_9IndexTypeE
FN:90,_ZZN4mlir4vhlo17VhloTypeConverter27addBuiltinToVhloConversionsEvENK3$_9clENS_11IntegerTypeE
FNDA:1256,_ZZN4mlir4vhlo17VhloTypeConverter27addBuiltinToVhloConversionsEvENK3$_9clENS_11IntegerTypeE
FN:91,_ZZN4mlir4vhlo17VhloTypeConverter27addBuiltinToVhloConversionsEvENK4$_10clENS_16RankedTensorTypeE
FNDA:3048,_ZZN4mlir4vhlo17VhloTypeConverter27addBuiltinToVhloConversionsEvENK4$_10clENS_16RankedTensorTypeE
FN:99,_ZZN4mlir4vhlo17VhloTypeConverter27addBuiltinToVhloConversionsEvENK4$_11clENS_9TupleTypeE
FNDA:96,_ZZN4mlir4vhlo17VhloTypeConverter27addBuiltinToVhloConversionsEvENK4$_11clENS_9TupleTypeE
FN:104,_ZZN4mlir4vhlo17VhloTypeConverter27addBuiltinToVhloConversionsEvENK4$_12clENS_5quant20UniformQuantizedTypeE
FNDA:32,_ZZN4mlir4vhlo17VhloTypeConverter27addBuiltinToVhloConversionsEvENK4$_12clENS_5quant20UniformQuantizedTypeE
FN:113,_ZZN4mlir4vhlo17VhloTypeConverter27addBuiltinToVhloConversionsEvENK4$_13clENS_18UnrankedTensorTypeE
FNDA:32,_ZZN4mlir4vhlo17VhloTypeConverter27addBuiltinToVhloConversionsEvENK4$_13clENS_18UnrankedTensorTypeE
FN:118,_ZZN4mlir4vhlo17VhloTypeConverter27addBuiltinToVhloConversionsEvENK4$_14clENS_5shape11WitnessTypeE
FNDA:32,_ZZN4mlir4vhlo17VhloTypeConverter27addBuiltinToVhloConversionsEvENK4$_14clENS_5shape11WitnessTypeE
FN:123,_ZN4mlir4vhlo17VhloTypeConverter27addVhloToBuiltinConversionsEv
FNDA:3264,_ZN4mlir4vhlo17VhloTypeConverter27addVhloToBuiltinConversionsEv
FN:124,_ZZN4mlir4vhlo17VhloTypeConverter27addVhloToBuiltinConversionsEvENK4$_15clENS0_14BFloat16V1TypeE
FNDA:8,_ZZN4mlir4vhlo17VhloTypeConverter27addVhloToBuiltinConversionsEvENK4$_15clENS0_14BFloat16V1TypeE
FN:127,_ZZN4mlir4vhlo17VhloTypeConverter27addVhloToBuiltinConversionsEvENK4$_16clENS0_13ComplexV1TypeE
FNDA:16,_ZZN4mlir4vhlo17VhloTypeConverter27addVhloToBuiltinConversionsEvENK4$_16clENS0_13ComplexV1TypeE
FN:131,_ZZN4mlir4vhlo17VhloTypeConverter27addVhloToBuiltinConversionsEvENK4$_17clENS0_13Float16V1TypeE
FNDA:8,_ZZN4mlir4vhlo17VhloTypeConverter27addVhloToBuiltinConversionsEvENK4$_17clENS0_13Float16V1TypeE
FN:133,_ZZN4mlir4vhlo17VhloTypeConverter27addVhloToBuiltinConversionsEvENK4$_18clENS0_13Float32V1TypeE
FNDA:56,_ZZN4mlir4vhlo17VhloTypeConverter27addVhloToBuiltinConversionsEvENK4$_18clENS0_13Float32V1TypeE
FN:135,_ZZN4mlir4vhlo17VhloTypeConverter27addVhloToBuiltinConversionsEvENK4$_19clENS0_13Float64V1TypeE
FNDA:8,_ZZN4mlir4vhlo17VhloTypeConverter27addVhloToBuiltinConversionsEvENK4$_19clENS0_13Float64V1TypeE
FN:136,_ZZN4mlir4vhlo17VhloTypeConverter27addVhloToBuiltinConversionsEvENK4$_20clENS0_18Float8E4M3FNV1TypeE
FNDA:8,_ZZN4mlir4vhlo17VhloTypeConverter27addVhloToBuiltinConversionsEvENK4$_20clENS0_18Float8E4M3FNV1TypeE
FN:139,_ZZN4mlir4vhlo17VhloTypeConverter27addVhloToBuiltinConversionsEvENK4$_21clENS0_16Float8E5M2V1TypeE
FNDA:8,_ZZN4mlir4vhlo17VhloTypeConverter27addVhloToBuiltinConversionsEvENK4$_21clENS0_16Float8E5M2V1TypeE
FN:142,_ZZN4mlir4vhlo17VhloTypeConverter27addVhloToBuiltinConversionsEvENK4$_22clENS0_14FunctionV1TypeE
FNDA:720,_ZZN4mlir4vhlo17VhloTypeConverter27addVhloToBuiltinConversionsEvENK4$_22clENS0_14FunctionV1TypeE
FN:151,_ZZN4mlir4vhlo17VhloTypeConverter27addVhloToBuiltinConversionsEvENK4$_23clENS0_11IndexV1TypeE
FNDA:104,_ZZN4mlir4vhlo17VhloTypeConverter27addVhloToBuiltinConversionsEvENK4$_23clENS0_11IndexV1TypeE
FN:152,_ZZN4mlir4vhlo17VhloTypeConverter27addVhloToBuiltinConversionsEvENK4$_24clENS0_15IntegerI1V1TypeE
FNDA:648,_ZZN4mlir4vhlo17VhloTypeConverter27addVhloToBuiltinConversionsEvENK4$_24clENS0_15IntegerI1V1TypeE
FN:155,_ZZN4mlir4vhlo17VhloTypeConverter27addVhloToBuiltinConversionsEvENK4$_25clENS0_15IntegerI4V1TypeE
FNDA:8,_ZZN4mlir4vhlo17VhloTypeConverter27addVhloToBuiltinConversionsEvENK4$_25clENS0_15IntegerI4V1TypeE
FN:158,_ZZN4mlir4vhlo17VhloTypeConverter27addVhloToBuiltinConversionsEvENK4$_26clENS0_15IntegerI8V1TypeE
FNDA:8,_ZZN4mlir4vhlo17VhloTypeConverter27addVhloToBuiltinConversionsEvENK4$_26clENS0_15IntegerI8V1TypeE
FN:161,_ZZN4mlir4vhlo17VhloTypeConverter27addVhloToBuiltinConversionsEvENK4$_27clENS0_16IntegerI16V1TypeE
FNDA:8,_ZZN4mlir4vhlo17VhloTypeConverter27addVhloToBuiltinConversionsEvENK4$_27clENS0_16IntegerI16V1TypeE
FN:164,_ZZN4mlir4vhlo17VhloTypeConverter27addVhloToBuiltinConversionsEvENK4$_28clENS0_16IntegerI32V1TypeE
FNDA:152,_ZZN4mlir4vhlo17VhloTypeConverter27addVhloToBuiltinConversionsEvENK4$_28clENS0_16IntegerI32V1TypeE
FN:167,_ZZN4mlir4vhlo17VhloTypeConverter27addVhloToBuiltinConversionsEvENK4$_29clENS0_16IntegerI64V1TypeE
FNDA:2336,_ZZN4mlir4vhlo17VhloTypeConverter27addVhloToBuiltinConversionsEvENK4$_29clENS0_16IntegerI64V1TypeE
FN:170,_ZZN4mlir4vhlo17VhloTypeConverter27addVhloToBuiltinConversionsEvENK4$_30clENS0_16IntegerUI4V1TypeE
FNDA:8,_ZZN4mlir4vhlo17VhloTypeConverter27addVhloToBuiltinConversionsEvENK4$_30clENS0_16IntegerUI4V1TypeE
FN:173,_ZZN4mlir4vhlo17VhloTypeConverter27addVhloToBuiltinConversionsEvENK4$_31clENS0_16IntegerUI8V1TypeE
FNDA:8,_ZZN4mlir4vhlo17VhloTypeConverter27addVhloToBuiltinConversionsEvENK4$_31clENS0_16IntegerUI8V1TypeE
FN:176,_ZZN4mlir4vhlo17VhloTypeConverter27addVhloToBuiltinConversionsEvENK4$_32clENS0_17IntegerUI16V1TypeE
FNDA:8,_ZZN4mlir4vhlo17VhloTypeConverter27addVhloToBuiltinConversionsEvENK4$_32clENS0_17IntegerUI16V1TypeE
FN:179,_ZZN4mlir4vhlo17VhloTypeConverter27addVhloToBuiltinConversionsEvENK4$_33clENS0_17IntegerUI32V1TypeE
FNDA:8,_ZZN4mlir4vhlo17VhloTypeConverter27addVhloToBuiltinConversionsEvENK4$_33clENS0_17IntegerUI32V1TypeE
FN:182,_ZZN4mlir4vhlo17VhloTypeConverter27addVhloToBuiltinConversionsEvENK4$_34clENS0_17IntegerUI64V1TypeE
FNDA:8,_ZZN4mlir4vhlo17VhloTypeConverter27addVhloToBuiltinConversionsEvENK4$_34clENS0_17IntegerUI64V1TypeE
FN:185,_ZZN4mlir4vhlo17VhloTypeConverter27addVhloToBuiltinConversionsEvENK4$_35clENS0_18RankedTensorV1TypeE
FNDA:2424,_ZZN4mlir4vhlo17VhloTypeConverter27addVhloToBuiltinConversionsEvENK4$_35clENS0_18RankedTensorV1TypeE
FN:193,_ZZN4mlir4vhlo17VhloTypeConverter27addVhloToBuiltinConversionsEvENK4$_36clENS0_11TupleV1TypeE
FNDA:24,_ZZN4mlir4vhlo17VhloTypeConverter27addVhloToBuiltinConversionsEvENK4$_36clENS0_11TupleV1TypeE
FN:198,_ZZN4mlir4vhlo17VhloTypeConverter27addVhloToBuiltinConversionsEvENK4$_37clENS0_22UniformQuantizedV1TypeE
FNDA:8,_ZZN4mlir4vhlo17VhloTypeConverter27addVhloToBuiltinConversionsEvENK4$_37clENS0_22UniformQuantizedV1TypeE
FN:207,_ZZN4mlir4vhlo17VhloTypeConverter27addVhloToBuiltinConversionsEvENK4$_38clENS0_20UnrankedTensorV1TypeE
FNDA:8,_ZZN4mlir4vhlo17VhloTypeConverter27addVhloToBuiltinConversionsEvENK4$_38clENS0_20UnrankedTensorV1TypeE
FN:212,_ZZN4mlir4vhlo17VhloTypeConverter27addVhloToBuiltinConversionsEvENK4$_39clENS0_13WitnessV1TypeE
FNDA:8,_ZZN4mlir4vhlo17VhloTypeConverter27addVhloToBuiltinConversionsEvENK4$_39clENS0_13WitnessV1TypeE
FN:220,_ZN4mlir4vhlo12_GLOBAL__N_110isFromVhloINS_4TypeEEEbT_
FNDA:28568,_ZN4mlir4vhlo12_GLOBAL__N_110isFromVhloINS_4TypeEEEbT_
FN:220,_ZN4mlir4vhlo12_GLOBAL__N_110isFromVhloINS_9AttributeEEEbT_
FNDA:64,_ZN4mlir4vhlo12_GLOBAL__N_110isFromVhloINS_9AttributeEEEbT_
FN:225,_ZN4mlir4vhlo12_GLOBAL__N_111allFromVhloINS_4TypeEEEbN4llvm8ArrayRefIT_EE
FNDA:10728,_ZN4mlir4vhlo12_GLOBAL__N_111allFromVhloINS_4TypeEEEbN4llvm8ArrayRefIT_EE
FN:231,_ZN4mlir4vhlo13printEncodingERNS_10AsmPrinterENS_9AttributeE
FNDA:30984,_ZN4mlir4vhlo13printEncodingERNS_10AsmPrinterENS_9AttributeE
FN:236,_ZN4mlir4vhlo13parseEncodingERNS_9AsmParserERNS_9AttributeE
FNDA:9544,_ZN4mlir4vhlo13parseEncodingERNS_9AsmParserERNS_9AttributeE
FN:244,_ZN4mlir4vhlo10printShapeERNS_10AsmPrinterEN4llvm8ArrayRefIlEE
FNDA:30984,_ZN4mlir4vhlo10printShapeERNS_10AsmPrinterEN4llvm8ArrayRefIlEE
FN:251,_ZN4mlir4vhlo10parseShapeERNS_9AsmParserERN4llvm11SmallVectorIlLj6EEE
FNDA:9544,_ZN4mlir4vhlo10parseShapeERNS_9AsmParserERN4llvm11SmallVectorIlLj6EEE
FN:259,_ZN4mlir4vhloL14printTypeArrayERNS_10AsmPrinterEN4llvm8ArrayRefINS_4TypeEEE
FNDA:4208,_ZN4mlir4vhloL14printTypeArrayERNS_10AsmPrinterEN4llvm8ArrayRefINS_4TypeEEE
FN:265,_ZN4mlir4vhlo14parseTypeArrayERNS_9AsmParserERN4llvm11SmallVectorINS_4TypeELj6EEE
FNDA:0,_ZN4mlir4vhlo14parseTypeArrayERNS_9AsmParserERN4llvm11SmallVectorINS_4TypeELj6EEE
FN:271,_ZZN4mlir4vhlo14parseTypeArrayERNS_9AsmParserERN4llvm11SmallVectorINS_4TypeELj6EEEENK4$_40clEv
FNDA:0,_ZZN4mlir4vhlo14parseTypeArrayERNS_9AsmParserERN4llvm11SmallVectorINS_4TypeELj6EEEENK4$_40clEv
FN:289,_ZN4mlir4vhlo13printVhloTypeENS_4TypeERNS_10AsmPrinterE
FNDA:66320,_ZN4mlir4vhlo13printVhloTypeENS_4TypeERNS_10AsmPrinterE
FN:293,_ZN4mlir4vhlo13parseVhloTypeERNS_9AsmParserEPN4llvm9StringRefERNS_4TypeE
FNDA:20272,_ZN4mlir4vhlo13parseVhloTypeERNS_9AsmParserEPN4llvm9StringRefERNS_4TypeE
FN:300,_ZN4mlir4vhlo12_GLOBAL__N_117registerVhloTypesIJNS0_14BFloat16V1TypeENS0_13ComplexV1TypeENS0_13Float16V1TypeENS0_13Float32V1TypeENS0_13Float64V1TypeENS0_18Float8E4M3FNV1TypeENS0_16Float8E5M2V1TypeENS0_14FunctionV1TypeENS0_11IndexV1TypeENS0_16IntegerI16V1TypeENS0_15IntegerI1V1TypeENS0_16IntegerI32V1TypeENS0_15IntegerI4V1TypeENS0_16IntegerI64V1TypeENS0_15IntegerI8V1TypeENS0_17IntegerUI16V1TypeENS0_17IntegerUI32V1TypeENS0_16IntegerUI4V1TypeENS0_17IntegerUI64V1TypeENS0_16IntegerUI8V1TypeENS0_18RankedTensorV1TypeENS0_11TokenV1TypeENS0_11TupleV1TypeENS0_22UniformQuantizedV1TypeENS0_20UnrankedTensorV1TypeENS0_13WitnessV1TypeEEEEvPNS_11MLIRContextE
FNDA:256,_ZN4mlir4vhlo12_GLOBAL__N_117registerVhloTypesIJNS0_14BFloat16V1TypeENS0_13ComplexV1TypeENS0_13Float16V1TypeENS0_13Float32V1TypeENS0_13Float64V1TypeENS0_18Float8E4M3FNV1TypeENS0_16Float8E5M2V1TypeENS0_14FunctionV1TypeENS0_11IndexV1TypeENS0_16IntegerI16V1TypeENS0_15IntegerI1V1TypeENS0_16IntegerI32V1TypeENS0_15IntegerI4V1TypeENS0_16IntegerI64V1TypeENS0_15IntegerI8V1TypeENS0_17IntegerUI16V1TypeENS0_17IntegerUI32V1TypeENS0_16IntegerUI4V1TypeENS0_17IntegerUI64V1TypeENS0_16IntegerUI8V1TypeENS0_18RankedTensorV1TypeENS0_11TokenV1TypeENS0_11TupleV1TypeENS0_22UniformQuantizedV1TypeENS0_20UnrankedTensorV1TypeENS0_13WitnessV1TypeEEEEvPNS_11MLIRContextE
FN:305,_ZN4mlir4vhlo17registerVhloTypesEPNS_11MLIRContextE
FNDA:256,_ZN4mlir4vhlo17registerVhloTypesEPNS_11MLIRContextE
DA:28,1256
DA:29,1256
DA:31,1256
DA:32,232
DA:36,1024
DA:37,1024
DA:38,1024
DA:40,128
DA:41,32
DA:43,128
DA:44,32
DA:46,168
DA:47,32
DA:49,832
DA:50,40
DA:52,728
DA:53,32
DA:54,0
DA:55,0
DA:56,1256
DA:59,992
DA:60,1024
DA:61,32
DA:63,1056
DA:64,128
DA:65,64
DA:67,1984
DA:68,1024
DA:69,1984
DA:70,1096
DA:71,1984
DA:72,1024
DA:73,1032
DA:74,40
DA:76,1032
DA:77,40
DA:79,3992
DA:80,3000
DA:81,3000
DA:82,3000
DA:83,2992
DA:84,5984
DA:85,2992
DA:86,3000
DA:87,1984
DA:88,1056
DA:89,1984
DA:90,2248
DA:91,4040
DA:92,3048
DA:93,3048
DA:94,3048
DA:95,3048
DA:96,6080
DA:97,3040
DA:98,3048
DA:99,1088
DA:100,96
DA:101,96
DA:102,96
DA:103,96
DA:104,1024
DA:105,32
DA:106,32
DA:107,32
DA:108,64
DA:109,32
DA:110,32
DA:111,32
DA:112,32
DA:113,1024
DA:114,32
DA:115,32
DA:116,32
DA:117,32
DA:118,1024
DA:119,32
DA:121,992
DA:123,3264
DA:124,3272
DA:125,8
DA:127,3280
DA:128,16
DA:130,6528
DA:131,3272
DA:132,6528
DA:133,3320
DA:134,6528
DA:135,3272
DA:136,3272
DA:137,8
DA:139,3272
DA:140,8
DA:142,3984
DA:143,720
DA:144,720
DA:145,720
DA:146,720
DA:147,1440
DA:148,720
DA:149,720
DA:150,6528
DA:151,3368
DA:152,3912
DA:153,648
DA:155,3272
DA:156,8
DA:158,3272
DA:159,8
DA:161,3272
DA:162,8
DA:164,3416
DA:165,152
DA:167,5600
DA:168,2336
DA:170,3272
DA:171,8
DA:173,3272
DA:174,8
DA:176,3272
DA:177,8
DA:179,3272
DA:180,8
DA:182,3272
DA:183,8
DA:185,5688
DA:186,2424
DA:187,2424
DA:188,2424
DA:189,2424
DA:190,4848
DA:191,2424
DA:192,2424
DA:193,3288
DA:194,24
DA:195,24
DA:196,24
DA:197,24
DA:198,3272
DA:199,8
DA:200,8
DA:201,8
DA:202,16
DA:203,8
DA:204,8
DA:205,8
DA:206,8
DA:207,3272
DA:208,8
DA:209,8
DA:210,8
DA:211,8
DA:212,3272
DA:213,8
DA:215,3264
DA:220,28632
DA:221,28632
DA:225,10728
DA:226,10728
DA:231,30984
DA:232,30984
DA:233,104
DA:234,30984
DA:236,9544
DA:237,9544
DA:238,9520
DA:240,24
DA:241,24
DA:242,9544
DA:244,30984
DA:245,30984
DA:246,32728
DA:247,21352
DA:248,21352
DA:249,30984
DA:251,9544
DA:252,9544
DA:253,0
DA:255,9544
DA:256,9544
DA:259,4208
DA:260,4208
DA:261,4208
DA:262,4208
DA:265,0
DA:266,0
DA:267,0
DA:268,0
DA:271,0
DA:272,0
DA:273,0
DA:275,0
DA:276,0
DA:289,66320
DA:290,66320
DA:293,20272
DA:294,20272
DA:295,20272
DA:300,256
DA:301,256
DA:302,256
DA:305,256
DA:306,256
DA:309,256
DA:310,256
end_of_record
TN:
SF:/usr/local/google/home/gleasonk/Coding/openxla/stablehlo/stablehlo/dialect/Base.cpp
FN:33,_ZN4mlir3hlo12_GLOBAL__N_122getExpressedTypeOrSelfENS_4TypeE
FNDA:173224,_ZN4mlir3hlo12_GLOBAL__N_122getExpressedTypeOrSelfENS_4TypeE
FN:39,_ZN4mlir3hlo31verifyCompatibleShapeWithBoundsENS_4TypeES1_
FNDA:85479,_ZN4mlir3hlo31verifyCompatibleShapeWithBoundsENS_4TypeES1_
FN:43,_ZZN4mlir3hlo31verifyCompatibleShapeWithBoundsENS_4TypeES1_ENK3$_0clEN4llvm8ArrayRefIlEENS0_20BoundedAttrInterfaceE
FNDA:165717,_ZZN4mlir3hlo31verifyCompatibleShapeWithBoundsENS_4TypeES1_ENK3$_0clEN4llvm8ArrayRefIlEENS0_20BoundedAttrInterfaceE
FN:66,_ZN4mlir3hlo31isCompatibleForHloTypeInferenceENS_4TypeES1_
FNDA:171996,_ZN4mlir3hlo31isCompatibleForHloTypeInferenceENS_4TypeES1_
FN:110,_ZN4mlir3hlo31isCompatibleForHloTypeInferenceENS_9TypeRangeES1_
FNDA:40289,_ZN4mlir3hlo31isCompatibleForHloTypeInferenceENS_9TypeRangeES1_
FN:117,_ZN4mlir3hlo22deriveShapeFromOperandEPNS_9OpBuilderEPNS_9OperationENS_5ValueEPN4llvm15SmallVectorImplIS5_EE
FNDA:16,_ZN4mlir3hlo22deriveShapeFromOperandEPNS_9OpBuilderEPNS_9OperationENS_5ValueEPN4llvm15SmallVectorImplIS5_EE
FN:130,_ZN4mlir3hlo22getSameShapeTensorTypeENS_10TensorTypeENS_4TypeE
FNDA:1000,_ZN4mlir3hlo22getSameShapeTensorTypeENS_10TensorTypeENS_4TypeE
FN:142,_ZN4mlir3hlo14createRealTypeENS_10TensorTypeE
FNDA:536,_ZN4mlir3hlo14createRealTypeENS_10TensorTypeE
FN:153,_ZN4mlir3hlo12verifyBoundsEN4llvm8ArrayRefIlEENS_16RankedTensorTypeENS1_12function_refIFNS_18InFlightDiagnosticEvEEE
FNDA:4608,_ZN4mlir3hlo12verifyBoundsEN4llvm8ArrayRefIlEENS_16RankedTensorTypeENS1_12function_refIFNS_18InFlightDiagnosticEvEEE
FN:174,_ZN4mlir3hlo16encodingToBoundsENS_9AttributeE
FNDA:39709,_ZN4mlir3hlo16encodingToBoundsENS_9AttributeE
FN:180,_ZN4mlir3hlo16boundsToEncodingENS_9AttributeEN4llvm8ArrayRefIlEE
FNDA:23123,_ZN4mlir3hlo16boundsToEncodingENS_9AttributeEN4llvm8ArrayRefIlEE
FN:182,_ZZN4mlir3hlo16boundsToEncodingENS_9AttributeEN4llvm8ArrayRefIlEEENK3$_1clIlEEDaT_
FNDA:3096,_ZZN4mlir3hlo16boundsToEncodingENS_9AttributeEN4llvm8ArrayRefIlEEENK3$_1clIlEEDaT_
FN:200,_ZN4mlir3hlo28inferConcatenatedDimAndBoundEllll
FNDA:1472,_ZN4mlir3hlo28inferConcatenatedDimAndBoundEllll
FN:230,_ZN4mlir3hlo28inferMostSpecificDimAndBoundESt8optionalINS_8LocationEElllll
FNDA:8991,_ZN4mlir3hlo28inferMostSpecificDimAndBoundESt8optionalINS_8LocationEElllll
FN:270,_ZN4mlir3hlo29inferLeastSpecificDimAndBoundESt8optionalINS_8LocationEElllll
FNDA:456,_ZN4mlir3hlo29inferLeastSpecificDimAndBoundESt8optionalINS_8LocationEElllll
FN:297,_ZN4mlir3hlo21inferTypeWithCustomFnESt8optionalINS_8LocationEEN4llvm11SmallVectorINS_16RankedTensorTypeELj6EEESt8functionIFNS_9FailureOrISt4pairIllEEES3_lllllEE
FNDA:19822,_ZN4mlir3hlo21inferTypeWithCustomFnESt8optionalINS_8LocationEEN4llvm11SmallVectorINS_16RankedTensorTypeELj6EEESt8functionIFNS_9FailureOrISt4pairIllEEES3_lllllEE
FN:334,_ZN4mlir3hlo22inferLeastSpecificTypeESt8optionalINS_8LocationEENS_9TypeRangeE
FNDA:600,_ZN4mlir3hlo22inferLeastSpecificTypeESt8optionalINS_8LocationEENS_9TypeRangeE
FN:346,_ZN4mlir3hlo21inferMostSpecificTypeESt8optionalINS_8LocationEENS_9TypeRangeE
FNDA:19385,_ZN4mlir3hlo21inferMostSpecificTypeESt8optionalINS_8LocationEENS_9TypeRangeE
FN:357,_ZN4mlir3hlo31inferMostSpecificTypeComponentsESt8optionalINS_8LocationEENS_9TypeRangeERN4llvm15SmallVectorImplINS_20ShapedTypeComponentsEEE
FNDA:496,_ZN4mlir3hlo31inferMostSpecificTypeComponentsESt8optionalINS_8LocationEENS_9TypeRangeERN4llvm15SmallVectorImplINS_20ShapedTypeComponentsEEE
DA:33,173224
DA:34,173224
DA:35,173224
DA:36,173224
DA:39,85479
DA:40,85479
DA:43,250916
DA:44,165717
DA:45,165717
DA:46,2000
DA:47,7520
DA:48,5520
DA:49,1984
DA:50,165717
DA:52,85199
DA:53,85199
DA:54,85199
DA:55,83031
DA:56,83031
DA:57,83031
DA:58,83031
DA:59,83031
DA:60,83031
DA:61,83003
DA:62,83031
DA:63,2168
DA:64,85479
DA:66,171996
DA:76,171996
DA:77,171996
DA:78,171996
DA:79,85536
DA:80,170232
DA:81,85116
DA:87,87070
DA:88,87070
DA:89,87070
DA:90,872
DA:91,432
DA:92,424
DA:93,16
DA:94,424
DA:95,87054
DA:96,87054
DA:107,87054
DA:108,171766
DA:110,40289
DA:111,40289
DA:112,83830
DA:113,87210
DA:114,39746
DA:115,40289
DA:117,16
DA:119,16
DA:120,16
DA:121,16
DA:122,0
DA:123,0
DA:125,32
DA:126,16
DA:127,16
DA:128,16
DA:130,1000
DA:131,1000
DA:132,1936
DA:133,968
DA:134,32
DA:135,32
DA:136,0
DA:137,1000
DA:142,536
DA:143,536
DA:144,536
DA:145,400
DA:146,536
DA:147,536
DA:153,4608
DA:154,4608
DA:155,4608
DA:156,4608
DA:157,4608
DA:158,16
DA:159,8
DA:160,8
DA:162,15560
DA:163,10960
DA:164,10960
DA:165,10960
DA:166,16
DA:167,8
DA:169,10960
DA:171,4592
DA:172,4608
DA:174,39709
DA:175,39709
DA:176,1504
DA:177,38205
DA:178,39709
DA:180,23123
DA:181,23123
DA:182,4432
DA:183,656
DA:184,680
DA:185,0
DA:188,680
DA:189,680
DA:190,23123
DA:200,1472
DA:203,1472
DA:204,1472
DA:205,1472
DA:206,1472
DA:207,1472
DA:209,1472
DA:210,840
DA:211,840
DA:212,632
DA:213,632
DA:214,632
DA:215,456
DA:216,192
DA:217,632
DA:218,1472
DA:219,1472
DA:230,8991
DA:232,8991
DA:233,8991
DA:234,8991
DA:235,8991
DA:236,8991
DA:237,8991
DA:238,8991
DA:240,8991
DA:241,8527
DA:242,16
DA:245,8511
DA:246,8511
DA:247,128
DA:248,128
DA:249,0
DA:252,128
DA:253,8511
DA:254,464
DA:255,176
DA:257,288
DA:259,8975
DA:260,8991
DA:270,456
DA:272,456
DA:273,456
DA:274,456
DA:275,456
DA:276,456
DA:277,456
DA:278,456
DA:280,456
DA:281,344
DA:282,232
DA:283,0
DA:286,232
DA:287,344
DA:288,64
DA:289,0
DA:290,64
DA:291,456
DA:292,32
DA:293,32
DA:294,456
DA:295,456
DA:297,19822
DA:301,19822
DA:302,19822
DA:303,19822
DA:304,19822
DA:305,19822
DA:306,19822
DA:307,19822
DA:309,32397
DA:310,12575
DA:311,20868
DA:312,16586
DA:313,8293
DA:314,8293
DA:315,8293
DA:316,8293
DA:317,8293
DA:318,8293
DA:319,8277
DA:320,8277
DA:321,8293
DA:322,12569
DA:324,39598
DA:325,19799
DA:326,19799
DA:327,19799
DA:331,19799
DA:332,19822
DA:334,600
DA:335,600
DA:336,600
DA:337,1672
DA:338,1136
DA:339,1008
DA:341,1136
DA:342,1072
DA:343,536
DA:344,600
DA:346,19385
DA:347,19385
DA:348,19385
DA:349,51069
DA:350,31684
DA:351,31684
DA:352,19385
DA:353,38546
DA:354,19273
DA:355,19385
DA:357,496
DA:359,496
DA:360,496
DA:361,496
DA:363,496
DA:364,496
DA:365,0
DA:366,0
DA:367,0
DA:368,0
DA:369,992
DA:370,496
DA:371,496
DA:374,496
DA:375,496
end_of_record
SF:/usr/local/google/home/gleasonk/Coding/openxla/stablehlo/stablehlo/dialect/Base.h
FN:49,_ZN4mlir3hloL16isDynamicDimSizeEl
FNDA:50429,_ZN4mlir3hloL16isDynamicDimSizeEl
DA:49,50429
DA:50,50429
end_of_record
TN:
SF:/usr/local/google/home/gleasonk/Coding/openxla/stablehlo/stablehlo/dialect/StablehloOps.h
FN:87,_ZN4mlir9stablehlo9TokenTypeCI2NS_4TypeEEPKNS_11TypeStorageE
FNDA:80,_ZN4mlir9stablehlo9TokenTypeCI2NS_4TypeEEPKNS_11TypeStorageE
end_of_record
SF:/usr/local/google/home/gleasonk/Coding/openxla/stablehlo/stablehlo/dialect/StablehloBytecode.cpp
FN:194,_ZN4mlir9stablehlo12_GLOBAL__N_126StablehloBytecodeInterfaceD0Ev
FNDA:9408,_ZN4mlir9stablehlo12_GLOBAL__N_126StablehloBytecodeInterfaceD0Ev
FN:196,_ZN4mlir9stablehlo12_GLOBAL__N_126StablehloBytecodeInterfaceC2EPNS_7DialectE
FNDA:9408,_ZN4mlir9stablehlo12_GLOBAL__N_126StablehloBytecodeInterfaceC2EPNS_7DialectE
FN:280,_ZNK4mlir9stablehlo12_GLOBAL__N_126StablehloBytecodeInterface13readAttributeERNS_21DialectBytecodeReaderE
FNDA:384,_ZNK4mlir9stablehlo12_GLOBAL__N_126StablehloBytecodeInterface13readAttributeERNS_21DialectBytecodeReaderE
FN:324,_ZNK4mlir9stablehlo12_GLOBAL__N_126StablehloBytecodeInterface14writeAttributeENS_9AttributeERNS_21DialectBytecodeWriterE
FNDA:1152,_ZNK4mlir9stablehlo12_GLOBAL__N_126StablehloBytecodeInterface14writeAttributeENS_9AttributeERNS_21DialectBytecodeWriterE
FN:332,_ZZNK4mlir9stablehlo12_GLOBAL__N_126StablehloBytecodeInterface14writeAttributeENS_9AttributeERNS_21DialectBytecodeWriterEENK3$_0clINS0_18ArgResultAliasAttrEEEDaT_
FNDA:48,_ZZNK4mlir9stablehlo12_GLOBAL__N_126StablehloBytecodeInterface14writeAttributeENS_9AttributeERNS_21DialectBytecodeWriterEENK3$_0clINS0_18ArgResultAliasAttrEEEDaT_
FN:332,_ZZNK4mlir9stablehlo12_GLOBAL__N_126StablehloBytecodeInterface14writeAttributeENS_9AttributeERNS_21DialectBytecodeWriterEENK3$_0clINS0_17ChannelHandleAttrEEEDaT_
FNDA:336,_ZZNK4mlir9stablehlo12_GLOBAL__N_126StablehloBytecodeInterface14writeAttributeENS_9AttributeERNS_21DialectBytecodeWriterEENK3$_0clINS0_17ChannelHandleAttrEEEDaT_
FN:332,_ZZNK4mlir9stablehlo12_GLOBAL__N_126StablehloBytecodeInterface14writeAttributeENS_9AttributeERNS_21DialectBytecodeWriterEENK3$_0clINS0_23ComparisonDirectionAttrEEEDaT_
FNDA:96,_ZZNK4mlir9stablehlo12_GLOBAL__N_126StablehloBytecodeInterface14writeAttributeENS_9AttributeERNS_21DialectBytecodeWriterEENK3$_0clINS0_23ComparisonDirectionAttrEEEDaT_
FN:332,_ZZNK4mlir9stablehlo12_GLOBAL__N_126StablehloBytecodeInterface14writeAttributeENS_9AttributeERNS_21DialectBytecodeWriterEENK3$_0clINS0_18ComparisonTypeAttrEEEDaT_
FNDA:96,_ZZNK4mlir9stablehlo12_GLOBAL__N_126StablehloBytecodeInterface14writeAttributeENS_9AttributeERNS_21DialectBytecodeWriterEENK3$_0clINS0_18ComparisonTypeAttrEEEDaT_
FN:332,_ZZNK4mlir9stablehlo12_GLOBAL__N_126StablehloBytecodeInterface14writeAttributeENS_9AttributeERNS_21DialectBytecodeWriterEENK3$_0clINS0_24ConvDimensionNumbersAttrEEEDaT_
FNDA:48,_ZZNK4mlir9stablehlo12_GLOBAL__N_126StablehloBytecodeInterface14writeAttributeENS_9AttributeERNS_21DialectBytecodeWriterEENK3$_0clINS0_24ConvDimensionNumbersAttrEEEDaT_
FN:332,_ZZNK4mlir9stablehlo12_GLOBAL__N_126StablehloBytecodeInterface14writeAttributeENS_9AttributeERNS_21DialectBytecodeWriterEENK3$_0clINS0_23DotDimensionNumbersAttrEEEDaT_
FNDA:48,_ZZNK4mlir9stablehlo12_GLOBAL__N_126StablehloBytecodeInterface14writeAttributeENS_9AttributeERNS_21DialectBytecodeWriterEENK3$_0clINS0_23DotDimensionNumbersAttrEEEDaT_
FN:332,_ZZNK4mlir9stablehlo12_GLOBAL__N_126StablehloBytecodeInterface14writeAttributeENS_9AttributeERNS_21DialectBytecodeWriterEENK3$_0clINS0_11FftTypeAttrEEEDaT_
FNDA:48,_ZZNK4mlir9stablehlo12_GLOBAL__N_126StablehloBytecodeInterface14writeAttributeENS_9AttributeERNS_21DialectBytecodeWriterEENK3$_0clINS0_11FftTypeAttrEEEDaT_
FN:332,_ZZNK4mlir9stablehlo12_GLOBAL__N_126StablehloBytecodeInterface14writeAttributeENS_9AttributeERNS_21DialectBytecodeWriterEENK3$_0clINS0_26GatherDimensionNumbersAttrEEEDaT_
FNDA:48,_ZZNK4mlir9stablehlo12_GLOBAL__N_126StablehloBytecodeInterface14writeAttributeENS_9AttributeERNS_21DialectBytecodeWriterEENK3$_0clINS0_26GatherDimensionNumbersAttrEEEDaT_
FN:332,_ZZNK4mlir9stablehlo12_GLOBAL__N_126StablehloBytecodeInterface14writeAttributeENS_9AttributeERNS_21DialectBytecodeWriterEENK3$_0clINS0_22OutputOperandAliasAttrEEEDaT_
FNDA:48,_ZZNK4mlir9stablehlo12_GLOBAL__N_126StablehloBytecodeInterface14writeAttributeENS_9AttributeERNS_21DialectBytecodeWriterEENK3$_0clINS0_22OutputOperandAliasAttrEEEDaT_
FN:332,_ZZNK4mlir9stablehlo12_GLOBAL__N_126StablehloBytecodeInterface14writeAttributeENS_9AttributeERNS_21DialectBytecodeWriterEENK3$_0clINS0_13PrecisionAttrEEEDaT_
FNDA:48,_ZZNK4mlir9stablehlo12_GLOBAL__N_126StablehloBytecodeInterface14writeAttributeENS_9AttributeERNS_21DialectBytecodeWriterEENK3$_0clINS0_13PrecisionAttrEEEDaT_
FN:332,_ZZNK4mlir9stablehlo12_GLOBAL__N_126StablehloBytecodeInterface14writeAttributeENS_9AttributeERNS_21DialectBytecodeWriterEENK3$_0clINS0_16RngAlgorithmAttrEEEDaT_
FNDA:48,_ZZNK4mlir9stablehlo12_GLOBAL__N_126StablehloBytecodeInterface14writeAttributeENS_9AttributeERNS_21DialectBytecodeWriterEENK3$_0clINS0_16RngAlgorithmAttrEEEDaT_
FN:332,_ZZNK4mlir9stablehlo12_GLOBAL__N_126StablehloBytecodeInterface14writeAttributeENS_9AttributeERNS_21DialectBytecodeWriterEENK3$_0clINS0_19RngDistributionAttrEEEDaT_
FNDA:96,_ZZNK4mlir9stablehlo12_GLOBAL__N_126StablehloBytecodeInterface14writeAttributeENS_9AttributeERNS_21DialectBytecodeWriterEENK3$_0clINS0_19RngDistributionAttrEEEDaT_
FN:332,_ZZNK4mlir9stablehlo12_GLOBAL__N_126StablehloBytecodeInterface14writeAttributeENS_9AttributeERNS_21DialectBytecodeWriterEENK3$_0clINS0_27ScatterDimensionNumbersAttrEEEDaT_
FNDA:48,_ZZNK4mlir9stablehlo12_GLOBAL__N_126StablehloBytecodeInterface14writeAttributeENS_9AttributeERNS_21DialectBytecodeWriterEENK3$_0clINS0_27ScatterDimensionNumbersAttrEEEDaT_
FN:332,_ZZNK4mlir9stablehlo12_GLOBAL__N_126StablehloBytecodeInterface14writeAttributeENS_9AttributeERNS_21DialectBytecodeWriterEENK3$_0clINS0_13TransposeAttrEEEDaT_
FNDA:48,_ZZNK4mlir9stablehlo12_GLOBAL__N_126StablehloBytecodeInterface14writeAttributeENS_9AttributeERNS_21DialectBytecodeWriterEENK3$_0clINS0_13TransposeAttrEEEDaT_
FN:332,_ZZNK4mlir9stablehlo12_GLOBAL__N_126StablehloBytecodeInterface14writeAttributeENS_9AttributeERNS_21DialectBytecodeWriterEENK3$_0clINS0_18TypeExtensionsAttrEEEDaT_
FNDA:48,_ZZNK4mlir9stablehlo12_GLOBAL__N_126StablehloBytecodeInterface14writeAttributeENS_9AttributeERNS_21DialectBytecodeWriterEENK3$_0clINS0_18TypeExtensionsAttrEEEDaT_
FN:337,_ZZNK4mlir9stablehlo12_GLOBAL__N_126StablehloBytecodeInterface14writeAttributeENS_9AttributeERNS_21DialectBytecodeWriterEENK3$_1clES3_
FNDA:0,_ZZNK4mlir9stablehlo12_GLOBAL__N_126StablehloBytecodeInterface14writeAttributeENS_9AttributeERNS_21DialectBytecodeWriterEENK3$_1clES3_
FN:346,_ZNK4mlir9stablehlo12_GLOBAL__N_126StablehloBytecodeInterface22readArgResultAliasAttrERNS_21DialectBytecodeReaderE
FNDA:16,_ZNK4mlir9stablehlo12_GLOBAL__N_126StablehloBytecodeInterface22readArgResultAliasAttrERNS_21DialectBytecodeReaderE
FN:366,_ZNK4mlir9stablehlo12_GLOBAL__N_126StablehloBytecodeInterface5writeENS0_18ArgResultAliasAttrERNS_21DialectBytecodeWriterE
FNDA:48,_ZNK4mlir9stablehlo12_GLOBAL__N_126StablehloBytecodeInterface5writeENS0_18ArgResultAliasAttrERNS_21DialectBytecodeWriterE
FN:378,_ZNK4mlir9stablehlo12_GLOBAL__N_126StablehloBytecodeInterface21readChannelHandleAttrERNS_21DialectBytecodeReaderE
FNDA:112,_ZNK4mlir9stablehlo12_GLOBAL__N_126StablehloBytecodeInterface21readChannelHandleAttrERNS_21DialectBytecodeReaderE
FN:389,_ZNK4mlir9stablehlo12_GLOBAL__N_126StablehloBytecodeInterface5writeENS0_17ChannelHandleAttrERNS_21DialectBytecodeWriterE
FNDA:336,_ZNK4mlir9stablehlo12_GLOBAL__N_126StablehloBytecodeInterface5writeENS0_17ChannelHandleAttrERNS_21DialectBytecodeWriterE
FN:399,_ZNK4mlir9stablehlo12_GLOBAL__N_126StablehloBytecodeInterface27readComparisonDirectionAttrERNS_21DialectBytecodeReaderE
FNDA:32,_ZNK4mlir9stablehlo12_GLOBAL__N_126StablehloBytecodeInterface27readComparisonDirectionAttrERNS_21DialectBytecodeReaderE
FN:404,_ZZNK4mlir9stablehlo12_GLOBAL__N_126StablehloBytecodeInterface27readComparisonDirectionAttrERNS_21DialectBytecodeReaderEENK3$_2clEj
FNDA:32,_ZZNK4mlir9stablehlo12_GLOBAL__N_126StablehloBytecodeInterface27readComparisonDirectionAttrERNS_21DialectBytecodeReaderEENK3$_2clEj
FN:407,_ZNK4mlir9stablehlo12_GLOBAL__N_126StablehloBytecodeInterface5writeENS0_23ComparisonDirectionAttrERNS_21DialectBytecodeWriterE
FNDA:96,_ZNK4mlir9stablehlo12_GLOBAL__N_126StablehloBytecodeInterface5writeENS0_23ComparisonDirectionAttrERNS_21DialectBytecodeWriterE
FN:416,_ZNK4mlir9stablehlo12_GLOBAL__N_126StablehloBytecodeInterface22readComparisonTypeAttrERNS_21DialectBytecodeReaderE
FNDA:32,_ZNK4mlir9stablehlo12_GLOBAL__N_126StablehloBytecodeInterface22readComparisonTypeAttrERNS_21DialectBytecodeReaderE
FN:421,_ZZNK4mlir9stablehlo12_GLOBAL__N_126StablehloBytecodeInterface22readComparisonTypeAttrERNS_21DialectBytecodeReaderEENK3$_3clEj
FNDA:32,_ZZNK4mlir9stablehlo12_GLOBAL__N_126StablehloBytecodeInterface22readComparisonTypeAttrERNS_21DialectBytecodeReaderEENK3$_3clEj
FN:424,_ZNK4mlir9stablehlo12_GLOBAL__N_126StablehloBytecodeInterface5writeENS0_18ComparisonTypeAttrERNS_21DialectBytecodeWriterE
FNDA:96,_ZNK4mlir9stablehlo12_GLOBAL__N_126StablehloBytecodeInterface5writeENS0_18ComparisonTypeAttrERNS_21DialectBytecodeWriterE
FN:434,_ZNK4mlir9stablehlo12_GLOBAL__N_126StablehloBytecodeInterface28readConvDimensionNumbersAttrERNS_21DialectBytecodeReaderE
FNDA:16,_ZNK4mlir9stablehlo12_GLOBAL__N_126StablehloBytecodeInterface28readConvDimensionNumbersAttrERNS_21DialectBytecodeReaderE
FN:464,_ZNK4mlir9stablehlo12_GLOBAL__N_126StablehloBytecodeInterface5writeENS0_24ConvDimensionNumbersAttrERNS_21DialectBytecodeWriterE
FNDA:48,_ZNK4mlir9stablehlo12_GLOBAL__N_126StablehloBytecodeInterface5writeENS0_24ConvDimensionNumbersAttrERNS_21DialectBytecodeWriterE
FN:481,_ZNK4mlir9stablehlo12_GLOBAL__N_126StablehloBytecodeInterface27readDotDimensionNumbersAttrERNS_21DialectBytecodeReaderE
FNDA:16,_ZNK4mlir9stablehlo12_GLOBAL__N_126StablehloBytecodeInterface27readDotDimensionNumbersAttrERNS_21DialectBytecodeReaderE
FN:498,_ZNK4mlir9stablehlo12_GLOBAL__N_126StablehloBytecodeInterface5writeENS0_23DotDimensionNumbersAttrERNS_21DialectBytecodeWriterE
FNDA:48,_ZNK4mlir9stablehlo12_GLOBAL__N_126StablehloBytecodeInterface5writeENS0_23DotDimensionNumbersAttrERNS_21DialectBytecodeWriterE
FN:510,_ZNK4mlir9stablehlo12_GLOBAL__N_126StablehloBytecodeInterface15readFftTypeAttrERNS_21DialectBytecodeReaderE
FNDA:16,_ZNK4mlir9stablehlo12_GLOBAL__N_126StablehloBytecodeInterface15readFftTypeAttrERNS_21DialectBytecodeReaderE
FN:514,_ZZNK4mlir9stablehlo12_GLOBAL__N_126StablehloBytecodeInterface15readFftTypeAttrERNS_21DialectBytecodeReaderEENK3$_4clEj
FNDA:16,_ZZNK4mlir9stablehlo12_GLOBAL__N_126StablehloBytecodeInterface15readFftTypeAttrERNS_21DialectBytecodeReaderEENK3$_4clEj
FN:516,_ZNK4mlir9stablehlo12_GLOBAL__N_126StablehloBytecodeInterface5writeENS0_11FftTypeAttrERNS_21DialectBytecodeWriterE
FNDA:48,_ZNK4mlir9stablehlo12_GLOBAL__N_126StablehloBytecodeInterface5writeENS0_11FftTypeAttrERNS_21DialectBytecodeWriterE
FN:526,_ZNK4mlir9stablehlo12_GLOBAL__N_126StablehloBytecodeInterface30readGatherDimensionNumbersAttrERNS_21DialectBytecodeReaderE
FNDA:16,_ZNK4mlir9stablehlo12_GLOBAL__N_126StablehloBytecodeInterface30readGatherDimensionNumbersAttrERNS_21DialectBytecodeReaderE
FN:543,_ZNK4mlir9stablehlo12_GLOBAL__N_126StablehloBytecodeInterface5writeENS0_26GatherDimensionNumbersAttrERNS_21DialectBytecodeWriterE
FNDA:48,_ZNK4mlir9stablehlo12_GLOBAL__N_126StablehloBytecodeInterface5writeENS0_26GatherDimensionNumbersAttrERNS_21DialectBytecodeWriterE
FN:555,_ZNK4mlir9stablehlo12_GLOBAL__N_126StablehloBytecodeInterface26readOutputOperandAliasAttrERNS_21DialectBytecodeReaderE
FNDA:16,_ZNK4mlir9stablehlo12_GLOBAL__N_126StablehloBytecodeInterface26readOutputOperandAliasAttrERNS_21DialectBytecodeReaderE
FN:570,_ZNK4mlir9stablehlo12_GLOBAL__N_126StablehloBytecodeInterface5writeENS0_22OutputOperandAliasAttrERNS_21DialectBytecodeWriterE
FNDA:48,_ZNK4mlir9stablehlo12_GLOBAL__N_126StablehloBytecodeInterface5writeENS0_22OutputOperandAliasAttrERNS_21DialectBytecodeWriterE
FN:581,_ZNK4mlir9stablehlo12_GLOBAL__N_126StablehloBytecodeInterface17readPrecisionAttrERNS_21DialectBytecodeReaderE
FNDA:16,_ZNK4mlir9stablehlo12_GLOBAL__N_126StablehloBytecodeInterface17readPrecisionAttrERNS_21DialectBytecodeReaderE
FN:586,_ZZNK4mlir9stablehlo12_GLOBAL__N_126StablehloBytecodeInterface17readPrecisionAttrERNS_21DialectBytecodeReaderEENK3$_5clEj
FNDA:16,_ZZNK4mlir9stablehlo12_GLOBAL__N_126StablehloBytecodeInterface17readPrecisionAttrERNS_21DialectBytecodeReaderEENK3$_5clEj
FN:589,_ZNK4mlir9stablehlo12_GLOBAL__N_126StablehloBytecodeInterface5writeENS0_13PrecisionAttrERNS_21DialectBytecodeWriterE
FNDA:48,_ZNK4mlir9stablehlo12_GLOBAL__N_126StablehloBytecodeInterface5writeENS0_13PrecisionAttrERNS_21DialectBytecodeWriterE
FN:598,_ZNK4mlir9stablehlo12_GLOBAL__N_126StablehloBytecodeInterface20readRngAlgorithmAttrERNS_21DialectBytecodeReaderE
FNDA:16,_ZNK4mlir9stablehlo12_GLOBAL__N_126StablehloBytecodeInterface20readRngAlgorithmAttrERNS_21DialectBytecodeReaderE
FN:603,_ZZNK4mlir9stablehlo12_GLOBAL__N_126StablehloBytecodeInterface20readRngAlgorithmAttrERNS_21DialectBytecodeReaderEENK3$_6clEj
FNDA:16,_ZZNK4mlir9stablehlo12_GLOBAL__N_126StablehloBytecodeInterface20readRngAlgorithmAttrERNS_21DialectBytecodeReaderEENK3$_6clEj
FN:606,_ZNK4mlir9stablehlo12_GLOBAL__N_126StablehloBytecodeInterface5writeENS0_16RngAlgorithmAttrERNS_21DialectBytecodeWriterE
FNDA:48,_ZNK4mlir9stablehlo12_GLOBAL__N_126StablehloBytecodeInterface5writeENS0_16RngAlgorithmAttrERNS_21DialectBytecodeWriterE
FN:615,_ZNK4mlir9stablehlo12_GLOBAL__N_126StablehloBytecodeInterface23readRngDistributionAttrERNS_21DialectBytecodeReaderE
FNDA:32,_ZNK4mlir9stablehlo12_GLOBAL__N_126StablehloBytecodeInterface23readRngDistributionAttrERNS_21DialectBytecodeReaderE
FN:620,_ZZNK4mlir9stablehlo12_GLOBAL__N_126StablehloBytecodeInterface23readRngDistributionAttrERNS_21DialectBytecodeReaderEENK3$_7clEj
FNDA:32,_ZZNK4mlir9stablehlo12_GLOBAL__N_126StablehloBytecodeInterface23readRngDistributionAttrERNS_21DialectBytecodeReaderEENK3$_7clEj
FN:623,_ZNK4mlir9stablehlo12_GLOBAL__N_126StablehloBytecodeInterface5writeENS0_19RngDistributionAttrERNS_21DialectBytecodeWriterE
FNDA:96,_ZNK4mlir9stablehlo12_GLOBAL__N_126StablehloBytecodeInterface5writeENS0_19RngDistributionAttrERNS_21DialectBytecodeWriterE
FN:633,_ZNK4mlir9stablehlo12_GLOBAL__N_126StablehloBytecodeInterface31readScatterDimensionNumbersAttrERNS_21DialectBytecodeReaderE
FNDA:16,_ZNK4mlir9stablehlo12_GLOBAL__N_126StablehloBytecodeInterface31readScatterDimensionNumbersAttrERNS_21DialectBytecodeReaderE
FN:651,_ZNK4mlir9stablehlo12_GLOBAL__N_126StablehloBytecodeInterface5writeENS0_27ScatterDimensionNumbersAttrERNS_21DialectBytecodeWriterE
FNDA:48,_ZNK4mlir9stablehlo12_GLOBAL__N_126StablehloBytecodeInterface5writeENS0_27ScatterDimensionNumbersAttrERNS_21DialectBytecodeWriterE
FN:663,_ZNK4mlir9stablehlo12_GLOBAL__N_126StablehloBytecodeInterface17readTransposeAttrERNS_21DialectBytecodeReaderE
FNDA:16,_ZNK4mlir9stablehlo12_GLOBAL__N_126StablehloBytecodeInterface17readTransposeAttrERNS_21DialectBytecodeReaderE
FN:668,_ZZNK4mlir9stablehlo12_GLOBAL__N_126StablehloBytecodeInterface17readTransposeAttrERNS_21DialectBytecodeReaderEENK3$_8clEj
FNDA:16,_ZZNK4mlir9stablehlo12_GLOBAL__N_126StablehloBytecodeInterface17readTransposeAttrERNS_21DialectBytecodeReaderEENK3$_8clEj
FN:671,_ZNK4mlir9stablehlo12_GLOBAL__N_126StablehloBytecodeInterface5writeENS0_13TransposeAttrERNS_21DialectBytecodeWriterE
FNDA:48,_ZNK4mlir9stablehlo12_GLOBAL__N_126StablehloBytecodeInterface5writeENS0_13TransposeAttrERNS_21DialectBytecodeWriterE
FN:680,_ZNK4mlir9stablehlo12_GLOBAL__N_126StablehloBytecodeInterface22readTypeExtensionsAttrERNS_21DialectBytecodeReaderE
FNDA:16,_ZNK4mlir9stablehlo12_GLOBAL__N_126StablehloBytecodeInterface22readTypeExtensionsAttrERNS_21DialectBytecodeReaderE
FN:688,_ZNK4mlir9stablehlo12_GLOBAL__N_126StablehloBytecodeInterface5writeENS0_18TypeExtensionsAttrERNS_21DialectBytecodeWriterE
FNDA:48,_ZNK4mlir9stablehlo12_GLOBAL__N_126StablehloBytecodeInterface5writeENS0_18TypeExtensionsAttrERNS_21DialectBytecodeWriterE
FN:699,_ZNK4mlir9stablehlo12_GLOBAL__N_126StablehloBytecodeInterface8readTypeERNS_21DialectBytecodeReaderE
FNDA:16,_ZNK4mlir9stablehlo12_GLOBAL__N_126StablehloBytecodeInterface8readTypeERNS_21DialectBytecodeReaderE
FN:713,_ZNK4mlir9stablehlo12_GLOBAL__N_126StablehloBytecodeInterface9writeTypeENS_4TypeERNS_21DialectBytecodeWriterE
FNDA:48,_ZNK4mlir9stablehlo12_GLOBAL__N_126StablehloBytecodeInterface9writeTypeENS_4TypeERNS_21DialectBytecodeWriterE
FN:716,_ZZNK4mlir9stablehlo12_GLOBAL__N_126StablehloBytecodeInterface9writeTypeENS_4TypeERNS_21DialectBytecodeWriterEENK3$_9clINS0_9TokenTypeEEEDaT_
FNDA:48,_ZZNK4mlir9stablehlo12_GLOBAL__N_126StablehloBytecodeInterface9writeTypeENS_4TypeERNS_21DialectBytecodeWriterEENK3$_9clINS0_9TokenTypeEEEDaT_
FN:721,_ZZNK4mlir9stablehlo12_GLOBAL__N_126StablehloBytecodeInterface9writeTypeENS_4TypeERNS_21DialectBytecodeWriterEENK4$_10clES3_
FNDA:0,_ZZNK4mlir9stablehlo12_GLOBAL__N_126StablehloBytecodeInterface9writeTypeENS_4TypeERNS_21DialectBytecodeWriterEENK4$_10clES3_
FN:730,_ZNK4mlir9stablehlo12_GLOBAL__N_126StablehloBytecodeInterface13readTokenTypeERNS_21DialectBytecodeReaderE
FNDA:16,_ZNK4mlir9stablehlo12_GLOBAL__N_126StablehloBytecodeInterface13readTokenTypeERNS_21DialectBytecodeReaderE
FN:736,_ZNK4mlir9stablehlo12_GLOBAL__N_126StablehloBytecodeInterface5writeENS0_9TokenTypeERNS_21DialectBytecodeWriterE
FNDA:48,_ZNK4mlir9stablehlo12_GLOBAL__N_126StablehloBytecodeInterface5writeENS0_9TokenTypeERNS_21DialectBytecodeWriterE
FN:743,_ZN4mlir9stablehlo20addBytecodeInterfaceEPNS0_16StablehloDialectE
FNDA:9408,_ZN4mlir9stablehlo20addBytecodeInterfaceEPNS0_16StablehloDialectE
DA:196,9408
DA:197,9408
DA:280,384
DA:281,384
DA:282,384
DA:283,384
DA:284,384
DA:286,128
DA:288,144
DA:290,64
DA:292,48
DA:294,32
DA:296,32
DA:298,32
DA:300,32
DA:302,32
DA:304,32
DA:306,48
DA:308,48
DA:310,32
DA:312,32
DA:314,16
DA:316,0
DA:317,0
DA:319,384
DA:324,1152
DA:325,1152
DA:326,2304
DA:327,1152
DA:332,2304
DA:333,1152
DA:334,1152
DA:335,1152
DA:337,1152
DA:338,0
DA:339,0
DA:346,16
DA:347,16
DA:348,16
DA:350,16
DA:351,16
DA:352,16
DA:353,16
DA:355,48
DA:356,16
DA:357,16
DA:358,16
DA:359,0
DA:361,32
DA:362,16
DA:363,16
DA:364,16
DA:366,48
DA:367,48
DA:368,48
DA:369,48
DA:370,48
DA:371,48
DA:372,48
DA:373,48
DA:378,112
DA:379,112
DA:380,112
DA:381,112
DA:382,112
DA:383,112
DA:384,0
DA:386,112
DA:387,112
DA:389,336
DA:390,336
DA:391,336
DA:392,336
DA:393,336
DA:394,336
DA:399,32
DA:400,32
DA:401,32
DA:402,32
DA:403,32
DA:404,32
DA:407,96
DA:408,96
DA:409,96
DA:410,96
DA:411,96
DA:416,32
DA:417,32
DA:418,32
DA:419,32
DA:420,32
DA:421,32
DA:424,96
DA:425,96
DA:426,96
DA:427,96
DA:428,96
DA:434,16
DA:435,16
DA:436,16
DA:437,16
DA:438,16
DA:440,16
DA:441,16
DA:443,16
DA:444,16
DA:446,48
DA:447,16
DA:448,16
DA:449,16
DA:450,16
DA:451,16
DA:452,16
DA:453,16
DA:454,16
DA:455,0
DA:457,16
DA:458,16
DA:459,16
DA:460,16
DA:461,16
DA:462,16
DA:464,48
DA:465,48
DA:466,48
DA:467,48
DA:468,48
DA:469,48
DA:470,48
DA:471,48
DA:472,48
DA:473,48
DA:474,48
DA:475,48
DA:476,48
DA:481,16
DA:482,16
DA:483,16
DA:484,32
DA:485,32
DA:487,48
DA:488,16
DA:489,16
DA:490,16
DA:491,0
DA:493,16
DA:494,16
DA:495,16
DA:496,16
DA:498,48
DA:499,48
DA:500,48
DA:501,48
DA:502,48
DA:503,48
DA:504,48
DA:505,48
DA:510,16
DA:511,16
DA:512,16
DA:513,16
DA:514,32
DA:516,48
DA:517,48
DA:518,48
DA:519,48
DA:520,48
DA:526,16
DA:527,16
DA:528,16
DA:529,16
DA:530,16
DA:532,48
DA:533,16
DA:534,16
DA:535,16
DA:536,0
DA:538,32
DA:539,16
DA:540,16
DA:541,16
DA:543,48
DA:544,48
DA:545,48
DA:546,48
DA:547,48
DA:548,48
DA:549,48
DA:550,48
DA:555,16
DA:556,16
DA:557,16
DA:558,16
DA:559,16
DA:561,48
DA:562,16
DA:563,16
DA:564,0
DA:566,32
DA:567,16
DA:568,16
DA:570,48
DA:571,48
DA:572,48
DA:573,48
DA:574,48
DA:575,48
DA:576,48
DA:581,16
DA:582,16
DA:583,16
DA:584,16
DA:585,16
DA:586,16
DA:589,48
DA:590,48
DA:591,48
DA:592,48
DA:593,48
DA:598,16
DA:599,16
DA:600,16
DA:601,16
DA:602,16
DA:603,16
DA:606,48
DA:607,48
DA:608,48
DA:609,48
DA:610,48
DA:615,32
DA:616,32
DA:617,32
DA:618,32
DA:619,32
DA:620,32
DA:623,96
DA:624,96
DA:625,96
DA:626,96
DA:627,96
DA:633,16
DA:634,16
DA:635,16
DA:636,16
DA:637,16
DA:638,16
DA:640,48
DA:641,16
DA:642,16
DA:643,16
DA:644,0
DA:646,16
DA:647,16
DA:648,16
DA:649,16
DA:651,48
DA:652,48
DA:653,48
DA:654,48
DA:655,48
DA:656,48
DA:657,48
DA:658,48
DA:663,16
DA:664,16
DA:665,16
DA:666,16
DA:667,16
DA:668,16
DA:671,48
DA:672,48
DA:673,48
DA:674,48
DA:675,48
DA:680,16
DA:681,16
DA:682,16
DA:683,16
DA:684,16
DA:685,16
DA:686,16
DA:688,48
DA:689,48
DA:690,48
DA:691,48
DA:692,48
DA:699,16
DA:700,16
DA:701,16
DA:703,16
DA:705,16
DA:708,0
DA:709,0
DA:711,16
DA:713,48
DA:714,48
DA:715,96
DA:716,96
DA:717,48
DA:718,48
DA:719,48
DA:721,48
DA:722,0
DA:723,0
DA:730,16
DA:731,16
DA:732,16
DA:733,16
DA:736,48
DA:737,48
DA:738,48
DA:739,48
DA:743,9408
DA:744,9408
DA:745,9408
end_of_record
SF:/usr/local/google/home/gleasonk/Coding/openxla/stablehlo/stablehlo/dialect/Base.h
FN:166,_ZN4mlir3hlo8bytecode17readEnumAttributeINS_9stablehlo23ComparisonDirectionAttrEZNKS3_12_GLOBAL__N_126StablehloBytecodeInterface27readComparisonDirectionAttrERNS_21DialectBytecodeReaderEE3$_2EET_S8_PNS_11MLIRContextET0_
FNDA:32,_ZN4mlir3hlo8bytecode17readEnumAttributeINS_9stablehlo23ComparisonDirectionAttrEZNKS3_12_GLOBAL__N_126StablehloBytecodeInterface27readComparisonDirectionAttrERNS_21DialectBytecodeReaderEE3$_2EET_S8_PNS_11MLIRContextET0_
FN:166,_ZN4mlir3hlo8bytecode17readEnumAttributeINS_9stablehlo18ComparisonTypeAttrEZNKS3_12_GLOBAL__N_126StablehloBytecodeInterface22readComparisonTypeAttrERNS_21DialectBytecodeReaderEE3$_3EET_S8_PNS_11MLIRContextET0_
FNDA:32,_ZN4mlir3hlo8bytecode17readEnumAttributeINS_9stablehlo18ComparisonTypeAttrEZNKS3_12_GLOBAL__N_126StablehloBytecodeInterface22readComparisonTypeAttrERNS_21DialectBytecodeReaderEE3$_3EET_S8_PNS_11MLIRContextET0_
FN:166,_ZN4mlir3hlo8bytecode17readEnumAttributeINS_9stablehlo11FftTypeAttrEZNKS3_12_GLOBAL__N_126StablehloBytecodeInterface15readFftTypeAttrERNS_21DialectBytecodeReaderEE3$_4EET_S8_PNS_11MLIRContextET0_
FNDA:16,_ZN4mlir3hlo8bytecode17readEnumAttributeINS_9stablehlo11FftTypeAttrEZNKS3_12_GLOBAL__N_126StablehloBytecodeInterface15readFftTypeAttrERNS_21DialectBytecodeReaderEE3$_4EET_S8_PNS_11MLIRContextET0_
FN:166,_ZN4mlir3hlo8bytecode17readEnumAttributeINS_9stablehlo13PrecisionAttrEZNKS3_12_GLOBAL__N_126StablehloBytecodeInterface17readPrecisionAttrERNS_21DialectBytecodeReaderEE3$_5EET_S8_PNS_11MLIRContextET0_
FNDA:16,_ZN4mlir3hlo8bytecode17readEnumAttributeINS_9stablehlo13PrecisionAttrEZNKS3_12_GLOBAL__N_126StablehloBytecodeInterface17readPrecisionAttrERNS_21DialectBytecodeReaderEE3$_5EET_S8_PNS_11MLIRContextET0_
FN:166,_ZN4mlir3hlo8bytecode17readEnumAttributeINS_9stablehlo16RngAlgorithmAttrEZNKS3_12_GLOBAL__N_126StablehloBytecodeInterface20readRngAlgorithmAttrERNS_21DialectBytecodeReaderEE3$_6EET_S8_PNS_11MLIRContextET0_
FNDA:16,_ZN4mlir3hlo8bytecode17readEnumAttributeINS_9stablehlo16RngAlgorithmAttrEZNKS3_12_GLOBAL__N_126StablehloBytecodeInterface20readRngAlgorithmAttrERNS_21DialectBytecodeReaderEE3$_6EET_S8_PNS_11MLIRContextET0_
FN:166,_ZN4mlir3hlo8bytecode17readEnumAttributeINS_9stablehlo19RngDistributionAttrEZNKS3_12_GLOBAL__N_126StablehloBytecodeInterface23readRngDistributionAttrERNS_21DialectBytecodeReaderEE3$_7EET_S8_PNS_11MLIRContextET0_
FNDA:32,_ZN4mlir3hlo8bytecode17readEnumAttributeINS_9stablehlo19RngDistributionAttrEZNKS3_12_GLOBAL__N_126StablehloBytecodeInterface23readRngDistributionAttrERNS_21DialectBytecodeReaderEE3$_7EET_S8_PNS_11MLIRContextET0_
FN:166,_ZN4mlir3hlo8bytecode17readEnumAttributeINS_9stablehlo13TransposeAttrEZNKS3_12_GLOBAL__N_126StablehloBytecodeInterface17readTransposeAttrERNS_21DialectBytecodeReaderEE3$_8EET_S8_PNS_11MLIRContextET0_
FNDA:16,_ZN4mlir3hlo8bytecode17readEnumAttributeINS_9stablehlo13TransposeAttrEZNKS3_12_GLOBAL__N_126StablehloBytecodeInterface17readTransposeAttrERNS_21DialectBytecodeReaderEE3$_8EET_S8_PNS_11MLIRContextET0_
FN:178,_ZN4mlir3hlo8bytecode18writeEnumAttributeINS_9stablehlo19ComparisonDirectionENS3_23ComparisonDirectionAttrEEEvT0_RNS_21DialectBytecodeWriterE
FNDA:96,_ZN4mlir3hlo8bytecode18writeEnumAttributeINS_9stablehlo19ComparisonDirectionENS3_23ComparisonDirectionAttrEEEvT0_RNS_21DialectBytecodeWriterE
FN:178,_ZN4mlir3hlo8bytecode18writeEnumAttributeINS_9stablehlo14ComparisonTypeENS3_18ComparisonTypeAttrEEEvT0_RNS_21DialectBytecodeWriterE
FNDA:96,_ZN4mlir3hlo8bytecode18writeEnumAttributeINS_9stablehlo14ComparisonTypeENS3_18ComparisonTypeAttrEEEvT0_RNS_21DialectBytecodeWriterE
FN:178,_ZN4mlir3hlo8bytecode18writeEnumAttributeINS_9stablehlo7FftTypeENS3_11FftTypeAttrEEEvT0_RNS_21DialectBytecodeWriterE
FNDA:48,_ZN4mlir3hlo8bytecode18writeEnumAttributeINS_9stablehlo7FftTypeENS3_11FftTypeAttrEEEvT0_RNS_21DialectBytecodeWriterE
FN:178,_ZN4mlir3hlo8bytecode18writeEnumAttributeINS_9stablehlo9PrecisionENS3_13PrecisionAttrEEEvT0_RNS_21DialectBytecodeWriterE
FNDA:48,_ZN4mlir3hlo8bytecode18writeEnumAttributeINS_9stablehlo9PrecisionENS3_13PrecisionAttrEEEvT0_RNS_21DialectBytecodeWriterE
FN:178,_ZN4mlir3hlo8bytecode18writeEnumAttributeINS_9stablehlo12RngAlgorithmENS3_16RngAlgorithmAttrEEEvT0_RNS_21DialectBytecodeWriterE
FNDA:48,_ZN4mlir3hlo8bytecode18writeEnumAttributeINS_9stablehlo12RngAlgorithmENS3_16RngAlgorithmAttrEEEvT0_RNS_21DialectBytecodeWriterE
FN:178,_ZN4mlir3hlo8bytecode18writeEnumAttributeINS_9stablehlo15RngDistributionENS3_19RngDistributionAttrEEEvT0_RNS_21DialectBytecodeWriterE
FNDA:96,_ZN4mlir3hlo8bytecode18writeEnumAttributeINS_9stablehlo15RngDistributionENS3_19RngDistributionAttrEEEvT0_RNS_21DialectBytecodeWriterE
FN:178,_ZN4mlir3hlo8bytecode18writeEnumAttributeINS_9stablehlo9TransposeENS3_13TransposeAttrEEEvT0_RNS_21DialectBytecodeWriterE
FNDA:48,_ZN4mlir3hlo8bytecode18writeEnumAttributeINS_9stablehlo9TransposeENS3_13TransposeAttrEEEvT0_RNS_21DialectBytecodeWriterE
DA:166,160
DA:167,160
DA:168,160
DA:169,160
DA:171,160
DA:172,160
DA:174,160
DA:175,160
DA:178,480
DA:184,960
DA:185,480
DA:186,480
DA:187,480
end_of_record
TN:
SF:/usr/local/google/home/gleasonk/Coding/openxla/stablehlo/stablehlo/dialect/Base.h
FN:143,_ZN4mlir3hlo19HloDialectInterfaceD0Ev
FNDA:0,_ZN4mlir3hlo19HloDialectInterfaceD0Ev
FN:145,_ZN4mlir3hlo19HloDialectInterfaceC2EPNS_7DialectE
FNDA:9408,_ZN4mlir3hlo19HloDialectInterfaceC2EPNS_7DialectE
FN:201,_ZN4mlir3hlo7OpTrait32PairwiseSameOperandAndResultTypeINS_9stablehlo21OptimizationBarrierOpEE11verifyTraitEPNS_9OperationE
FNDA:312,_ZN4mlir3hlo7OpTrait32PairwiseSameOperandAndResultTypeINS_9stablehlo21OptimizationBarrierOpEE11verifyTraitEPNS_9OperationE
FN:225,_ZN4mlir3hlo7OpTrait31CompatibleOperandsAndResultTypeINS_9stablehlo5AddOpEE11verifyTraitEPNS_9OperationE
FNDA:5457,_ZN4mlir3hlo7OpTrait31CompatibleOperandsAndResultTypeINS_9stablehlo5AddOpEE11verifyTraitEPNS_9OperationE
FN:225,_ZN4mlir3hlo7OpTrait31CompatibleOperandsAndResultTypeINS_9stablehlo11AllReduceOpEE11verifyTraitEPNS_9OperationE
FNDA:504,_ZN4mlir3hlo7OpTrait31CompatibleOperandsAndResultTypeINS_9stablehlo11AllReduceOpEE11verifyTraitEPNS_9OperationE
FN:225,_ZN4mlir3hlo7OpTrait31CompatibleOperandsAndResultTypeINS_9stablehlo5AndOpEE11verifyTraitEPNS_9OperationE
FNDA:408,_ZN4mlir3hlo7OpTrait31CompatibleOperandsAndResultTypeINS_9stablehlo5AndOpEE11verifyTraitEPNS_9OperationE
FN:225,_ZN4mlir3hlo7OpTrait31CompatibleOperandsAndResultTypeINS_9stablehlo7Atan2OpEE11verifyTraitEPNS_9OperationE
FNDA:112,_ZN4mlir3hlo7OpTrait31CompatibleOperandsAndResultTypeINS_9stablehlo7Atan2OpEE11verifyTraitEPNS_9OperationE
FN:225,_ZN4mlir3hlo7OpTrait31CompatibleOperandsAndResultTypeINS_9stablehlo6CbrtOpEE11verifyTraitEPNS_9OperationE
FNDA:184,_ZN4mlir3hlo7OpTrait31CompatibleOperandsAndResultTypeINS_9stablehlo6CbrtOpEE11verifyTraitEPNS_9OperationE
FN:225,_ZN4mlir3hlo7OpTrait31CompatibleOperandsAndResultTypeINS_9stablehlo6CeilOpEE11verifyTraitEPNS_9OperationE
FNDA:192,_ZN4mlir3hlo7OpTrait31CompatibleOperandsAndResultTypeINS_9stablehlo6CeilOpEE11verifyTraitEPNS_9OperationE
FN:225,_ZN4mlir3hlo7OpTrait31CompatibleOperandsAndResultTypeINS_9stablehlo5ClzOpEE11verifyTraitEPNS_9OperationE
FNDA:112,_ZN4mlir3hlo7OpTrait31CompatibleOperandsAndResultTypeINS_9stablehlo5ClzOpEE11verifyTraitEPNS_9OperationE
FN:225,_ZN4mlir3hlo7OpTrait31CompatibleOperandsAndResultTypeINS_9stablehlo19CollectivePermuteOpEE11verifyTraitEPNS_9OperationE
FNDA:343,_ZN4mlir3hlo7OpTrait31CompatibleOperandsAndResultTypeINS_9stablehlo19CollectivePermuteOpEE11verifyTraitEPNS_9OperationE
FN:225,_ZN4mlir3hlo7OpTrait31CompatibleOperandsAndResultTypeINS_9stablehlo8CosineOpEE11verifyTraitEPNS_9OperationE
FNDA:208,_ZN4mlir3hlo7OpTrait31CompatibleOperandsAndResultTypeINS_9stablehlo8CosineOpEE11verifyTraitEPNS_9OperationE
FN:225,_ZN4mlir3hlo7OpTrait31CompatibleOperandsAndResultTypeINS_9stablehlo17CrossReplicaSumOpEE11verifyTraitEPNS_9OperationE
FNDA:168,_ZN4mlir3hlo7OpTrait31CompatibleOperandsAndResultTypeINS_9stablehlo17CrossReplicaSumOpEE11verifyTraitEPNS_9OperationE
FN:225,_ZN4mlir3hlo7OpTrait31CompatibleOperandsAndResultTypeINS_9stablehlo5DivOpEE11verifyTraitEPNS_9OperationE
FNDA:200,_ZN4mlir3hlo7OpTrait31CompatibleOperandsAndResultTypeINS_9stablehlo5DivOpEE11verifyTraitEPNS_9OperationE
FN:225,_ZN4mlir3hlo7OpTrait31CompatibleOperandsAndResultTypeINS_9stablehlo5ExpOpEE11verifyTraitEPNS_9OperationE
FNDA:112,_ZN4mlir3hlo7OpTrait31CompatibleOperandsAndResultTypeINS_9stablehlo5ExpOpEE11verifyTraitEPNS_9OperationE
FN:225,_ZN4mlir3hlo7OpTrait31CompatibleOperandsAndResultTypeINS_9stablehlo7Expm1OpEE11verifyTraitEPNS_9OperationE
FNDA:232,_ZN4mlir3hlo7OpTrait31CompatibleOperandsAndResultTypeINS_9stablehlo7Expm1OpEE11verifyTraitEPNS_9OperationE
FN:225,_ZN4mlir3hlo7OpTrait31CompatibleOperandsAndResultTypeINS_9stablehlo7FloorOpEE11verifyTraitEPNS_9OperationE
FNDA:200,_ZN4mlir3hlo7OpTrait31CompatibleOperandsAndResultTypeINS_9stablehlo7FloorOpEE11verifyTraitEPNS_9OperationE
FN:225,_ZN4mlir3hlo7OpTrait31CompatibleOperandsAndResultTypeINS_9stablehlo7Log1pOpEE11verifyTraitEPNS_9OperationE
FNDA:232,_ZN4mlir3hlo7OpTrait31CompatibleOperandsAndResultTypeINS_9stablehlo7Log1pOpEE11verifyTraitEPNS_9OperationE
FN:225,_ZN4mlir3hlo7OpTrait31CompatibleOperandsAndResultTypeINS_9stablehlo5LogOpEE11verifyTraitEPNS_9OperationE
FNDA:112,_ZN4mlir3hlo7OpTrait31CompatibleOperandsAndResultTypeINS_9stablehlo5LogOpEE11verifyTraitEPNS_9OperationE
FN:225,_ZN4mlir3hlo7OpTrait31CompatibleOperandsAndResultTypeINS_9stablehlo10LogisticOpEE11verifyTraitEPNS_9OperationE
FNDA:112,_ZN4mlir3hlo7OpTrait31CompatibleOperandsAndResultTypeINS_9stablehlo10LogisticOpEE11verifyTraitEPNS_9OperationE
FN:225,_ZN4mlir3hlo7OpTrait31CompatibleOperandsAndResultTypeINS_9stablehlo5MaxOpEE11verifyTraitEPNS_9OperationE
FNDA:1304,_ZN4mlir3hlo7OpTrait31CompatibleOperandsAndResultTypeINS_9stablehlo5MaxOpEE11verifyTraitEPNS_9OperationE
FN:225,_ZN4mlir3hlo7OpTrait31CompatibleOperandsAndResultTypeINS_9stablehlo5MinOpEE11verifyTraitEPNS_9OperationE
FNDA:384,_ZN4mlir3hlo7OpTrait31CompatibleOperandsAndResultTypeINS_9stablehlo5MinOpEE11verifyTraitEPNS_9OperationE
FN:225,_ZN4mlir3hlo7OpTrait31CompatibleOperandsAndResultTypeINS_9stablehlo5MulOpEE11verifyTraitEPNS_9OperationE
FNDA:512,_ZN4mlir3hlo7OpTrait31CompatibleOperandsAndResultTypeINS_9stablehlo5MulOpEE11verifyTraitEPNS_9OperationE
FN:225,_ZN4mlir3hlo7OpTrait31CompatibleOperandsAndResultTypeINS_9stablehlo5NegOpEE11verifyTraitEPNS_9OperationE
FNDA:392,_ZN4mlir3hlo7OpTrait31CompatibleOperandsAndResultTypeINS_9stablehlo5NegOpEE11verifyTraitEPNS_9OperationE
FN:225,_ZN4mlir3hlo7OpTrait31CompatibleOperandsAndResultTypeINS_9stablehlo5NotOpEE11verifyTraitEPNS_9OperationE
FNDA:528,_ZN4mlir3hlo7OpTrait31CompatibleOperandsAndResultTypeINS_9stablehlo5NotOpEE11verifyTraitEPNS_9OperationE
FN:225,_ZN4mlir3hlo7OpTrait31CompatibleOperandsAndResultTypeINS_9stablehlo4OrOpEE11verifyTraitEPNS_9OperationE
FNDA:336,_ZN4mlir3hlo7OpTrait31CompatibleOperandsAndResultTypeINS_9stablehlo4OrOpEE11verifyTraitEPNS_9OperationE
FN:225,_ZN4mlir3hlo7OpTrait31CompatibleOperandsAndResultTypeINS_9stablehlo17PopulationCountOpEE11verifyTraitEPNS_9OperationE
FNDA:216,_ZN4mlir3hlo7OpTrait31CompatibleOperandsAndResultTypeINS_9stablehlo17PopulationCountOpEE11verifyTraitEPNS_9OperationE
FN:225,_ZN4mlir3hlo7OpTrait31CompatibleOperandsAndResultTypeINS_9stablehlo5PowOpEE11verifyTraitEPNS_9OperationE
FNDA:112,_ZN4mlir3hlo7OpTrait31CompatibleOperandsAndResultTypeINS_9stablehlo5PowOpEE11verifyTraitEPNS_9OperationE
FN:225,_ZN4mlir3hlo7OpTrait31CompatibleOperandsAndResultTypeINS_9stablehlo17ReducePrecisionOpEE11verifyTraitEPNS_9OperationE
FNDA:248,_ZN4mlir3hlo7OpTrait31CompatibleOperandsAndResultTypeINS_9stablehlo17ReducePrecisionOpEE11verifyTraitEPNS_9OperationE
FN:225,_ZN4mlir3hlo7OpTrait31CompatibleOperandsAndResultTypeINS_9stablehlo5RemOpEE11verifyTraitEPNS_9OperationE
FNDA:120,_ZN4mlir3hlo7OpTrait31CompatibleOperandsAndResultTypeINS_9stablehlo5RemOpEE11verifyTraitEPNS_9OperationE
FN:225,_ZN4mlir3hlo7OpTrait31CompatibleOperandsAndResultTypeINS_9stablehlo9ReverseOpEE11verifyTraitEPNS_9OperationE
FNDA:288,_ZN4mlir3hlo7OpTrait31CompatibleOperandsAndResultTypeINS_9stablehlo9ReverseOpEE11verifyTraitEPNS_9OperationE
FN:225,_ZN4mlir3hlo7OpTrait31CompatibleOperandsAndResultTypeINS_9stablehlo18RoundNearestEvenOpEE11verifyTraitEPNS_9OperationE
FNDA:232,_ZN4mlir3hlo7OpTrait31CompatibleOperandsAndResultTypeINS_9stablehlo18RoundNearestEvenOpEE11verifyTraitEPNS_9OperationE
FN:225,_ZN4mlir3hlo7OpTrait31CompatibleOperandsAndResultTypeINS_9stablehlo7RoundOpEE11verifyTraitEPNS_9OperationE
FNDA:112,_ZN4mlir3hlo7OpTrait31CompatibleOperandsAndResultTypeINS_9stablehlo7RoundOpEE11verifyTraitEPNS_9OperationE
FN:225,_ZN4mlir3hlo7OpTrait31CompatibleOperandsAndResultTypeINS_9stablehlo7RsqrtOpEE11verifyTraitEPNS_9OperationE
FNDA:64,_ZN4mlir3hlo7OpTrait31CompatibleOperandsAndResultTypeINS_9stablehlo7RsqrtOpEE11verifyTraitEPNS_9OperationE
FN:225,_ZN4mlir3hlo7OpTrait31CompatibleOperandsAndResultTypeINS_9stablehlo11ShiftLeftOpEE11verifyTraitEPNS_9OperationE
FNDA:216,_ZN4mlir3hlo7OpTrait31CompatibleOperandsAndResultTypeINS_9stablehlo11ShiftLeftOpEE11verifyTraitEPNS_9OperationE
FN:225,_ZN4mlir3hlo7OpTrait31CompatibleOperandsAndResultTypeINS_9stablehlo22ShiftRightArithmeticOpEE11verifyTraitEPNS_9OperationE
FNDA:216,_ZN4mlir3hlo7OpTrait31CompatibleOperandsAndResultTypeINS_9stablehlo22ShiftRightArithmeticOpEE11verifyTraitEPNS_9OperationE
FN:225,_ZN4mlir3hlo7OpTrait31CompatibleOperandsAndResultTypeINS_9stablehlo19ShiftRightLogicalOpEE11verifyTraitEPNS_9OperationE
FNDA:216,_ZN4mlir3hlo7OpTrait31CompatibleOperandsAndResultTypeINS_9stablehlo19ShiftRightLogicalOpEE11verifyTraitEPNS_9OperationE
FN:225,_ZN4mlir3hlo7OpTrait31CompatibleOperandsAndResultTypeINS_9stablehlo6SignOpEE11verifyTraitEPNS_9OperationE
FNDA:128,_ZN4mlir3hlo7OpTrait31CompatibleOperandsAndResultTypeINS_9stablehlo6SignOpEE11verifyTraitEPNS_9OperationE
FN:225,_ZN4mlir3hlo7OpTrait31CompatibleOperandsAndResultTypeINS_9stablehlo6SineOpEE11verifyTraitEPNS_9OperationE
FNDA:224,_ZN4mlir3hlo7OpTrait31CompatibleOperandsAndResultTypeINS_9stablehlo6SineOpEE11verifyTraitEPNS_9OperationE
FN:225,_ZN4mlir3hlo7OpTrait31CompatibleOperandsAndResultTypeINS_9stablehlo6SqrtOpEE11verifyTraitEPNS_9OperationE
FNDA:128,_ZN4mlir3hlo7OpTrait31CompatibleOperandsAndResultTypeINS_9stablehlo6SqrtOpEE11verifyTraitEPNS_9OperationE
FN:225,_ZN4mlir3hlo7OpTrait31CompatibleOperandsAndResultTypeINS_9stablehlo10SubtractOpEE11verifyTraitEPNS_9OperationE
FNDA:392,_ZN4mlir3hlo7OpTrait31CompatibleOperandsAndResultTypeINS_9stablehlo10SubtractOpEE11verifyTraitEPNS_9OperationE
FN:225,_ZN4mlir3hlo7OpTrait31CompatibleOperandsAndResultTypeINS_9stablehlo6TanhOpEE11verifyTraitEPNS_9OperationE
FNDA:248,_ZN4mlir3hlo7OpTrait31CompatibleOperandsAndResultTypeINS_9stablehlo6TanhOpEE11verifyTraitEPNS_9OperationE
FN:225,_ZN4mlir3hlo7OpTrait31CompatibleOperandsAndResultTypeINS_9stablehlo5XorOpEE11verifyTraitEPNS_9OperationE
FNDA:424,_ZN4mlir3hlo7OpTrait31CompatibleOperandsAndResultTypeINS_9stablehlo5XorOpEE11verifyTraitEPNS_9OperationE
FN:231,_ZZN4mlir3hlo7OpTrait31CompatibleOperandsAndResultTypeINS_9stablehlo5AddOpEE11verifyTraitEPNS_9OperationEENKUlNS_4TypeEE_clES8_
FNDA:16244,_ZZN4mlir3hlo7OpTrait31CompatibleOperandsAndResultTypeINS_9stablehlo5AddOpEE11verifyTraitEPNS_9OperationEENKUlNS_4TypeEE_clES8_
FN:231,_ZZN4mlir3hlo7OpTrait31CompatibleOperandsAndResultTypeINS_9stablehlo11AllReduceOpEE11verifyTraitEPNS_9OperationEENKUlNS_4TypeEE_clES8_
FNDA:1007,_ZZN4mlir3hlo7OpTrait31CompatibleOperandsAndResultTypeINS_9stablehlo11AllReduceOpEE11verifyTraitEPNS_9OperationEENKUlNS_4TypeEE_clES8_
FN:231,_ZZN4mlir3hlo7OpTrait31CompatibleOperandsAndResultTypeINS_9stablehlo5AndOpEE11verifyTraitEPNS_9OperationEENKUlNS_4TypeEE_clES8_
FNDA:1224,_ZZN4mlir3hlo7OpTrait31CompatibleOperandsAndResultTypeINS_9stablehlo5AndOpEE11verifyTraitEPNS_9OperationEENKUlNS_4TypeEE_clES8_
FN:231,_ZZN4mlir3hlo7OpTrait31CompatibleOperandsAndResultTypeINS_9stablehlo7Atan2OpEE11verifyTraitEPNS_9OperationEENKUlNS_4TypeEE_clES8_
FNDA:336,_ZZN4mlir3hlo7OpTrait31CompatibleOperandsAndResultTypeINS_9stablehlo7Atan2OpEE11verifyTraitEPNS_9OperationEENKUlNS_4TypeEE_clES8_
FN:231,_ZZN4mlir3hlo7OpTrait31CompatibleOperandsAndResultTypeINS_9stablehlo6CbrtOpEE11verifyTraitEPNS_9OperationEENKUlNS_4TypeEE_clES8_
FNDA:368,_ZZN4mlir3hlo7OpTrait31CompatibleOperandsAndResultTypeINS_9stablehlo6CbrtOpEE11verifyTraitEPNS_9OperationEENKUlNS_4TypeEE_clES8_
FN:231,_ZZN4mlir3hlo7OpTrait31CompatibleOperandsAndResultTypeINS_9stablehlo6CeilOpEE11verifyTraitEPNS_9OperationEENKUlNS_4TypeEE_clES8_
FNDA:384,_ZZN4mlir3hlo7OpTrait31CompatibleOperandsAndResultTypeINS_9stablehlo6CeilOpEE11verifyTraitEPNS_9OperationEENKUlNS_4TypeEE_clES8_
FN:231,_ZZN4mlir3hlo7OpTrait31CompatibleOperandsAndResultTypeINS_9stablehlo5ClzOpEE11verifyTraitEPNS_9OperationEENKUlNS_4TypeEE_clES8_
FNDA:224,_ZZN4mlir3hlo7OpTrait31CompatibleOperandsAndResultTypeINS_9stablehlo5ClzOpEE11verifyTraitEPNS_9OperationEENKUlNS_4TypeEE_clES8_
FN:231,_ZZN4mlir3hlo7OpTrait31CompatibleOperandsAndResultTypeINS_9stablehlo19CollectivePermuteOpEE11verifyTraitEPNS_9OperationEENKUlNS_4TypeEE_clES8_
FNDA:686,_ZZN4mlir3hlo7OpTrait31CompatibleOperandsAndResultTypeINS_9stablehlo19CollectivePermuteOpEE11verifyTraitEPNS_9OperationEENKUlNS_4TypeEE_clES8_
FN:231,_ZZN4mlir3hlo7OpTrait31CompatibleOperandsAndResultTypeINS_9stablehlo8CosineOpEE11verifyTraitEPNS_9OperationEENKUlNS_4TypeEE_clES8_
FNDA:416,_ZZN4mlir3hlo7OpTrait31CompatibleOperandsAndResultTypeINS_9stablehlo8CosineOpEE11verifyTraitEPNS_9OperationEENKUlNS_4TypeEE_clES8_
FN:231,_ZZN4mlir3hlo7OpTrait31CompatibleOperandsAndResultTypeINS_9stablehlo17CrossReplicaSumOpEE11verifyTraitEPNS_9OperationEENKUlNS_4TypeEE_clES8_
FNDA:336,_ZZN4mlir3hlo7OpTrait31CompatibleOperandsAndResultTypeINS_9stablehlo17CrossReplicaSumOpEE11verifyTraitEPNS_9OperationEENKUlNS_4TypeEE_clES8_
FN:231,_ZZN4mlir3hlo7OpTrait31CompatibleOperandsAndResultTypeINS_9stablehlo5DivOpEE11verifyTraitEPNS_9OperationEENKUlNS_4TypeEE_clES8_
FNDA:600,_ZZN4mlir3hlo7OpTrait31CompatibleOperandsAndResultTypeINS_9stablehlo5DivOpEE11verifyTraitEPNS_9OperationEENKUlNS_4TypeEE_clES8_
FN:231,_ZZN4mlir3hlo7OpTrait31CompatibleOperandsAndResultTypeINS_9stablehlo5ExpOpEE11verifyTraitEPNS_9OperationEENKUlNS_4TypeEE_clES8_
FNDA:224,_ZZN4mlir3hlo7OpTrait31CompatibleOperandsAndResultTypeINS_9stablehlo5ExpOpEE11verifyTraitEPNS_9OperationEENKUlNS_4TypeEE_clES8_
FN:231,_ZZN4mlir3hlo7OpTrait31CompatibleOperandsAndResultTypeINS_9stablehlo7Expm1OpEE11verifyTraitEPNS_9OperationEENKUlNS_4TypeEE_clES8_
FNDA:464,_ZZN4mlir3hlo7OpTrait31CompatibleOperandsAndResultTypeINS_9stablehlo7Expm1OpEE11verifyTraitEPNS_9OperationEENKUlNS_4TypeEE_clES8_
FN:231,_ZZN4mlir3hlo7OpTrait31CompatibleOperandsAndResultTypeINS_9stablehlo7FloorOpEE11verifyTraitEPNS_9OperationEENKUlNS_4TypeEE_clES8_
FNDA:400,_ZZN4mlir3hlo7OpTrait31CompatibleOperandsAndResultTypeINS_9stablehlo7FloorOpEE11verifyTraitEPNS_9OperationEENKUlNS_4TypeEE_clES8_
FN:231,_ZZN4mlir3hlo7OpTrait31CompatibleOperandsAndResultTypeINS_9stablehlo7Log1pOpEE11verifyTraitEPNS_9OperationEENKUlNS_4TypeEE_clES8_
FNDA:464,_ZZN4mlir3hlo7OpTrait31CompatibleOperandsAndResultTypeINS_9stablehlo7Log1pOpEE11verifyTraitEPNS_9OperationEENKUlNS_4TypeEE_clES8_
FN:231,_ZZN4mlir3hlo7OpTrait31CompatibleOperandsAndResultTypeINS_9stablehlo5LogOpEE11verifyTraitEPNS_9OperationEENKUlNS_4TypeEE_clES8_
FNDA:224,_ZZN4mlir3hlo7OpTrait31CompatibleOperandsAndResultTypeINS_9stablehlo5LogOpEE11verifyTraitEPNS_9OperationEENKUlNS_4TypeEE_clES8_
FN:231,_ZZN4mlir3hlo7OpTrait31CompatibleOperandsAndResultTypeINS_9stablehlo10LogisticOpEE11verifyTraitEPNS_9OperationEENKUlNS_4TypeEE_clES8_
FNDA:224,_ZZN4mlir3hlo7OpTrait31CompatibleOperandsAndResultTypeINS_9stablehlo10LogisticOpEE11verifyTraitEPNS_9OperationEENKUlNS_4TypeEE_clES8_
FN:231,_ZZN4mlir3hlo7OpTrait31CompatibleOperandsAndResultTypeINS_9stablehlo5MaxOpEE11verifyTraitEPNS_9OperationEENKUlNS_4TypeEE_clES8_
FNDA:3893,_ZZN4mlir3hlo7OpTrait31CompatibleOperandsAndResultTypeINS_9stablehlo5MaxOpEE11verifyTraitEPNS_9OperationEENKUlNS_4TypeEE_clES8_
FN:231,_ZZN4mlir3hlo7OpTrait31CompatibleOperandsAndResultTypeINS_9stablehlo5MinOpEE11verifyTraitEPNS_9OperationEENKUlNS_4TypeEE_clES8_
FNDA:1152,_ZZN4mlir3hlo7OpTrait31CompatibleOperandsAndResultTypeINS_9stablehlo5MinOpEE11verifyTraitEPNS_9OperationEENKUlNS_4TypeEE_clES8_
FN:231,_ZZN4mlir3hlo7OpTrait31CompatibleOperandsAndResultTypeINS_9stablehlo5MulOpEE11verifyTraitEPNS_9OperationEENKUlNS_4TypeEE_clES8_
FNDA:1536,_ZZN4mlir3hlo7OpTrait31CompatibleOperandsAndResultTypeINS_9stablehlo5MulOpEE11verifyTraitEPNS_9OperationEENKUlNS_4TypeEE_clES8_
FN:231,_ZZN4mlir3hlo7OpTrait31CompatibleOperandsAndResultTypeINS_9stablehlo5NegOpEE11verifyTraitEPNS_9OperationEENKUlNS_4TypeEE_clES8_
FNDA:784,_ZZN4mlir3hlo7OpTrait31CompatibleOperandsAndResultTypeINS_9stablehlo5NegOpEE11verifyTraitEPNS_9OperationEENKUlNS_4TypeEE_clES8_
FN:231,_ZZN4mlir3hlo7OpTrait31CompatibleOperandsAndResultTypeINS_9stablehlo5NotOpEE11verifyTraitEPNS_9OperationEENKUlNS_4TypeEE_clES8_
FNDA:1056,_ZZN4mlir3hlo7OpTrait31CompatibleOperandsAndResultTypeINS_9stablehlo5NotOpEE11verifyTraitEPNS_9OperationEENKUlNS_4TypeEE_clES8_
FN:231,_ZZN4mlir3hlo7OpTrait31CompatibleOperandsAndResultTypeINS_9stablehlo4OrOpEE11verifyTraitEPNS_9OperationEENKUlNS_4TypeEE_clES8_
FNDA:1008,_ZZN4mlir3hlo7OpTrait31CompatibleOperandsAndResultTypeINS_9stablehlo4OrOpEE11verifyTraitEPNS_9OperationEENKUlNS_4TypeEE_clES8_
FN:231,_ZZN4mlir3hlo7OpTrait31CompatibleOperandsAndResultTypeINS_9stablehlo17PopulationCountOpEE11verifyTraitEPNS_9OperationEENKUlNS_4TypeEE_clES8_
FNDA:432,_ZZN4mlir3hlo7OpTrait31CompatibleOperandsAndResultTypeINS_9stablehlo17PopulationCountOpEE11verifyTraitEPNS_9OperationEENKUlNS_4TypeEE_clES8_
FN:231,_ZZN4mlir3hlo7OpTrait31CompatibleOperandsAndResultTypeINS_9stablehlo5PowOpEE11verifyTraitEPNS_9OperationEENKUlNS_4TypeEE_clES8_
FNDA:336,_ZZN4mlir3hlo7OpTrait31CompatibleOperandsAndResultTypeINS_9stablehlo5PowOpEE11verifyTraitEPNS_9OperationEENKUlNS_4TypeEE_clES8_
FN:231,_ZZN4mlir3hlo7OpTrait31CompatibleOperandsAndResultTypeINS_9stablehlo17ReducePrecisionOpEE11verifyTraitEPNS_9OperationEENKUlNS_4TypeEE_clES8_
FNDA:496,_ZZN4mlir3hlo7OpTrait31CompatibleOperandsAndResultTypeINS_9stablehlo17ReducePrecisionOpEE11verifyTraitEPNS_9OperationEENKUlNS_4TypeEE_clES8_
FN:231,_ZZN4mlir3hlo7OpTrait31CompatibleOperandsAndResultTypeINS_9stablehlo5RemOpEE11verifyTraitEPNS_9OperationEENKUlNS_4TypeEE_clES8_
FNDA:360,_ZZN4mlir3hlo7OpTrait31CompatibleOperandsAndResultTypeINS_9stablehlo5RemOpEE11verifyTraitEPNS_9OperationEENKUlNS_4TypeEE_clES8_
FN:231,_ZZN4mlir3hlo7OpTrait31CompatibleOperandsAndResultTypeINS_9stablehlo9ReverseOpEE11verifyTraitEPNS_9OperationEENKUlNS_4TypeEE_clES8_
FNDA:576,_ZZN4mlir3hlo7OpTrait31CompatibleOperandsAndResultTypeINS_9stablehlo9ReverseOpEE11verifyTraitEPNS_9OperationEENKUlNS_4TypeEE_clES8_
FN:231,_ZZN4mlir3hlo7OpTrait31CompatibleOperandsAndResultTypeINS_9stablehlo18RoundNearestEvenOpEE11verifyTraitEPNS_9OperationEENKUlNS_4TypeEE_clES8_
FNDA:464,_ZZN4mlir3hlo7OpTrait31CompatibleOperandsAndResultTypeINS_9stablehlo18RoundNearestEvenOpEE11verifyTraitEPNS_9OperationEENKUlNS_4TypeEE_clES8_
FN:231,_ZZN4mlir3hlo7OpTrait31CompatibleOperandsAndResultTypeINS_9stablehlo7RoundOpEE11verifyTraitEPNS_9OperationEENKUlNS_4TypeEE_clES8_
FNDA:224,_ZZN4mlir3hlo7OpTrait31CompatibleOperandsAndResultTypeINS_9stablehlo7RoundOpEE11verifyTraitEPNS_9OperationEENKUlNS_4TypeEE_clES8_
FN:231,_ZZN4mlir3hlo7OpTrait31CompatibleOperandsAndResultTypeINS_9stablehlo7RsqrtOpEE11verifyTraitEPNS_9OperationEENKUlNS_4TypeEE_clES8_
FNDA:128,_ZZN4mlir3hlo7OpTrait31CompatibleOperandsAndResultTypeINS_9stablehlo7RsqrtOpEE11verifyTraitEPNS_9OperationEENKUlNS_4TypeEE_clES8_
FN:231,_ZZN4mlir3hlo7OpTrait31CompatibleOperandsAndResultTypeINS_9stablehlo11ShiftLeftOpEE11verifyTraitEPNS_9OperationEENKUlNS_4TypeEE_clES8_
FNDA:648,_ZZN4mlir3hlo7OpTrait31CompatibleOperandsAndResultTypeINS_9stablehlo11ShiftLeftOpEE11verifyTraitEPNS_9OperationEENKUlNS_4TypeEE_clES8_
FN:231,_ZZN4mlir3hlo7OpTrait31CompatibleOperandsAndResultTypeINS_9stablehlo22ShiftRightArithmeticOpEE11verifyTraitEPNS_9OperationEENKUlNS_4TypeEE_clES8_
FNDA:648,_ZZN4mlir3hlo7OpTrait31CompatibleOperandsAndResultTypeINS_9stablehlo22ShiftRightArithmeticOpEE11verifyTraitEPNS_9OperationEENKUlNS_4TypeEE_clES8_
FN:231,_ZZN4mlir3hlo7OpTrait31CompatibleOperandsAndResultTypeINS_9stablehlo19ShiftRightLogicalOpEE11verifyTraitEPNS_9OperationEENKUlNS_4TypeEE_clES8_
FNDA:648,_ZZN4mlir3hlo7OpTrait31CompatibleOperandsAndResultTypeINS_9stablehlo19ShiftRightLogicalOpEE11verifyTraitEPNS_9OperationEENKUlNS_4TypeEE_clES8_
FN:231,_ZZN4mlir3hlo7OpTrait31CompatibleOperandsAndResultTypeINS_9stablehlo6SignOpEE11verifyTraitEPNS_9OperationEENKUlNS_4TypeEE_clES8_
FNDA:256,_ZZN4mlir3hlo7OpTrait31CompatibleOperandsAndResultTypeINS_9stablehlo6SignOpEE11verifyTraitEPNS_9OperationEENKUlNS_4TypeEE_clES8_
FN:231,_ZZN4mlir3hlo7OpTrait31CompatibleOperandsAndResultTypeINS_9stablehlo6SineOpEE11verifyTraitEPNS_9OperationEENKUlNS_4TypeEE_clES8_
FNDA:448,_ZZN4mlir3hlo7OpTrait31CompatibleOperandsAndResultTypeINS_9stablehlo6SineOpEE11verifyTraitEPNS_9OperationEENKUlNS_4TypeEE_clES8_
FN:231,_ZZN4mlir3hlo7OpTrait31CompatibleOperandsAndResultTypeINS_9stablehlo6SqrtOpEE11verifyTraitEPNS_9OperationEENKUlNS_4TypeEE_clES8_
FNDA:256,_ZZN4mlir3hlo7OpTrait31CompatibleOperandsAndResultTypeINS_9stablehlo6SqrtOpEE11verifyTraitEPNS_9OperationEENKUlNS_4TypeEE_clES8_
FN:231,_ZZN4mlir3hlo7OpTrait31CompatibleOperandsAndResultTypeINS_9stablehlo10SubtractOpEE11verifyTraitEPNS_9OperationEENKUlNS_4TypeEE_clES8_
FNDA:1176,_ZZN4mlir3hlo7OpTrait31CompatibleOperandsAndResultTypeINS_9stablehlo10SubtractOpEE11verifyTraitEPNS_9OperationEENKUlNS_4TypeEE_clES8_
FN:231,_ZZN4mlir3hlo7OpTrait31CompatibleOperandsAndResultTypeINS_9stablehlo6TanhOpEE11verifyTraitEPNS_9OperationEENKUlNS_4TypeEE_clES8_
FNDA:496,_ZZN4mlir3hlo7OpTrait31CompatibleOperandsAndResultTypeINS_9stablehlo6TanhOpEE11verifyTraitEPNS_9OperationEENKUlNS_4TypeEE_clES8_
FN:231,_ZZN4mlir3hlo7OpTrait31CompatibleOperandsAndResultTypeINS_9stablehlo5XorOpEE11verifyTraitEPNS_9OperationEENKUlNS_4TypeEE_clES8_
FNDA:1272,_ZZN4mlir3hlo7OpTrait31CompatibleOperandsAndResultTypeINS_9stablehlo5XorOpEE11verifyTraitEPNS_9OperationEENKUlNS_4TypeEE_clES8_
FN:244,_ZN4mlir3hlo7OpTrait31CompatibleOperandsAndResultTypeINS_9stablehlo5AddOpEE16inferReturnTypesEPNS_11MLIRContextESt8optionalINS_8LocationEENS_10ValueRangeENS_14DictionaryAttrENS_11RegionRangeERN4llvm15SmallVectorImplINS_4TypeEEE
FNDA:5454,_ZN4mlir3hlo7OpTrait31CompatibleOperandsAndResultTypeINS_9stablehlo5AddOpEE16inferReturnTypesEPNS_11MLIRContextESt8optionalINS_8LocationEENS_10ValueRangeENS_14DictionaryAttrENS_11RegionRangeERN4llvm15SmallVectorImplINS_4TypeEEE
FN:244,_ZN4mlir3hlo7OpTrait31CompatibleOperandsAndResultTypeINS_9stablehlo11AllReduceOpEE16inferReturnTypesEPNS_11MLIRContextESt8optionalINS_8LocationEENS_10ValueRangeENS_14DictionaryAttrENS_11RegionRangeERN4llvm15SmallVectorImplINS_4TypeEEE
FNDA:392,_ZN4mlir3hlo7OpTrait31CompatibleOperandsAndResultTypeINS_9stablehlo11AllReduceOpEE16inferReturnTypesEPNS_11MLIRContextESt8optionalINS_8LocationEENS_10ValueRangeENS_14DictionaryAttrENS_11RegionRangeERN4llvm15SmallVectorImplINS_4TypeEEE
FN:244,_ZN4mlir3hlo7OpTrait31CompatibleOperandsAndResultTypeINS_9stablehlo5AndOpEE16inferReturnTypesEPNS_11MLIRContextESt8optionalINS_8LocationEENS_10ValueRangeENS_14DictionaryAttrENS_11RegionRangeERN4llvm15SmallVectorImplINS_4TypeEEE
FNDA:408,_ZN4mlir3hlo7OpTrait31CompatibleOperandsAndResultTypeINS_9stablehlo5AndOpEE16inferReturnTypesEPNS_11MLIRContextESt8optionalINS_8LocationEENS_10ValueRangeENS_14DictionaryAttrENS_11RegionRangeERN4llvm15SmallVectorImplINS_4TypeEEE
FN:244,_ZN4mlir3hlo7OpTrait31CompatibleOperandsAndResultTypeINS_9stablehlo7Atan2OpEE16inferReturnTypesEPNS_11MLIRContextESt8optionalINS_8LocationEENS_10ValueRangeENS_14DictionaryAttrENS_11RegionRangeERN4llvm15SmallVectorImplINS_4TypeEEE
FNDA:112,_ZN4mlir3hlo7OpTrait31CompatibleOperandsAndResultTypeINS_9stablehlo7Atan2OpEE16inferReturnTypesEPNS_11MLIRContextESt8optionalINS_8LocationEENS_10ValueRangeENS_14DictionaryAttrENS_11RegionRangeERN4llvm15SmallVectorImplINS_4TypeEEE
FN:244,_ZN4mlir3hlo7OpTrait31CompatibleOperandsAndResultTypeINS_9stablehlo6CbrtOpEE16inferReturnTypesEPNS_11MLIRContextESt8optionalINS_8LocationEENS_10ValueRangeENS_14DictionaryAttrENS_11RegionRangeERN4llvm15SmallVectorImplINS_4TypeEEE
FNDA:184,_ZN4mlir3hlo7OpTrait31CompatibleOperandsAndResultTypeINS_9stablehlo6CbrtOpEE16inferReturnTypesEPNS_11MLIRContextESt8optionalINS_8LocationEENS_10ValueRangeENS_14DictionaryAttrENS_11RegionRangeERN4llvm15SmallVectorImplINS_4TypeEEE
FN:244,_ZN4mlir3hlo7OpTrait31CompatibleOperandsAndResultTypeINS_9stablehlo6CeilOpEE16inferReturnTypesEPNS_11MLIRContextESt8optionalINS_8LocationEENS_10ValueRangeENS_14DictionaryAttrENS_11RegionRangeERN4llvm15SmallVectorImplINS_4TypeEEE
FNDA:192,_ZN4mlir3hlo7OpTrait31CompatibleOperandsAndResultTypeINS_9stablehlo6CeilOpEE16inferReturnTypesEPNS_11MLIRContextESt8optionalINS_8LocationEENS_10ValueRangeENS_14DictionaryAttrENS_11RegionRangeERN4llvm15SmallVectorImplINS_4TypeEEE
FN:244,_ZN4mlir3hlo7OpTrait31CompatibleOperandsAndResultTypeINS_9stablehlo5ClzOpEE16inferReturnTypesEPNS_11MLIRContextESt8optionalINS_8LocationEENS_10ValueRangeENS_14DictionaryAttrENS_11RegionRangeERN4llvm15SmallVectorImplINS_4TypeEEE
FNDA:112,_ZN4mlir3hlo7OpTrait31CompatibleOperandsAndResultTypeINS_9stablehlo5ClzOpEE16inferReturnTypesEPNS_11MLIRContextESt8optionalINS_8LocationEENS_10ValueRangeENS_14DictionaryAttrENS_11RegionRangeERN4llvm15SmallVectorImplINS_4TypeEEE
FN:244,_ZN4mlir3hlo7OpTrait31CompatibleOperandsAndResultTypeINS_9stablehlo19CollectivePermuteOpEE16inferReturnTypesEPNS_11MLIRContextESt8optionalINS_8LocationEENS_10ValueRangeENS_14DictionaryAttrENS_11RegionRangeERN4llvm15SmallVectorImplINS_4TypeEEE
FNDA:303,_ZN4mlir3hlo7OpTrait31CompatibleOperandsAndResultTypeINS_9stablehlo19CollectivePermuteOpEE16inferReturnTypesEPNS_11MLIRContextESt8optionalINS_8LocationEENS_10ValueRangeENS_14DictionaryAttrENS_11RegionRangeERN4llvm15SmallVectorImplINS_4TypeEEE
FN:244,_ZN4mlir3hlo7OpTrait31CompatibleOperandsAndResultTypeINS_9stablehlo8CosineOpEE16inferReturnTypesEPNS_11MLIRContextESt8optionalINS_8LocationEENS_10ValueRangeENS_14DictionaryAttrENS_11RegionRangeERN4llvm15SmallVectorImplINS_4TypeEEE
FNDA:208,_ZN4mlir3hlo7OpTrait31CompatibleOperandsAndResultTypeINS_9stablehlo8CosineOpEE16inferReturnTypesEPNS_11MLIRContextESt8optionalINS_8LocationEENS_10ValueRangeENS_14DictionaryAttrENS_11RegionRangeERN4llvm15SmallVectorImplINS_4TypeEEE
FN:244,_ZN4mlir3hlo7OpTrait31CompatibleOperandsAndResultTypeINS_9stablehlo17CrossReplicaSumOpEE16inferReturnTypesEPNS_11MLIRContextESt8optionalINS_8LocationEENS_10ValueRangeENS_14DictionaryAttrENS_11RegionRangeERN4llvm15SmallVectorImplINS_4TypeEEE
FNDA:168,_ZN4mlir3hlo7OpTrait31CompatibleOperandsAndResultTypeINS_9stablehlo17CrossReplicaSumOpEE16inferReturnTypesEPNS_11MLIRContextESt8optionalINS_8LocationEENS_10ValueRangeENS_14DictionaryAttrENS_11RegionRangeERN4llvm15SmallVectorImplINS_4TypeEEE
FN:244,_ZN4mlir3hlo7OpTrait31CompatibleOperandsAndResultTypeINS_9stablehlo5DivOpEE16inferReturnTypesEPNS_11MLIRContextESt8optionalINS_8LocationEENS_10ValueRangeENS_14DictionaryAttrENS_11RegionRangeERN4llvm15SmallVectorImplINS_4TypeEEE
FNDA:200,_ZN4mlir3hlo7OpTrait31CompatibleOperandsAndResultTypeINS_9stablehlo5DivOpEE16inferReturnTypesEPNS_11MLIRContextESt8optionalINS_8LocationEENS_10ValueRangeENS_14DictionaryAttrENS_11RegionRangeERN4llvm15SmallVectorImplINS_4TypeEEE
FN:244,_ZN4mlir3hlo7OpTrait31CompatibleOperandsAndResultTypeINS_9stablehlo5ExpOpEE16inferReturnTypesEPNS_11MLIRContextESt8optionalINS_8LocationEENS_10ValueRangeENS_14DictionaryAttrENS_11RegionRangeERN4llvm15SmallVectorImplINS_4TypeEEE
FNDA:112,_ZN4mlir3hlo7OpTrait31CompatibleOperandsAndResultTypeINS_9stablehlo5ExpOpEE16inferReturnTypesEPNS_11MLIRContextESt8optionalINS_8LocationEENS_10ValueRangeENS_14DictionaryAttrENS_11RegionRangeERN4llvm15SmallVectorImplINS_4TypeEEE
FN:244,_ZN4mlir3hlo7OpTrait31CompatibleOperandsAndResultTypeINS_9stablehlo7Expm1OpEE16inferReturnTypesEPNS_11MLIRContextESt8optionalINS_8LocationEENS_10ValueRangeENS_14DictionaryAttrENS_11RegionRangeERN4llvm15SmallVectorImplINS_4TypeEEE
FNDA:232,_ZN4mlir3hlo7OpTrait31CompatibleOperandsAndResultTypeINS_9stablehlo7Expm1OpEE16inferReturnTypesEPNS_11MLIRContextESt8optionalINS_8LocationEENS_10ValueRangeENS_14DictionaryAttrENS_11RegionRangeERN4llvm15SmallVectorImplINS_4TypeEEE
FN:244,_ZN4mlir3hlo7OpTrait31CompatibleOperandsAndResultTypeINS_9stablehlo7FloorOpEE16inferReturnTypesEPNS_11MLIRContextESt8optionalINS_8LocationEENS_10ValueRangeENS_14DictionaryAttrENS_11RegionRangeERN4llvm15SmallVectorImplINS_4TypeEEE
FNDA:200,_ZN4mlir3hlo7OpTrait31CompatibleOperandsAndResultTypeINS_9stablehlo7FloorOpEE16inferReturnTypesEPNS_11MLIRContextESt8optionalINS_8LocationEENS_10ValueRangeENS_14DictionaryAttrENS_11RegionRangeERN4llvm15SmallVectorImplINS_4TypeEEE
FN:244,_ZN4mlir3hlo7OpTrait31CompatibleOperandsAndResultTypeINS_9stablehlo7Log1pOpEE16inferReturnTypesEPNS_11MLIRContextESt8optionalINS_8LocationEENS_10ValueRangeENS_14DictionaryAttrENS_11RegionRangeERN4llvm15SmallVectorImplINS_4TypeEEE
FNDA:232,_ZN4mlir3hlo7OpTrait31CompatibleOperandsAndResultTypeINS_9stablehlo7Log1pOpEE16inferReturnTypesEPNS_11MLIRContextESt8optionalINS_8LocationEENS_10ValueRangeENS_14DictionaryAttrENS_11RegionRangeERN4llvm15SmallVectorImplINS_4TypeEEE
FN:244,_ZN4mlir3hlo7OpTrait31CompatibleOperandsAndResultTypeINS_9stablehlo5LogOpEE16inferReturnTypesEPNS_11MLIRContextESt8optionalINS_8LocationEENS_10ValueRangeENS_14DictionaryAttrENS_11RegionRangeERN4llvm15SmallVectorImplINS_4TypeEEE
FNDA:112,_ZN4mlir3hlo7OpTrait31CompatibleOperandsAndResultTypeINS_9stablehlo5LogOpEE16inferReturnTypesEPNS_11MLIRContextESt8optionalINS_8LocationEENS_10ValueRangeENS_14DictionaryAttrENS_11RegionRangeERN4llvm15SmallVectorImplINS_4TypeEEE
FN:244,_ZN4mlir3hlo7OpTrait31CompatibleOperandsAndResultTypeINS_9stablehlo10LogisticOpEE16inferReturnTypesEPNS_11MLIRContextESt8optionalINS_8LocationEENS_10ValueRangeENS_14DictionaryAttrENS_11RegionRangeERN4llvm15SmallVectorImplINS_4TypeEEE
FNDA:112,_ZN4mlir3hlo7OpTrait31CompatibleOperandsAndResultTypeINS_9stablehlo10LogisticOpEE16inferReturnTypesEPNS_11MLIRContextESt8optionalINS_8LocationEENS_10ValueRangeENS_14DictionaryAttrENS_11RegionRangeERN4llvm15SmallVectorImplINS_4TypeEEE
FN:244,_ZN4mlir3hlo7OpTrait31CompatibleOperandsAndResultTypeINS_9stablehlo5MaxOpEE16inferReturnTypesEPNS_11MLIRContextESt8optionalINS_8LocationEENS_10ValueRangeENS_14DictionaryAttrENS_11RegionRangeERN4llvm15SmallVectorImplINS_4TypeEEE
FNDA:1300,_ZN4mlir3hlo7OpTrait31CompatibleOperandsAndResultTypeINS_9stablehlo5MaxOpEE16inferReturnTypesEPNS_11MLIRContextESt8optionalINS_8LocationEENS_10ValueRangeENS_14DictionaryAttrENS_11RegionRangeERN4llvm15SmallVectorImplINS_4TypeEEE
FN:244,_ZN4mlir3hlo7OpTrait31CompatibleOperandsAndResultTypeINS_9stablehlo5MinOpEE16inferReturnTypesEPNS_11MLIRContextESt8optionalINS_8LocationEENS_10ValueRangeENS_14DictionaryAttrENS_11RegionRangeERN4llvm15SmallVectorImplINS_4TypeEEE
FNDA:384,_ZN4mlir3hlo7OpTrait31CompatibleOperandsAndResultTypeINS_9stablehlo5MinOpEE16inferReturnTypesEPNS_11MLIRContextESt8optionalINS_8LocationEENS_10ValueRangeENS_14DictionaryAttrENS_11RegionRangeERN4llvm15SmallVectorImplINS_4TypeEEE
FN:244,_ZN4mlir3hlo7OpTrait31CompatibleOperandsAndResultTypeINS_9stablehlo5MulOpEE16inferReturnTypesEPNS_11MLIRContextESt8optionalINS_8LocationEENS_10ValueRangeENS_14DictionaryAttrENS_11RegionRangeERN4llvm15SmallVectorImplINS_4TypeEEE
FNDA:512,_ZN4mlir3hlo7OpTrait31CompatibleOperandsAndResultTypeINS_9stablehlo5MulOpEE16inferReturnTypesEPNS_11MLIRContextESt8optionalINS_8LocationEENS_10ValueRangeENS_14DictionaryAttrENS_11RegionRangeERN4llvm15SmallVectorImplINS_4TypeEEE
FN:244,_ZN4mlir3hlo7OpTrait31CompatibleOperandsAndResultTypeINS_9stablehlo5NegOpEE16inferReturnTypesEPNS_11MLIRContextESt8optionalINS_8LocationEENS_10ValueRangeENS_14DictionaryAttrENS_11RegionRangeERN4llvm15SmallVectorImplINS_4TypeEEE
FNDA:392,_ZN4mlir3hlo7OpTrait31CompatibleOperandsAndResultTypeINS_9stablehlo5NegOpEE16inferReturnTypesEPNS_11MLIRContextESt8optionalINS_8LocationEENS_10ValueRangeENS_14DictionaryAttrENS_11RegionRangeERN4llvm15SmallVectorImplINS_4TypeEEE
FN:244,_ZN4mlir3hlo7OpTrait31CompatibleOperandsAndResultTypeINS_9stablehlo5NotOpEE16inferReturnTypesEPNS_11MLIRContextESt8optionalINS_8LocationEENS_10ValueRangeENS_14DictionaryAttrENS_11RegionRangeERN4llvm15SmallVectorImplINS_4TypeEEE
FNDA:528,_ZN4mlir3hlo7OpTrait31CompatibleOperandsAndResultTypeINS_9stablehlo5NotOpEE16inferReturnTypesEPNS_11MLIRContextESt8optionalINS_8LocationEENS_10ValueRangeENS_14DictionaryAttrENS_11RegionRangeERN4llvm15SmallVectorImplINS_4TypeEEE
FN:244,_ZN4mlir3hlo7OpTrait31CompatibleOperandsAndResultTypeINS_9stablehlo4OrOpEE16inferReturnTypesEPNS_11MLIRContextESt8optionalINS_8LocationEENS_10ValueRangeENS_14DictionaryAttrENS_11RegionRangeERN4llvm15SmallVectorImplINS_4TypeEEE
FNDA:336,_ZN4mlir3hlo7OpTrait31CompatibleOperandsAndResultTypeINS_9stablehlo4OrOpEE16inferReturnTypesEPNS_11MLIRContextESt8optionalINS_8LocationEENS_10ValueRangeENS_14DictionaryAttrENS_11RegionRangeERN4llvm15SmallVectorImplINS_4TypeEEE
FN:244,_ZN4mlir3hlo7OpTrait31CompatibleOperandsAndResultTypeINS_9stablehlo17PopulationCountOpEE16inferReturnTypesEPNS_11MLIRContextESt8optionalINS_8LocationEENS_10ValueRangeENS_14DictionaryAttrENS_11RegionRangeERN4llvm15SmallVectorImplINS_4TypeEEE
FNDA:216,_ZN4mlir3hlo7OpTrait31CompatibleOperandsAndResultTypeINS_9stablehlo17PopulationCountOpEE16inferReturnTypesEPNS_11MLIRContextESt8optionalINS_8LocationEENS_10ValueRangeENS_14DictionaryAttrENS_11RegionRangeERN4llvm15SmallVectorImplINS_4TypeEEE
FN:244,_ZN4mlir3hlo7OpTrait31CompatibleOperandsAndResultTypeINS_9stablehlo5PowOpEE16inferReturnTypesEPNS_11MLIRContextESt8optionalINS_8LocationEENS_10ValueRangeENS_14DictionaryAttrENS_11RegionRangeERN4llvm15SmallVectorImplINS_4TypeEEE
FNDA:112,_ZN4mlir3hlo7OpTrait31CompatibleOperandsAndResultTypeINS_9stablehlo5PowOpEE16inferReturnTypesEPNS_11MLIRContextESt8optionalINS_8LocationEENS_10ValueRangeENS_14DictionaryAttrENS_11RegionRangeERN4llvm15SmallVectorImplINS_4TypeEEE
FN:244,_ZN4mlir3hlo7OpTrait31CompatibleOperandsAndResultTypeINS_9stablehlo17ReducePrecisionOpEE16inferReturnTypesEPNS_11MLIRContextESt8optionalINS_8LocationEENS_10ValueRangeENS_14DictionaryAttrENS_11RegionRangeERN4llvm15SmallVectorImplINS_4TypeEEE
FNDA:232,_ZN4mlir3hlo7OpTrait31CompatibleOperandsAndResultTypeINS_9stablehlo17ReducePrecisionOpEE16inferReturnTypesEPNS_11MLIRContextESt8optionalINS_8LocationEENS_10ValueRangeENS_14DictionaryAttrENS_11RegionRangeERN4llvm15SmallVectorImplINS_4TypeEEE
FN:244,_ZN4mlir3hlo7OpTrait31CompatibleOperandsAndResultTypeINS_9stablehlo5RemOpEE16inferReturnTypesEPNS_11MLIRContextESt8optionalINS_8LocationEENS_10ValueRangeENS_14DictionaryAttrENS_11RegionRangeERN4llvm15SmallVectorImplINS_4TypeEEE
FNDA:120,_ZN4mlir3hlo7OpTrait31CompatibleOperandsAndResultTypeINS_9stablehlo5RemOpEE16inferReturnTypesEPNS_11MLIRContextESt8optionalINS_8LocationEENS_10ValueRangeENS_14DictionaryAttrENS_11RegionRangeERN4llvm15SmallVectorImplINS_4TypeEEE
FN:244,_ZN4mlir3hlo7OpTrait31CompatibleOperandsAndResultTypeINS_9stablehlo9ReverseOpEE16inferReturnTypesEPNS_11MLIRContextESt8optionalINS_8LocationEENS_10ValueRangeENS_14DictionaryAttrENS_11RegionRangeERN4llvm15SmallVectorImplINS_4TypeEEE
FNDA:248,_ZN4mlir3hlo7OpTrait31CompatibleOperandsAndResultTypeINS_9stablehlo9ReverseOpEE16inferReturnTypesEPNS_11MLIRContextESt8optionalINS_8LocationEENS_10ValueRangeENS_14DictionaryAttrENS_11RegionRangeERN4llvm15SmallVectorImplINS_4TypeEEE
FN:244,_ZN4mlir3hlo7OpTrait31CompatibleOperandsAndResultTypeINS_9stablehlo18RoundNearestEvenOpEE16inferReturnTypesEPNS_11MLIRContextESt8optionalINS_8LocationEENS_10ValueRangeENS_14DictionaryAttrENS_11RegionRangeERN4llvm15SmallVectorImplINS_4TypeEEE
FNDA:232,_ZN4mlir3hlo7OpTrait31CompatibleOperandsAndResultTypeINS_9stablehlo18RoundNearestEvenOpEE16inferReturnTypesEPNS_11MLIRContextESt8optionalINS_8LocationEENS_10ValueRangeENS_14DictionaryAttrENS_11RegionRangeERN4llvm15SmallVectorImplINS_4TypeEEE
FN:244,_ZN4mlir3hlo7OpTrait31CompatibleOperandsAndResultTypeINS_9stablehlo7RoundOpEE16inferReturnTypesEPNS_11MLIRContextESt8optionalINS_8LocationEENS_10ValueRangeENS_14DictionaryAttrENS_11RegionRangeERN4llvm15SmallVectorImplINS_4TypeEEE
FNDA:112,_ZN4mlir3hlo7OpTrait31CompatibleOperandsAndResultTypeINS_9stablehlo7RoundOpEE16inferReturnTypesEPNS_11MLIRContextESt8optionalINS_8LocationEENS_10ValueRangeENS_14DictionaryAttrENS_11RegionRangeERN4llvm15SmallVectorImplINS_4TypeEEE
FN:244,_ZN4mlir3hlo7OpTrait31CompatibleOperandsAndResultTypeINS_9stablehlo7RsqrtOpEE16inferReturnTypesEPNS_11MLIRContextESt8optionalINS_8LocationEENS_10ValueRangeENS_14DictionaryAttrENS_11RegionRangeERN4llvm15SmallVectorImplINS_4TypeEEE
FNDA:64,_ZN4mlir3hlo7OpTrait31CompatibleOperandsAndResultTypeINS_9stablehlo7RsqrtOpEE16inferReturnTypesEPNS_11MLIRContextESt8optionalINS_8LocationEENS_10ValueRangeENS_14DictionaryAttrENS_11RegionRangeERN4llvm15SmallVectorImplINS_4TypeEEE
FN:244,_ZN4mlir3hlo7OpTrait31CompatibleOperandsAndResultTypeINS_9stablehlo11ShiftLeftOpEE16inferReturnTypesEPNS_11MLIRContextESt8optionalINS_8LocationEENS_10ValueRangeENS_14DictionaryAttrENS_11RegionRangeERN4llvm15SmallVectorImplINS_4TypeEEE
FNDA:216,_ZN4mlir3hlo7OpTrait31CompatibleOperandsAndResultTypeINS_9stablehlo11ShiftLeftOpEE16inferReturnTypesEPNS_11MLIRContextESt8optionalINS_8LocationEENS_10ValueRangeENS_14DictionaryAttrENS_11RegionRangeERN4llvm15SmallVectorImplINS_4TypeEEE
FN:244,_ZN4mlir3hlo7OpTrait31CompatibleOperandsAndResultTypeINS_9stablehlo22ShiftRightArithmeticOpEE16inferReturnTypesEPNS_11MLIRContextESt8optionalINS_8LocationEENS_10ValueRangeENS_14DictionaryAttrENS_11RegionRangeERN4llvm15SmallVectorImplINS_4TypeEEE
FNDA:216,_ZN4mlir3hlo7OpTrait31CompatibleOperandsAndResultTypeINS_9stablehlo22ShiftRightArithmeticOpEE16inferReturnTypesEPNS_11MLIRContextESt8optionalINS_8LocationEENS_10ValueRangeENS_14DictionaryAttrENS_11RegionRangeERN4llvm15SmallVectorImplINS_4TypeEEE
FN:244,_ZN4mlir3hlo7OpTrait31CompatibleOperandsAndResultTypeINS_9stablehlo19ShiftRightLogicalOpEE16inferReturnTypesEPNS_11MLIRContextESt8optionalINS_8LocationEENS_10ValueRangeENS_14DictionaryAttrENS_11RegionRangeERN4llvm15SmallVectorImplINS_4TypeEEE
FNDA:216,_ZN4mlir3hlo7OpTrait31CompatibleOperandsAndResultTypeINS_9stablehlo19ShiftRightLogicalOpEE16inferReturnTypesEPNS_11MLIRContextESt8optionalINS_8LocationEENS_10ValueRangeENS_14DictionaryAttrENS_11RegionRangeERN4llvm15SmallVectorImplINS_4TypeEEE
FN:244,_ZN4mlir3hlo7OpTrait31CompatibleOperandsAndResultTypeINS_9stablehlo6SignOpEE16inferReturnTypesEPNS_11MLIRContextESt8optionalINS_8LocationEENS_10ValueRangeENS_14DictionaryAttrENS_11RegionRangeERN4llvm15SmallVectorImplINS_4TypeEEE
FNDA:128,_ZN4mlir3hlo7OpTrait31CompatibleOperandsAndResultTypeINS_9stablehlo6SignOpEE16inferReturnTypesEPNS_11MLIRContextESt8optionalINS_8LocationEENS_10ValueRangeENS_14DictionaryAttrENS_11RegionRangeERN4llvm15SmallVectorImplINS_4TypeEEE
FN:244,_ZN4mlir3hlo7OpTrait31CompatibleOperandsAndResultTypeINS_9stablehlo6SineOpEE16inferReturnTypesEPNS_11MLIRContextESt8optionalINS_8LocationEENS_10ValueRangeENS_14DictionaryAttrENS_11RegionRangeERN4llvm15SmallVectorImplINS_4TypeEEE
FNDA:224,_ZN4mlir3hlo7OpTrait31CompatibleOperandsAndResultTypeINS_9stablehlo6SineOpEE16inferReturnTypesEPNS_11MLIRContextESt8optionalINS_8LocationEENS_10ValueRangeENS_14DictionaryAttrENS_11RegionRangeERN4llvm15SmallVectorImplINS_4TypeEEE
FN:244,_ZN4mlir3hlo7OpTrait31CompatibleOperandsAndResultTypeINS_9stablehlo6SqrtOpEE16inferReturnTypesEPNS_11MLIRContextESt8optionalINS_8LocationEENS_10ValueRangeENS_14DictionaryAttrENS_11RegionRangeERN4llvm15SmallVectorImplINS_4TypeEEE
FNDA:128,_ZN4mlir3hlo7OpTrait31CompatibleOperandsAndResultTypeINS_9stablehlo6SqrtOpEE16inferReturnTypesEPNS_11MLIRContextESt8optionalINS_8LocationEENS_10ValueRangeENS_14DictionaryAttrENS_11RegionRangeERN4llvm15SmallVectorImplINS_4TypeEEE
FN:244,_ZN4mlir3hlo7OpTrait31CompatibleOperandsAndResultTypeINS_9stablehlo10SubtractOpEE16inferReturnTypesEPNS_11MLIRContextESt8optionalINS_8LocationEENS_10ValueRangeENS_14DictionaryAttrENS_11RegionRangeERN4llvm15SmallVectorImplINS_4TypeEEE
FNDA:392,_ZN4mlir3hlo7OpTrait31CompatibleOperandsAndResultTypeINS_9stablehlo10SubtractOpEE16inferReturnTypesEPNS_11MLIRContextESt8optionalINS_8LocationEENS_10ValueRangeENS_14DictionaryAttrENS_11RegionRangeERN4llvm15SmallVectorImplINS_4TypeEEE
FN:244,_ZN4mlir3hlo7OpTrait31CompatibleOperandsAndResultTypeINS_9stablehlo6TanhOpEE16inferReturnTypesEPNS_11MLIRContextESt8optionalINS_8LocationEENS_10ValueRangeENS_14DictionaryAttrENS_11RegionRangeERN4llvm15SmallVectorImplINS_4TypeEEE
FNDA:256,_ZN4mlir3hlo7OpTrait31CompatibleOperandsAndResultTypeINS_9stablehlo6TanhOpEE16inferReturnTypesEPNS_11MLIRContextESt8optionalINS_8LocationEENS_10ValueRangeENS_14DictionaryAttrENS_11RegionRangeERN4llvm15SmallVectorImplINS_4TypeEEE
FN:244,_ZN4mlir3hlo7OpTrait31CompatibleOperandsAndResultTypeINS_9stablehlo5XorOpEE16inferReturnTypesEPNS_11MLIRContextESt8optionalINS_8LocationEENS_10ValueRangeENS_14DictionaryAttrENS_11RegionRangeERN4llvm15SmallVectorImplINS_4TypeEEE
FNDA:424,_ZN4mlir3hlo7OpTrait31CompatibleOperandsAndResultTypeINS_9stablehlo5XorOpEE16inferReturnTypesEPNS_11MLIRContextESt8optionalINS_8LocationEENS_10ValueRangeENS_14DictionaryAttrENS_11RegionRangeERN4llvm15SmallVectorImplINS_4TypeEEE
FN:265,_ZN4mlir3hlo7OpTrait31CompatibleOperandsAndResultTypeINS_9stablehlo5AddOpEE37inferReturnTypeComponentsFromOperandsEPNS_11MLIRContextESt8optionalINS_8LocationEENS_15ValueShapeRangeENS_14DictionaryAttrENS_11RegionRangeERN4llvm15SmallVectorImplINS_20ShapedTypeComponentsEEE
FNDA:0,_ZN4mlir3hlo7OpTrait31CompatibleOperandsAndResultTypeINS_9stablehlo5AddOpEE37inferReturnTypeComponentsFromOperandsEPNS_11MLIRContextESt8optionalINS_8LocationEENS_15ValueShapeRangeENS_14DictionaryAttrENS_11RegionRangeERN4llvm15SmallVectorImplINS_20ShapedTypeComponentsEEE
FN:265,_ZN4mlir3hlo7OpTrait31CompatibleOperandsAndResultTypeINS_9stablehlo11AllReduceOpEE37inferReturnTypeComponentsFromOperandsEPNS_11MLIRContextESt8optionalINS_8LocationEENS_15ValueShapeRangeENS_14DictionaryAttrENS_11RegionRangeERN4llvm15SmallVectorImplINS_20ShapedTypeComponentsEEE
FNDA:0,_ZN4mlir3hlo7OpTrait31CompatibleOperandsAndResultTypeINS_9stablehlo11AllReduceOpEE37inferReturnTypeComponentsFromOperandsEPNS_11MLIRContextESt8optionalINS_8LocationEENS_15ValueShapeRangeENS_14DictionaryAttrENS_11RegionRangeERN4llvm15SmallVectorImplINS_20ShapedTypeComponentsEEE
FN:265,_ZN4mlir3hlo7OpTrait31CompatibleOperandsAndResultTypeINS_9stablehlo5AndOpEE37inferReturnTypeComponentsFromOperandsEPNS_11MLIRContextESt8optionalINS_8LocationEENS_15ValueShapeRangeENS_14DictionaryAttrENS_11RegionRangeERN4llvm15SmallVectorImplINS_20ShapedTypeComponentsEEE
FNDA:0,_ZN4mlir3hlo7OpTrait31CompatibleOperandsAndResultTypeINS_9stablehlo5AndOpEE37inferReturnTypeComponentsFromOperandsEPNS_11MLIRContextESt8optionalINS_8LocationEENS_15ValueShapeRangeENS_14DictionaryAttrENS_11RegionRangeERN4llvm15SmallVectorImplINS_20ShapedTypeComponentsEEE
FN:265,_ZN4mlir3hlo7OpTrait31CompatibleOperandsAndResultTypeINS_9stablehlo7Atan2OpEE37inferReturnTypeComponentsFromOperandsEPNS_11MLIRContextESt8optionalINS_8LocationEENS_15ValueShapeRangeENS_14DictionaryAttrENS_11RegionRangeERN4llvm15SmallVectorImplINS_20ShapedTypeComponentsEEE
FNDA:0,_ZN4mlir3hlo7OpTrait31CompatibleOperandsAndResultTypeINS_9stablehlo7Atan2OpEE37inferReturnTypeComponentsFromOperandsEPNS_11MLIRContextESt8optionalINS_8LocationEENS_15ValueShapeRangeENS_14DictionaryAttrENS_11RegionRangeERN4llvm15SmallVectorImplINS_20ShapedTypeComponentsEEE
FN:265,_ZN4mlir3hlo7OpTrait31CompatibleOperandsAndResultTypeINS_9stablehlo6CbrtOpEE37inferReturnTypeComponentsFromOperandsEPNS_11MLIRContextESt8optionalINS_8LocationEENS_15ValueShapeRangeENS_14DictionaryAttrENS_11RegionRangeERN4llvm15SmallVectorImplINS_20ShapedTypeComponentsEEE
FNDA:0,_ZN4mlir3hlo7OpTrait31CompatibleOperandsAndResultTypeINS_9stablehlo6CbrtOpEE37inferReturnTypeComponentsFromOperandsEPNS_11MLIRContextESt8optionalINS_8LocationEENS_15ValueShapeRangeENS_14DictionaryAttrENS_11RegionRangeERN4llvm15SmallVectorImplINS_20ShapedTypeComponentsEEE
FN:265,_ZN4mlir3hlo7OpTrait31CompatibleOperandsAndResultTypeINS_9stablehlo6CeilOpEE37inferReturnTypeComponentsFromOperandsEPNS_11MLIRContextESt8optionalINS_8LocationEENS_15ValueShapeRangeENS_14DictionaryAttrENS_11RegionRangeERN4llvm15SmallVectorImplINS_20ShapedTypeComponentsEEE
FNDA:0,_ZN4mlir3hlo7OpTrait31CompatibleOperandsAndResultTypeINS_9stablehlo6CeilOpEE37inferReturnTypeComponentsFromOperandsEPNS_11MLIRContextESt8optionalINS_8LocationEENS_15ValueShapeRangeENS_14DictionaryAttrENS_11RegionRangeERN4llvm15SmallVectorImplINS_20ShapedTypeComponentsEEE
FN:265,_ZN4mlir3hlo7OpTrait31CompatibleOperandsAndResultTypeINS_9stablehlo5ClzOpEE37inferReturnTypeComponentsFromOperandsEPNS_11MLIRContextESt8optionalINS_8LocationEENS_15ValueShapeRangeENS_14DictionaryAttrENS_11RegionRangeERN4llvm15SmallVectorImplINS_20ShapedTypeComponentsEEE
FNDA:0,_ZN4mlir3hlo7OpTrait31CompatibleOperandsAndResultTypeINS_9stablehlo5ClzOpEE37inferReturnTypeComponentsFromOperandsEPNS_11MLIRContextESt8optionalINS_8LocationEENS_15ValueShapeRangeENS_14DictionaryAttrENS_11RegionRangeERN4llvm15SmallVectorImplINS_20ShapedTypeComponentsEEE
FN:265,_ZN4mlir3hlo7OpTrait31CompatibleOperandsAndResultTypeINS_9stablehlo19CollectivePermuteOpEE37inferReturnTypeComponentsFromOperandsEPNS_11MLIRContextESt8optionalINS_8LocationEENS_15ValueShapeRangeENS_14DictionaryAttrENS_11RegionRangeERN4llvm15SmallVectorImplINS_20ShapedTypeComponentsEEE
FNDA:0,_ZN4mlir3hlo7OpTrait31CompatibleOperandsAndResultTypeINS_9stablehlo19CollectivePermuteOpEE37inferReturnTypeComponentsFromOperandsEPNS_11MLIRContextESt8optionalINS_8LocationEENS_15ValueShapeRangeENS_14DictionaryAttrENS_11RegionRangeERN4llvm15SmallVectorImplINS_20ShapedTypeComponentsEEE
FN:265,_ZN4mlir3hlo7OpTrait31CompatibleOperandsAndResultTypeINS_9stablehlo8CosineOpEE37inferReturnTypeComponentsFromOperandsEPNS_11MLIRContextESt8optionalINS_8LocationEENS_15ValueShapeRangeENS_14DictionaryAttrENS_11RegionRangeERN4llvm15SmallVectorImplINS_20ShapedTypeComponentsEEE
FNDA:0,_ZN4mlir3hlo7OpTrait31CompatibleOperandsAndResultTypeINS_9stablehlo8CosineOpEE37inferReturnTypeComponentsFromOperandsEPNS_11MLIRContextESt8optionalINS_8LocationEENS_15ValueShapeRangeENS_14DictionaryAttrENS_11RegionRangeERN4llvm15SmallVectorImplINS_20ShapedTypeComponentsEEE
FN:265,_ZN4mlir3hlo7OpTrait31CompatibleOperandsAndResultTypeINS_9stablehlo17CrossReplicaSumOpEE37inferReturnTypeComponentsFromOperandsEPNS_11MLIRContextESt8optionalINS_8LocationEENS_15ValueShapeRangeENS_14DictionaryAttrENS_11RegionRangeERN4llvm15SmallVectorImplINS_20ShapedTypeComponentsEEE
FNDA:0,_ZN4mlir3hlo7OpTrait31CompatibleOperandsAndResultTypeINS_9stablehlo17CrossReplicaSumOpEE37inferReturnTypeComponentsFromOperandsEPNS_11MLIRContextESt8optionalINS_8LocationEENS_15ValueShapeRangeENS_14DictionaryAttrENS_11RegionRangeERN4llvm15SmallVectorImplINS_20ShapedTypeComponentsEEE
FN:265,_ZN4mlir3hlo7OpTrait31CompatibleOperandsAndResultTypeINS_9stablehlo5DivOpEE37inferReturnTypeComponentsFromOperandsEPNS_11MLIRContextESt8optionalINS_8LocationEENS_15ValueShapeRangeENS_14DictionaryAttrENS_11RegionRangeERN4llvm15SmallVectorImplINS_20ShapedTypeComponentsEEE
FNDA:0,_ZN4mlir3hlo7OpTrait31CompatibleOperandsAndResultTypeINS_9stablehlo5DivOpEE37inferReturnTypeComponentsFromOperandsEPNS_11MLIRContextESt8optionalINS_8LocationEENS_15ValueShapeRangeENS_14DictionaryAttrENS_11RegionRangeERN4llvm15SmallVectorImplINS_20ShapedTypeComponentsEEE
FN:265,_ZN4mlir3hlo7OpTrait31CompatibleOperandsAndResultTypeINS_9stablehlo5ExpOpEE37inferReturnTypeComponentsFromOperandsEPNS_11MLIRContextESt8optionalINS_8LocationEENS_15ValueShapeRangeENS_14DictionaryAttrENS_11RegionRangeERN4llvm15SmallVectorImplINS_20ShapedTypeComponentsEEE
FNDA:0,_ZN4mlir3hlo7OpTrait31CompatibleOperandsAndResultTypeINS_9stablehlo5ExpOpEE37inferReturnTypeComponentsFromOperandsEPNS_11MLIRContextESt8optionalINS_8LocationEENS_15ValueShapeRangeENS_14DictionaryAttrENS_11RegionRangeERN4llvm15SmallVectorImplINS_20ShapedTypeComponentsEEE
FN:265,_ZN4mlir3hlo7OpTrait31CompatibleOperandsAndResultTypeINS_9stablehlo7Expm1OpEE37inferReturnTypeComponentsFromOperandsEPNS_11MLIRContextESt8optionalINS_8LocationEENS_15ValueShapeRangeENS_14DictionaryAttrENS_11RegionRangeERN4llvm15SmallVectorImplINS_20ShapedTypeComponentsEEE
FNDA:0,_ZN4mlir3hlo7OpTrait31CompatibleOperandsAndResultTypeINS_9stablehlo7Expm1OpEE37inferReturnTypeComponentsFromOperandsEPNS_11MLIRContextESt8optionalINS_8LocationEENS_15ValueShapeRangeENS_14DictionaryAttrENS_11RegionRangeERN4llvm15SmallVectorImplINS_20ShapedTypeComponentsEEE
FN:265,_ZN4mlir3hlo7OpTrait31CompatibleOperandsAndResultTypeINS_9stablehlo7FloorOpEE37inferReturnTypeComponentsFromOperandsEPNS_11MLIRContextESt8optionalINS_8LocationEENS_15ValueShapeRangeENS_14DictionaryAttrENS_11RegionRangeERN4llvm15SmallVectorImplINS_20ShapedTypeComponentsEEE
FNDA:0,_ZN4mlir3hlo7OpTrait31CompatibleOperandsAndResultTypeINS_9stablehlo7FloorOpEE37inferReturnTypeComponentsFromOperandsEPNS_11MLIRContextESt8optionalINS_8LocationEENS_15ValueShapeRangeENS_14DictionaryAttrENS_11RegionRangeERN4llvm15SmallVectorImplINS_20ShapedTypeComponentsEEE
FN:265,_ZN4mlir3hlo7OpTrait31CompatibleOperandsAndResultTypeINS_9stablehlo5LogOpEE37inferReturnTypeComponentsFromOperandsEPNS_11MLIRContextESt8optionalINS_8LocationEENS_15ValueShapeRangeENS_14DictionaryAttrENS_11RegionRangeERN4llvm15SmallVectorImplINS_20ShapedTypeComponentsEEE
FNDA:0,_ZN4mlir3hlo7OpTrait31CompatibleOperandsAndResultTypeINS_9stablehlo5LogOpEE37inferReturnTypeComponentsFromOperandsEPNS_11MLIRContextESt8optionalINS_8LocationEENS_15ValueShapeRangeENS_14DictionaryAttrENS_11RegionRangeERN4llvm15SmallVectorImplINS_20ShapedTypeComponentsEEE
FN:265,_ZN4mlir3hlo7OpTrait31CompatibleOperandsAndResultTypeINS_9stablehlo7Log1pOpEE37inferReturnTypeComponentsFromOperandsEPNS_11MLIRContextESt8optionalINS_8LocationEENS_15ValueShapeRangeENS_14DictionaryAttrENS_11RegionRangeERN4llvm15SmallVectorImplINS_20ShapedTypeComponentsEEE
FNDA:0,_ZN4mlir3hlo7OpTrait31CompatibleOperandsAndResultTypeINS_9stablehlo7Log1pOpEE37inferReturnTypeComponentsFromOperandsEPNS_11MLIRContextESt8optionalINS_8LocationEENS_15ValueShapeRangeENS_14DictionaryAttrENS_11RegionRangeERN4llvm15SmallVectorImplINS_20ShapedTypeComponentsEEE
FN:265,_ZN4mlir3hlo7OpTrait31CompatibleOperandsAndResultTypeINS_9stablehlo10LogisticOpEE37inferReturnTypeComponentsFromOperandsEPNS_11MLIRContextESt8optionalINS_8LocationEENS_15ValueShapeRangeENS_14DictionaryAttrENS_11RegionRangeERN4llvm15SmallVectorImplINS_20ShapedTypeComponentsEEE
FNDA:0,_ZN4mlir3hlo7OpTrait31CompatibleOperandsAndResultTypeINS_9stablehlo10LogisticOpEE37inferReturnTypeComponentsFromOperandsEPNS_11MLIRContextESt8optionalINS_8LocationEENS_15ValueShapeRangeENS_14DictionaryAttrENS_11RegionRangeERN4llvm15SmallVectorImplINS_20ShapedTypeComponentsEEE
FN:265,_ZN4mlir3hlo7OpTrait31CompatibleOperandsAndResultTypeINS_9stablehlo5MaxOpEE37inferReturnTypeComponentsFromOperandsEPNS_11MLIRContextESt8optionalINS_8LocationEENS_15ValueShapeRangeENS_14DictionaryAttrENS_11RegionRangeERN4llvm15SmallVectorImplINS_20ShapedTypeComponentsEEE
FNDA:0,_ZN4mlir3hlo7OpTrait31CompatibleOperandsAndResultTypeINS_9stablehlo5MaxOpEE37inferReturnTypeComponentsFromOperandsEPNS_11MLIRContextESt8optionalINS_8LocationEENS_15ValueShapeRangeENS_14DictionaryAttrENS_11RegionRangeERN4llvm15SmallVectorImplINS_20ShapedTypeComponentsEEE
FN:265,_ZN4mlir3hlo7OpTrait31CompatibleOperandsAndResultTypeINS_9stablehlo5MinOpEE37inferReturnTypeComponentsFromOperandsEPNS_11MLIRContextESt8optionalINS_8LocationEENS_15ValueShapeRangeENS_14DictionaryAttrENS_11RegionRangeERN4llvm15SmallVectorImplINS_20ShapedTypeComponentsEEE
FNDA:0,_ZN4mlir3hlo7OpTrait31CompatibleOperandsAndResultTypeINS_9stablehlo5MinOpEE37inferReturnTypeComponentsFromOperandsEPNS_11MLIRContextESt8optionalINS_8LocationEENS_15ValueShapeRangeENS_14DictionaryAttrENS_11RegionRangeERN4llvm15SmallVectorImplINS_20ShapedTypeComponentsEEE
FN:265,_ZN4mlir3hlo7OpTrait31CompatibleOperandsAndResultTypeINS_9stablehlo5MulOpEE37inferReturnTypeComponentsFromOperandsEPNS_11MLIRContextESt8optionalINS_8LocationEENS_15ValueShapeRangeENS_14DictionaryAttrENS_11RegionRangeERN4llvm15SmallVectorImplINS_20ShapedTypeComponentsEEE
FNDA:0,_ZN4mlir3hlo7OpTrait31CompatibleOperandsAndResultTypeINS_9stablehlo5MulOpEE37inferReturnTypeComponentsFromOperandsEPNS_11MLIRContextESt8optionalINS_8LocationEENS_15ValueShapeRangeENS_14DictionaryAttrENS_11RegionRangeERN4llvm15SmallVectorImplINS_20ShapedTypeComponentsEEE
FN:265,_ZN4mlir3hlo7OpTrait31CompatibleOperandsAndResultTypeINS_9stablehlo5NegOpEE37inferReturnTypeComponentsFromOperandsEPNS_11MLIRContextESt8optionalINS_8LocationEENS_15ValueShapeRangeENS_14DictionaryAttrENS_11RegionRangeERN4llvm15SmallVectorImplINS_20ShapedTypeComponentsEEE
FNDA:0,_ZN4mlir3hlo7OpTrait31CompatibleOperandsAndResultTypeINS_9stablehlo5NegOpEE37inferReturnTypeComponentsFromOperandsEPNS_11MLIRContextESt8optionalINS_8LocationEENS_15ValueShapeRangeENS_14DictionaryAttrENS_11RegionRangeERN4llvm15SmallVectorImplINS_20ShapedTypeComponentsEEE
FN:265,_ZN4mlir3hlo7OpTrait31CompatibleOperandsAndResultTypeINS_9stablehlo5NotOpEE37inferReturnTypeComponentsFromOperandsEPNS_11MLIRContextESt8optionalINS_8LocationEENS_15ValueShapeRangeENS_14DictionaryAttrENS_11RegionRangeERN4llvm15SmallVectorImplINS_20ShapedTypeComponentsEEE
FNDA:0,_ZN4mlir3hlo7OpTrait31CompatibleOperandsAndResultTypeINS_9stablehlo5NotOpEE37inferReturnTypeComponentsFromOperandsEPNS_11MLIRContextESt8optionalINS_8LocationEENS_15ValueShapeRangeENS_14DictionaryAttrENS_11RegionRangeERN4llvm15SmallVectorImplINS_20ShapedTypeComponentsEEE
FN:265,_ZN4mlir3hlo7OpTrait31CompatibleOperandsAndResultTypeINS_9stablehlo4OrOpEE37inferReturnTypeComponentsFromOperandsEPNS_11MLIRContextESt8optionalINS_8LocationEENS_15ValueShapeRangeENS_14DictionaryAttrENS_11RegionRangeERN4llvm15SmallVectorImplINS_20ShapedTypeComponentsEEE
FNDA:0,_ZN4mlir3hlo7OpTrait31CompatibleOperandsAndResultTypeINS_9stablehlo4OrOpEE37inferReturnTypeComponentsFromOperandsEPNS_11MLIRContextESt8optionalINS_8LocationEENS_15ValueShapeRangeENS_14DictionaryAttrENS_11RegionRangeERN4llvm15SmallVectorImplINS_20ShapedTypeComponentsEEE
FN:265,_ZN4mlir3hlo7OpTrait31CompatibleOperandsAndResultTypeINS_9stablehlo17PopulationCountOpEE37inferReturnTypeComponentsFromOperandsEPNS_11MLIRContextESt8optionalINS_8LocationEENS_15ValueShapeRangeENS_14DictionaryAttrENS_11RegionRangeERN4llvm15SmallVectorImplINS_20ShapedTypeComponentsEEE
FNDA:0,_ZN4mlir3hlo7OpTrait31CompatibleOperandsAndResultTypeINS_9stablehlo17PopulationCountOpEE37inferReturnTypeComponentsFromOperandsEPNS_11MLIRContextESt8optionalINS_8LocationEENS_15ValueShapeRangeENS_14DictionaryAttrENS_11RegionRangeERN4llvm15SmallVectorImplINS_20ShapedTypeComponentsEEE
FN:265,_ZN4mlir3hlo7OpTrait31CompatibleOperandsAndResultTypeINS_9stablehlo5PowOpEE37inferReturnTypeComponentsFromOperandsEPNS_11MLIRContextESt8optionalINS_8LocationEENS_15ValueShapeRangeENS_14DictionaryAttrENS_11RegionRangeERN4llvm15SmallVectorImplINS_20ShapedTypeComponentsEEE
FNDA:0,_ZN4mlir3hlo7OpTrait31CompatibleOperandsAndResultTypeINS_9stablehlo5PowOpEE37inferReturnTypeComponentsFromOperandsEPNS_11MLIRContextESt8optionalINS_8LocationEENS_15ValueShapeRangeENS_14DictionaryAttrENS_11RegionRangeERN4llvm15SmallVectorImplINS_20ShapedTypeComponentsEEE
FN:265,_ZN4mlir3hlo7OpTrait31CompatibleOperandsAndResultTypeINS_9stablehlo17ReducePrecisionOpEE37inferReturnTypeComponentsFromOperandsEPNS_11MLIRContextESt8optionalINS_8LocationEENS_15ValueShapeRangeENS_14DictionaryAttrENS_11RegionRangeERN4llvm15SmallVectorImplINS_20ShapedTypeComponentsEEE
FNDA:0,_ZN4mlir3hlo7OpTrait31CompatibleOperandsAndResultTypeINS_9stablehlo17ReducePrecisionOpEE37inferReturnTypeComponentsFromOperandsEPNS_11MLIRContextESt8optionalINS_8LocationEENS_15ValueShapeRangeENS_14DictionaryAttrENS_11RegionRangeERN4llvm15SmallVectorImplINS_20ShapedTypeComponentsEEE
FN:265,_ZN4mlir3hlo7OpTrait31CompatibleOperandsAndResultTypeINS_9stablehlo5RemOpEE37inferReturnTypeComponentsFromOperandsEPNS_11MLIRContextESt8optionalINS_8LocationEENS_15ValueShapeRangeENS_14DictionaryAttrENS_11RegionRangeERN4llvm15SmallVectorImplINS_20ShapedTypeComponentsEEE
FNDA:0,_ZN4mlir3hlo7OpTrait31CompatibleOperandsAndResultTypeINS_9stablehlo5RemOpEE37inferReturnTypeComponentsFromOperandsEPNS_11MLIRContextESt8optionalINS_8LocationEENS_15ValueShapeRangeENS_14DictionaryAttrENS_11RegionRangeERN4llvm15SmallVectorImplINS_20ShapedTypeComponentsEEE
FN:265,_ZN4mlir3hlo7OpTrait31CompatibleOperandsAndResultTypeINS_9stablehlo9ReverseOpEE37inferReturnTypeComponentsFromOperandsEPNS_11MLIRContextESt8optionalINS_8LocationEENS_15ValueShapeRangeENS_14DictionaryAttrENS_11RegionRangeERN4llvm15SmallVectorImplINS_20ShapedTypeComponentsEEE
FNDA:0,_ZN4mlir3hlo7OpTrait31CompatibleOperandsAndResultTypeINS_9stablehlo9ReverseOpEE37inferReturnTypeComponentsFromOperandsEPNS_11MLIRContextESt8optionalINS_8LocationEENS_15ValueShapeRangeENS_14DictionaryAttrENS_11RegionRangeERN4llvm15SmallVectorImplINS_20ShapedTypeComponentsEEE
FN:265,_ZN4mlir3hlo7OpTrait31CompatibleOperandsAndResultTypeINS_9stablehlo18RoundNearestEvenOpEE37inferReturnTypeComponentsFromOperandsEPNS_11MLIRContextESt8optionalINS_8LocationEENS_15ValueShapeRangeENS_14DictionaryAttrENS_11RegionRangeERN4llvm15SmallVectorImplINS_20ShapedTypeComponentsEEE
FNDA:0,_ZN4mlir3hlo7OpTrait31CompatibleOperandsAndResultTypeINS_9stablehlo18RoundNearestEvenOpEE37inferReturnTypeComponentsFromOperandsEPNS_11MLIRContextESt8optionalINS_8LocationEENS_15ValueShapeRangeENS_14DictionaryAttrENS_11RegionRangeERN4llvm15SmallVectorImplINS_20ShapedTypeComponentsEEE
FN:265,_ZN4mlir3hlo7OpTrait31CompatibleOperandsAndResultTypeINS_9stablehlo7RoundOpEE37inferReturnTypeComponentsFromOperandsEPNS_11MLIRContextESt8optionalINS_8LocationEENS_15ValueShapeRangeENS_14DictionaryAttrENS_11RegionRangeERN4llvm15SmallVectorImplINS_20ShapedTypeComponentsEEE
FNDA:0,_ZN4mlir3hlo7OpTrait31CompatibleOperandsAndResultTypeINS_9stablehlo7RoundOpEE37inferReturnTypeComponentsFromOperandsEPNS_11MLIRContextESt8optionalINS_8LocationEENS_15ValueShapeRangeENS_14DictionaryAttrENS_11RegionRangeERN4llvm15SmallVectorImplINS_20ShapedTypeComponentsEEE
FN:265,_ZN4mlir3hlo7OpTrait31CompatibleOperandsAndResultTypeINS_9stablehlo7RsqrtOpEE37inferReturnTypeComponentsFromOperandsEPNS_11MLIRContextESt8optionalINS_8LocationEENS_15ValueShapeRangeENS_14DictionaryAttrENS_11RegionRangeERN4llvm15SmallVectorImplINS_20ShapedTypeComponentsEEE
FNDA:0,_ZN4mlir3hlo7OpTrait31CompatibleOperandsAndResultTypeINS_9stablehlo7RsqrtOpEE37inferReturnTypeComponentsFromOperandsEPNS_11MLIRContextESt8optionalINS_8LocationEENS_15ValueShapeRangeENS_14DictionaryAttrENS_11RegionRangeERN4llvm15SmallVectorImplINS_20ShapedTypeComponentsEEE
FN:265,_ZN4mlir3hlo7OpTrait31CompatibleOperandsAndResultTypeINS_9stablehlo11ShiftLeftOpEE37inferReturnTypeComponentsFromOperandsEPNS_11MLIRContextESt8optionalINS_8LocationEENS_15ValueShapeRangeENS_14DictionaryAttrENS_11RegionRangeERN4llvm15SmallVectorImplINS_20ShapedTypeComponentsEEE
FNDA:0,_ZN4mlir3hlo7OpTrait31CompatibleOperandsAndResultTypeINS_9stablehlo11ShiftLeftOpEE37inferReturnTypeComponentsFromOperandsEPNS_11MLIRContextESt8optionalINS_8LocationEENS_15ValueShapeRangeENS_14DictionaryAttrENS_11RegionRangeERN4llvm15SmallVectorImplINS_20ShapedTypeComponentsEEE
FN:265,_ZN4mlir3hlo7OpTrait31CompatibleOperandsAndResultTypeINS_9stablehlo22ShiftRightArithmeticOpEE37inferReturnTypeComponentsFromOperandsEPNS_11MLIRContextESt8optionalINS_8LocationEENS_15ValueShapeRangeENS_14DictionaryAttrENS_11RegionRangeERN4llvm15SmallVectorImplINS_20ShapedTypeComponentsEEE
FNDA:0,_ZN4mlir3hlo7OpTrait31CompatibleOperandsAndResultTypeINS_9stablehlo22ShiftRightArithmeticOpEE37inferReturnTypeComponentsFromOperandsEPNS_11MLIRContextESt8optionalINS_8LocationEENS_15ValueShapeRangeENS_14DictionaryAttrENS_11RegionRangeERN4llvm15SmallVectorImplINS_20ShapedTypeComponentsEEE
FN:265,_ZN4mlir3hlo7OpTrait31CompatibleOperandsAndResultTypeINS_9stablehlo19ShiftRightLogicalOpEE37inferReturnTypeComponentsFromOperandsEPNS_11MLIRContextESt8optionalINS_8LocationEENS_15ValueShapeRangeENS_14DictionaryAttrENS_11RegionRangeERN4llvm15SmallVectorImplINS_20ShapedTypeComponentsEEE
FNDA:0,_ZN4mlir3hlo7OpTrait31CompatibleOperandsAndResultTypeINS_9stablehlo19ShiftRightLogicalOpEE37inferReturnTypeComponentsFromOperandsEPNS_11MLIRContextESt8optionalINS_8LocationEENS_15ValueShapeRangeENS_14DictionaryAttrENS_11RegionRangeERN4llvm15SmallVectorImplINS_20ShapedTypeComponentsEEE
FN:265,_ZN4mlir3hlo7OpTrait31CompatibleOperandsAndResultTypeINS_9stablehlo6SignOpEE37inferReturnTypeComponentsFromOperandsEPNS_11MLIRContextESt8optionalINS_8LocationEENS_15ValueShapeRangeENS_14DictionaryAttrENS_11RegionRangeERN4llvm15SmallVectorImplINS_20ShapedTypeComponentsEEE
FNDA:0,_ZN4mlir3hlo7OpTrait31CompatibleOperandsAndResultTypeINS_9stablehlo6SignOpEE37inferReturnTypeComponentsFromOperandsEPNS_11MLIRContextESt8optionalINS_8LocationEENS_15ValueShapeRangeENS_14DictionaryAttrENS_11RegionRangeERN4llvm15SmallVectorImplINS_20ShapedTypeComponentsEEE
FN:265,_ZN4mlir3hlo7OpTrait31CompatibleOperandsAndResultTypeINS_9stablehlo6SineOpEE37inferReturnTypeComponentsFromOperandsEPNS_11MLIRContextESt8optionalINS_8LocationEENS_15ValueShapeRangeENS_14DictionaryAttrENS_11RegionRangeERN4llvm15SmallVectorImplINS_20ShapedTypeComponentsEEE
FNDA:0,_ZN4mlir3hlo7OpTrait31CompatibleOperandsAndResultTypeINS_9stablehlo6SineOpEE37inferReturnTypeComponentsFromOperandsEPNS_11MLIRContextESt8optionalINS_8LocationEENS_15ValueShapeRangeENS_14DictionaryAttrENS_11RegionRangeERN4llvm15SmallVectorImplINS_20ShapedTypeComponentsEEE
FN:265,_ZN4mlir3hlo7OpTrait31CompatibleOperandsAndResultTypeINS_9stablehlo6SqrtOpEE37inferReturnTypeComponentsFromOperandsEPNS_11MLIRContextESt8optionalINS_8LocationEENS_15ValueShapeRangeENS_14DictionaryAttrENS_11RegionRangeERN4llvm15SmallVectorImplINS_20ShapedTypeComponentsEEE
FNDA:0,_ZN4mlir3hlo7OpTrait31CompatibleOperandsAndResultTypeINS_9stablehlo6SqrtOpEE37inferReturnTypeComponentsFromOperandsEPNS_11MLIRContextESt8optionalINS_8LocationEENS_15ValueShapeRangeENS_14DictionaryAttrENS_11RegionRangeERN4llvm15SmallVectorImplINS_20ShapedTypeComponentsEEE
FN:265,_ZN4mlir3hlo7OpTrait31CompatibleOperandsAndResultTypeINS_9stablehlo10SubtractOpEE37inferReturnTypeComponentsFromOperandsEPNS_11MLIRContextESt8optionalINS_8LocationEENS_15ValueShapeRangeENS_14DictionaryAttrENS_11RegionRangeERN4llvm15SmallVectorImplINS_20ShapedTypeComponentsEEE
FNDA:0,_ZN4mlir3hlo7OpTrait31CompatibleOperandsAndResultTypeINS_9stablehlo10SubtractOpEE37inferReturnTypeComponentsFromOperandsEPNS_11MLIRContextESt8optionalINS_8LocationEENS_15ValueShapeRangeENS_14DictionaryAttrENS_11RegionRangeERN4llvm15SmallVectorImplINS_20ShapedTypeComponentsEEE
FN:265,_ZN4mlir3hlo7OpTrait31CompatibleOperandsAndResultTypeINS_9stablehlo6TanhOpEE37inferReturnTypeComponentsFromOperandsEPNS_11MLIRContextESt8optionalINS_8LocationEENS_15ValueShapeRangeENS_14DictionaryAttrENS_11RegionRangeERN4llvm15SmallVectorImplINS_20ShapedTypeComponentsEEE
FNDA:0,_ZN4mlir3hlo7OpTrait31CompatibleOperandsAndResultTypeINS_9stablehlo6TanhOpEE37inferReturnTypeComponentsFromOperandsEPNS_11MLIRContextESt8optionalINS_8LocationEENS_15ValueShapeRangeENS_14DictionaryAttrENS_11RegionRangeERN4llvm15SmallVectorImplINS_20ShapedTypeComponentsEEE
FN:265,_ZN4mlir3hlo7OpTrait31CompatibleOperandsAndResultTypeINS_9stablehlo5XorOpEE37inferReturnTypeComponentsFromOperandsEPNS_11MLIRContextESt8optionalINS_8LocationEENS_15ValueShapeRangeENS_14DictionaryAttrENS_11RegionRangeERN4llvm15SmallVectorImplINS_20ShapedTypeComponentsEEE
FNDA:0,_ZN4mlir3hlo7OpTrait31CompatibleOperandsAndResultTypeINS_9stablehlo5XorOpEE37inferReturnTypeComponentsFromOperandsEPNS_11MLIRContextESt8optionalINS_8LocationEENS_15ValueShapeRangeENS_14DictionaryAttrENS_11RegionRangeERN4llvm15SmallVectorImplINS_20ShapedTypeComponentsEEE
DA:145,9408
DA:201,312
DA:202,312
DA:203,312
DA:204,312
DA:205,0
DA:206,0
DA:209,728
DA:210,416
DA:211,0
DA:212,0
DA:213,0
DA:215,416
DA:216,312
DA:217,312
DA:225,15928
DA:226,15928
DA:227,15928
DA:228,15928
DA:229,15928
DA:231,58012
DA:232,42118
DA:234,15894
DA:235,15871
DA:236,15900
DA:237,176
DA:238,88
DA:241,15806
DA:242,15894
DA:244,15721
DA:247,15721
DA:250,15721
DA:251,0
DA:252,0
DA:255,15721
DA:256,15721
DA:257,15721
DA:258,15705
DA:259,15705
DA:260,15721
DA:265,0
DA:268,0
DA:269,0
DA:270,0
DA:271,0
DA:272,0
DA:273,0
DA:274,0
DA:275,0
DA:276,0
end_of_record
SF:/usr/local/google/home/gleasonk/Coding/openxla/stablehlo/stablehlo/dialect/StablehloOps.h
FN:52,_ZN4mlir9stablehlo16StablehloDialectD0Ev
FNDA:9408,_ZN4mlir9stablehlo16StablehloDialectD0Ev
FN:55,_ZN4mlir9stablehlo16StablehloDialect19getDialectNamespaceEv
FNDA:11899,_ZN4mlir9stablehlo16StablehloDialect19getDialectNamespaceEv
FN:87,_ZN4mlir9stablehlo9TokenTypeCI2NS_4TypeEEPKNS_11TypeStorageE
FNDA:8319,_ZN4mlir9stablehlo9TokenTypeCI2NS_4TypeEEPKNS_11TypeStorageE
DA:55,11899
end_of_record
SF:/usr/local/google/home/gleasonk/Coding/openxla/stablehlo/stablehlo/dialect/AssemblyFormat.h
FN:58,_ZN4mlir3hlo30printSameOperandsAndResultTypeIJNS_10TensorTypeES2_EEEvRNS_12OpAsmPrinterEPNS_9OperationEDpT_
FNDA:4224,_ZN4mlir3hlo30printSameOperandsAndResultTypeIJNS_10TensorTypeES2_EEEvRNS_12OpAsmPrinterEPNS_9OperationEDpT_
FN:58,_ZN4mlir3hlo30printSameOperandsAndResultTypeIJNS_10TensorTypeES2_S2_EEEvRNS_12OpAsmPrinterEPNS_9OperationEDpT_
FNDA:5728,_ZN4mlir3hlo30printSameOperandsAndResultTypeIJNS_10TensorTypeES2_S2_EEEvRNS_12OpAsmPrinterEPNS_9OperationEDpT_
FN:58,_ZN4mlir3hlo30printSameOperandsAndResultTypeIJNS_10TensorTypeES2_S2_S2_EEEvRNS_12OpAsmPrinterEPNS_9OperationEDpT_
FNDA:176,_ZN4mlir3hlo30printSameOperandsAndResultTypeIJNS_10TensorTypeES2_S2_S2_EEEvRNS_12OpAsmPrinterEPNS_9OperationEDpT_
FN:68,_ZN4mlir3hlo30parseSameOperandsAndResultTypeIJNS_4TypeES2_EEENS_11ParseResultERNS_11OpAsmParserEDpRT_
FNDA:1072,_ZN4mlir3hlo30parseSameOperandsAndResultTypeIJNS_4TypeES2_EEENS_11ParseResultERNS_11OpAsmParserEDpRT_
FN:68,_ZN4mlir3hlo30parseSameOperandsAndResultTypeIJNS_4TypeES2_S2_EEENS_11ParseResultERNS_11OpAsmParserEDpRT_
FNDA:3800,_ZN4mlir3hlo30parseSameOperandsAndResultTypeIJNS_4TypeES2_S2_EEENS_11ParseResultERNS_11OpAsmParserEDpRT_
FN:68,_ZN4mlir3hlo30parseSameOperandsAndResultTypeIJNS_4TypeES2_S2_S2_EEENS_11ParseResultERNS_11OpAsmParserEDpRT_
FNDA:8,_ZN4mlir3hlo30parseSameOperandsAndResultTypeIJNS_4TypeES2_S2_S2_EEENS_11ParseResultERNS_11OpAsmParserEDpRT_
DA:58,10128
DA:59,10128
DA:61,10128
DA:62,10128
DA:63,10128
DA:64,10128
DA:65,10128
DA:68,4880
DA:69,4880
DA:71,4880
DA:72,4880
DA:73,4880
DA:74,4880
DA:75,4880
end_of_record
SF:/usr/local/google/home/gleasonk/Coding/openxla/stablehlo/stablehlo/dialect/StablehloOps.cpp
FN:89,_ZN4mlir9stablehlo12_GLOBAL__N_110createArgsEN4llvm8ArrayRefINS_11OpAsmParser17UnresolvedOperandEEENS3_INS_4TypeEEERNS2_11SmallVectorINS4_8ArgumentELj1EEE
FNDA:176,_ZN4mlir9stablehlo12_GLOBAL__N_110createArgsEN4llvm8ArrayRefINS_11OpAsmParser17UnresolvedOperandEEENS3_INS_4TypeEEERNS2_11SmallVectorINS4_8ArgumentELj1EEE
FN:103,_ZN4mlir9stablehlo12_GLOBAL__N_117verifyDimInBoundsENS_8LocationENS_10ShapedTypeEl
FNDA:935,_ZN4mlir9stablehlo12_GLOBAL__N_117verifyDimInBoundsENS_8LocationENS_10ShapedTypeEl
FN:115,_ZN4mlir9stablehlo12_GLOBAL__N_111maybeCastToERNS_9OpBuilderENS_8LocationENS_5ValueENS_4TypeE
FNDA:160,_ZN4mlir9stablehlo12_GLOBAL__N_111maybeCastToERNS_9OpBuilderENS_8LocationENS_5ValueENS_4TypeE
FN:126,_ZNK4mlir9stablehlo18TypeExtensionsAttr14verifyEncodingEN4llvm8ArrayRefIlEENS_4TypeENS2_12function_refIFNS_18InFlightDiagnosticEvEEE
FNDA:4608,_ZNK4mlir9stablehlo18TypeExtensionsAttr14verifyEncodingEN4llvm8ArrayRefIlEENS_4TypeENS2_12function_refIFNS_18InFlightDiagnosticEvEEE
FN:137,_ZN4mlir9stablehlo19CollectivePermuteOp5buildERNS_9OpBuilderERNS_14OperationStateENS_4TypeENS_5ValueENS_20DenseIntElementsAttrE
FNDA:0,_ZN4mlir9stablehlo19CollectivePermuteOp5buildERNS_9OpBuilderERNS_14OperationStateENS_4TypeENS_5ValueENS_20DenseIntElementsAttrE
FN:148,_ZN4mlir9stablehlo15ReduceScatterOp6verifyEv
FNDA:398,_ZN4mlir9stablehlo15ReduceScatterOp6verifyEv
FN:171,_ZN4mlir9stablehlo5AddOp25inferReturnTypeComponentsEPNS_11MLIRContextESt8optionalINS_8LocationEENS_15ValueShapeRangeENS_14DictionaryAttrENS_11RegionRangeERN4llvm15SmallVectorImplINS_20ShapedTypeComponentsEEE
FNDA:0,_ZN4mlir9stablehlo5AddOp25inferReturnTypeComponentsEPNS_11MLIRContextESt8optionalINS_8LocationEENS_15ValueShapeRangeENS_14DictionaryAttrENS_11RegionRangeERN4llvm15SmallVectorImplINS_20ShapedTypeComponentsEEE
FN:172,_ZN4mlir9stablehlo11AllReduceOp25inferReturnTypeComponentsEPNS_11MLIRContextESt8optionalINS_8LocationEENS_15ValueShapeRangeENS_14DictionaryAttrENS_11RegionRangeERN4llvm15SmallVectorImplINS_20ShapedTypeComponentsEEE
FNDA:0,_ZN4mlir9stablehlo11AllReduceOp25inferReturnTypeComponentsEPNS_11MLIRContextESt8optionalINS_8LocationEENS_15ValueShapeRangeENS_14DictionaryAttrENS_11RegionRangeERN4llvm15SmallVectorImplINS_20ShapedTypeComponentsEEE
FN:173,_ZN4mlir9stablehlo5AndOp25inferReturnTypeComponentsEPNS_11MLIRContextESt8optionalINS_8LocationEENS_15ValueShapeRangeENS_14DictionaryAttrENS_11RegionRangeERN4llvm15SmallVectorImplINS_20ShapedTypeComponentsEEE
FNDA:0,_ZN4mlir9stablehlo5AndOp25inferReturnTypeComponentsEPNS_11MLIRContextESt8optionalINS_8LocationEENS_15ValueShapeRangeENS_14DictionaryAttrENS_11RegionRangeERN4llvm15SmallVectorImplINS_20ShapedTypeComponentsEEE
FN:174,_ZN4mlir9stablehlo7Atan2Op25inferReturnTypeComponentsEPNS_11MLIRContextESt8optionalINS_8LocationEENS_15ValueShapeRangeENS_14DictionaryAttrENS_11RegionRangeERN4llvm15SmallVectorImplINS_20ShapedTypeComponentsEEE
FNDA:0,_ZN4mlir9stablehlo7Atan2Op25inferReturnTypeComponentsEPNS_11MLIRContextESt8optionalINS_8LocationEENS_15ValueShapeRangeENS_14DictionaryAttrENS_11RegionRangeERN4llvm15SmallVectorImplINS_20ShapedTypeComponentsEEE
FN:175,_ZN4mlir9stablehlo6CbrtOp25inferReturnTypeComponentsEPNS_11MLIRContextESt8optionalINS_8LocationEENS_15ValueShapeRangeENS_14DictionaryAttrENS_11RegionRangeERN4llvm15SmallVectorImplINS_20ShapedTypeComponentsEEE
FNDA:0,_ZN4mlir9stablehlo6CbrtOp25inferReturnTypeComponentsEPNS_11MLIRContextESt8optionalINS_8LocationEENS_15ValueShapeRangeENS_14DictionaryAttrENS_11RegionRangeERN4llvm15SmallVectorImplINS_20ShapedTypeComponentsEEE
FN:176,_ZN4mlir9stablehlo6CeilOp25inferReturnTypeComponentsEPNS_11MLIRContextESt8optionalINS_8LocationEENS_15ValueShapeRangeENS_14DictionaryAttrENS_11RegionRangeERN4llvm15SmallVectorImplINS_20ShapedTypeComponentsEEE
FNDA:0,_ZN4mlir9stablehlo6CeilOp25inferReturnTypeComponentsEPNS_11MLIRContextESt8optionalINS_8LocationEENS_15ValueShapeRangeENS_14DictionaryAttrENS_11RegionRangeERN4llvm15SmallVectorImplINS_20ShapedTypeComponentsEEE
FN:177,_ZN4mlir9stablehlo5ClzOp25inferReturnTypeComponentsEPNS_11MLIRContextESt8optionalINS_8LocationEENS_15ValueShapeRangeENS_14DictionaryAttrENS_11RegionRangeERN4llvm15SmallVectorImplINS_20ShapedTypeComponentsEEE
FNDA:0,_ZN4mlir9stablehlo5ClzOp25inferReturnTypeComponentsEPNS_11MLIRContextESt8optionalINS_8LocationEENS_15ValueShapeRangeENS_14DictionaryAttrENS_11RegionRangeERN4llvm15SmallVectorImplINS_20ShapedTypeComponentsEEE
FN:178,_ZN4mlir9stablehlo19CollectivePermuteOp25inferReturnTypeComponentsEPNS_11MLIRContextESt8optionalINS_8LocationEENS_15ValueShapeRangeENS_14DictionaryAttrENS_11RegionRangeERN4llvm15SmallVectorImplINS_20ShapedTypeComponentsEEE
FNDA:0,_ZN4mlir9stablehlo19CollectivePermuteOp25inferReturnTypeComponentsEPNS_11MLIRContextESt8optionalINS_8LocationEENS_15ValueShapeRangeENS_14DictionaryAttrENS_11RegionRangeERN4llvm15SmallVectorImplINS_20ShapedTypeComponentsEEE
FN:179,_ZN4mlir9stablehlo8CosineOp25inferReturnTypeComponentsEPNS_11MLIRContextESt8optionalINS_8LocationEENS_15ValueShapeRangeENS_14DictionaryAttrENS_11RegionRangeERN4llvm15SmallVectorImplINS_20ShapedTypeComponentsEEE
FNDA:0,_ZN4mlir9stablehlo8CosineOp25inferReturnTypeComponentsEPNS_11MLIRContextESt8optionalINS_8LocationEENS_15ValueShapeRangeENS_14DictionaryAttrENS_11RegionRangeERN4llvm15SmallVectorImplINS_20ShapedTypeComponentsEEE
FN:180,_ZN4mlir9stablehlo17CrossReplicaSumOp25inferReturnTypeComponentsEPNS_11MLIRContextESt8optionalINS_8LocationEENS_15ValueShapeRangeENS_14DictionaryAttrENS_11RegionRangeERN4llvm15SmallVectorImplINS_20ShapedTypeComponentsEEE
FNDA:0,_ZN4mlir9stablehlo17CrossReplicaSumOp25inferReturnTypeComponentsEPNS_11MLIRContextESt8optionalINS_8LocationEENS_15ValueShapeRangeENS_14DictionaryAttrENS_11RegionRangeERN4llvm15SmallVectorImplINS_20ShapedTypeComponentsEEE
FN:181,_ZN4mlir9stablehlo5DivOp25inferReturnTypeComponentsEPNS_11MLIRContextESt8optionalINS_8LocationEENS_15ValueShapeRangeENS_14DictionaryAttrENS_11RegionRangeERN4llvm15SmallVectorImplINS_20ShapedTypeComponentsEEE
FNDA:0,_ZN4mlir9stablehlo5DivOp25inferReturnTypeComponentsEPNS_11MLIRContextESt8optionalINS_8LocationEENS_15ValueShapeRangeENS_14DictionaryAttrENS_11RegionRangeERN4llvm15SmallVectorImplINS_20ShapedTypeComponentsEEE
FN:182,_ZN4mlir9stablehlo5ExpOp25inferReturnTypeComponentsEPNS_11MLIRContextESt8optionalINS_8LocationEENS_15ValueShapeRangeENS_14DictionaryAttrENS_11RegionRangeERN4llvm15SmallVectorImplINS_20ShapedTypeComponentsEEE
FNDA:0,_ZN4mlir9stablehlo5ExpOp25inferReturnTypeComponentsEPNS_11MLIRContextESt8optionalINS_8LocationEENS_15ValueShapeRangeENS_14DictionaryAttrENS_11RegionRangeERN4llvm15SmallVectorImplINS_20ShapedTypeComponentsEEE
FN:183,_ZN4mlir9stablehlo7Expm1Op25inferReturnTypeComponentsEPNS_11MLIRContextESt8optionalINS_8LocationEENS_15ValueShapeRangeENS_14DictionaryAttrENS_11RegionRangeERN4llvm15SmallVectorImplINS_20ShapedTypeComponentsEEE
FNDA:0,_ZN4mlir9stablehlo7Expm1Op25inferReturnTypeComponentsEPNS_11MLIRContextESt8optionalINS_8LocationEENS_15ValueShapeRangeENS_14DictionaryAttrENS_11RegionRangeERN4llvm15SmallVectorImplINS_20ShapedTypeComponentsEEE
FN:184,_ZN4mlir9stablehlo7FloorOp25inferReturnTypeComponentsEPNS_11MLIRContextESt8optionalINS_8LocationEENS_15ValueShapeRangeENS_14DictionaryAttrENS_11RegionRangeERN4llvm15SmallVectorImplINS_20ShapedTypeComponentsEEE
FNDA:0,_ZN4mlir9stablehlo7FloorOp25inferReturnTypeComponentsEPNS_11MLIRContextESt8optionalINS_8LocationEENS_15ValueShapeRangeENS_14DictionaryAttrENS_11RegionRangeERN4llvm15SmallVectorImplINS_20ShapedTypeComponentsEEE
FN:185,_ZN4mlir9stablehlo5LogOp25inferReturnTypeComponentsEPNS_11MLIRContextESt8optionalINS_8LocationEENS_15ValueShapeRangeENS_14DictionaryAttrENS_11RegionRangeERN4llvm15SmallVectorImplINS_20ShapedTypeComponentsEEE
FNDA:0,_ZN4mlir9stablehlo5LogOp25inferReturnTypeComponentsEPNS_11MLIRContextESt8optionalINS_8LocationEENS_15ValueShapeRangeENS_14DictionaryAttrENS_11RegionRangeERN4llvm15SmallVectorImplINS_20ShapedTypeComponentsEEE
FN:186,_ZN4mlir9stablehlo7Log1pOp25inferReturnTypeComponentsEPNS_11MLIRContextESt8optionalINS_8LocationEENS_15ValueShapeRangeENS_14DictionaryAttrENS_11RegionRangeERN4llvm15SmallVectorImplINS_20ShapedTypeComponentsEEE
FNDA:0,_ZN4mlir9stablehlo7Log1pOp25inferReturnTypeComponentsEPNS_11MLIRContextESt8optionalINS_8LocationEENS_15ValueShapeRangeENS_14DictionaryAttrENS_11RegionRangeERN4llvm15SmallVectorImplINS_20ShapedTypeComponentsEEE
FN:187,_ZN4mlir9stablehlo10LogisticOp25inferReturnTypeComponentsEPNS_11MLIRContextESt8optionalINS_8LocationEENS_15ValueShapeRangeENS_14DictionaryAttrENS_11RegionRangeERN4llvm15SmallVectorImplINS_20ShapedTypeComponentsEEE
FNDA:0,_ZN4mlir9stablehlo10LogisticOp25inferReturnTypeComponentsEPNS_11MLIRContextESt8optionalINS_8LocationEENS_15ValueShapeRangeENS_14DictionaryAttrENS_11RegionRangeERN4llvm15SmallVectorImplINS_20ShapedTypeComponentsEEE
FN:188,_ZN4mlir9stablehlo5MaxOp25inferReturnTypeComponentsEPNS_11MLIRContextESt8optionalINS_8LocationEENS_15ValueShapeRangeENS_14DictionaryAttrENS_11RegionRangeERN4llvm15SmallVectorImplINS_20ShapedTypeComponentsEEE
FNDA:0,_ZN4mlir9stablehlo5MaxOp25inferReturnTypeComponentsEPNS_11MLIRContextESt8optionalINS_8LocationEENS_15ValueShapeRangeENS_14DictionaryAttrENS_11RegionRangeERN4llvm15SmallVectorImplINS_20ShapedTypeComponentsEEE
FN:189,_ZN4mlir9stablehlo5MinOp25inferReturnTypeComponentsEPNS_11MLIRContextESt8optionalINS_8LocationEENS_15ValueShapeRangeENS_14DictionaryAttrENS_11RegionRangeERN4llvm15SmallVectorImplINS_20ShapedTypeComponentsEEE
FNDA:0,_ZN4mlir9stablehlo5MinOp25inferReturnTypeComponentsEPNS_11MLIRContextESt8optionalINS_8LocationEENS_15ValueShapeRangeENS_14DictionaryAttrENS_11RegionRangeERN4llvm15SmallVectorImplINS_20ShapedTypeComponentsEEE
FN:190,_ZN4mlir9stablehlo5MulOp25inferReturnTypeComponentsEPNS_11MLIRContextESt8optionalINS_8LocationEENS_15ValueShapeRangeENS_14DictionaryAttrENS_11RegionRangeERN4llvm15SmallVectorImplINS_20ShapedTypeComponentsEEE
FNDA:0,_ZN4mlir9stablehlo5MulOp25inferReturnTypeComponentsEPNS_11MLIRContextESt8optionalINS_8LocationEENS_15ValueShapeRangeENS_14DictionaryAttrENS_11RegionRangeERN4llvm15SmallVectorImplINS_20ShapedTypeComponentsEEE
FN:191,_ZN4mlir9stablehlo5NegOp25inferReturnTypeComponentsEPNS_11MLIRContextESt8optionalINS_8LocationEENS_15ValueShapeRangeENS_14DictionaryAttrENS_11RegionRangeERN4llvm15SmallVectorImplINS_20ShapedTypeComponentsEEE
FNDA:0,_ZN4mlir9stablehlo5NegOp25inferReturnTypeComponentsEPNS_11MLIRContextESt8optionalINS_8LocationEENS_15ValueShapeRangeENS_14DictionaryAttrENS_11RegionRangeERN4llvm15SmallVectorImplINS_20ShapedTypeComponentsEEE
FN:192,_ZN4mlir9stablehlo5NotOp25inferReturnTypeComponentsEPNS_11MLIRContextESt8optionalINS_8LocationEENS_15ValueShapeRangeENS_14DictionaryAttrENS_11RegionRangeERN4llvm15SmallVectorImplINS_20ShapedTypeComponentsEEE
FNDA:0,_ZN4mlir9stablehlo5NotOp25inferReturnTypeComponentsEPNS_11MLIRContextESt8optionalINS_8LocationEENS_15ValueShapeRangeENS_14DictionaryAttrENS_11RegionRangeERN4llvm15SmallVectorImplINS_20ShapedTypeComponentsEEE
FN:193,_ZN4mlir9stablehlo4OrOp25inferReturnTypeComponentsEPNS_11MLIRContextESt8optionalINS_8LocationEENS_15ValueShapeRangeENS_14DictionaryAttrENS_11RegionRangeERN4llvm15SmallVectorImplINS_20ShapedTypeComponentsEEE
FNDA:0,_ZN4mlir9stablehlo4OrOp25inferReturnTypeComponentsEPNS_11MLIRContextESt8optionalINS_8LocationEENS_15ValueShapeRangeENS_14DictionaryAttrENS_11RegionRangeERN4llvm15SmallVectorImplINS_20ShapedTypeComponentsEEE
FN:194,_ZN4mlir9stablehlo17PopulationCountOp25inferReturnTypeComponentsEPNS_11MLIRContextESt8optionalINS_8LocationEENS_15ValueShapeRangeENS_14DictionaryAttrENS_11RegionRangeERN4llvm15SmallVectorImplINS_20ShapedTypeComponentsEEE
FNDA:0,_ZN4mlir9stablehlo17PopulationCountOp25inferReturnTypeComponentsEPNS_11MLIRContextESt8optionalINS_8LocationEENS_15ValueShapeRangeENS_14DictionaryAttrENS_11RegionRangeERN4llvm15SmallVectorImplINS_20ShapedTypeComponentsEEE
FN:195,_ZN4mlir9stablehlo5PowOp25inferReturnTypeComponentsEPNS_11MLIRContextESt8optionalINS_8LocationEENS_15ValueShapeRangeENS_14DictionaryAttrENS_11RegionRangeERN4llvm15SmallVectorImplINS_20ShapedTypeComponentsEEE
FNDA:0,_ZN4mlir9stablehlo5PowOp25inferReturnTypeComponentsEPNS_11MLIRContextESt8optionalINS_8LocationEENS_15ValueShapeRangeENS_14DictionaryAttrENS_11RegionRangeERN4llvm15SmallVectorImplINS_20ShapedTypeComponentsEEE
FN:196,_ZN4mlir9stablehlo17ReducePrecisionOp25inferReturnTypeComponentsEPNS_11MLIRContextESt8optionalINS_8LocationEENS_15ValueShapeRangeENS_14DictionaryAttrENS_11RegionRangeERN4llvm15SmallVectorImplINS_20ShapedTypeComponentsEEE
FNDA:0,_ZN4mlir9stablehlo17ReducePrecisionOp25inferReturnTypeComponentsEPNS_11MLIRContextESt8optionalINS_8LocationEENS_15ValueShapeRangeENS_14DictionaryAttrENS_11RegionRangeERN4llvm15SmallVectorImplINS_20ShapedTypeComponentsEEE
FN:197,_ZN4mlir9stablehlo5RemOp25inferReturnTypeComponentsEPNS_11MLIRContextESt8optionalINS_8LocationEENS_15ValueShapeRangeENS_14DictionaryAttrENS_11RegionRangeERN4llvm15SmallVectorImplINS_20ShapedTypeComponentsEEE
FNDA:0,_ZN4mlir9stablehlo5RemOp25inferReturnTypeComponentsEPNS_11MLIRContextESt8optionalINS_8LocationEENS_15ValueShapeRangeENS_14DictionaryAttrENS_11RegionRangeERN4llvm15SmallVectorImplINS_20ShapedTypeComponentsEEE
FN:198,_ZN4mlir9stablehlo9ReverseOp25inferReturnTypeComponentsEPNS_11MLIRContextESt8optionalINS_8LocationEENS_15ValueShapeRangeENS_14DictionaryAttrENS_11RegionRangeERN4llvm15SmallVectorImplINS_20ShapedTypeComponentsEEE
FNDA:0,_ZN4mlir9stablehlo9ReverseOp25inferReturnTypeComponentsEPNS_11MLIRContextESt8optionalINS_8LocationEENS_15ValueShapeRangeENS_14DictionaryAttrENS_11RegionRangeERN4llvm15SmallVectorImplINS_20ShapedTypeComponentsEEE
FN:199,_ZN4mlir9stablehlo18RoundNearestEvenOp25inferReturnTypeComponentsEPNS_11MLIRContextESt8optionalINS_8LocationEENS_15ValueShapeRangeENS_14DictionaryAttrENS_11RegionRangeERN4llvm15SmallVectorImplINS_20ShapedTypeComponentsEEE
FNDA:0,_ZN4mlir9stablehlo18RoundNearestEvenOp25inferReturnTypeComponentsEPNS_11MLIRContextESt8optionalINS_8LocationEENS_15ValueShapeRangeENS_14DictionaryAttrENS_11RegionRangeERN4llvm15SmallVectorImplINS_20ShapedTypeComponentsEEE
FN:200,_ZN4mlir9stablehlo7RoundOp25inferReturnTypeComponentsEPNS_11MLIRContextESt8optionalINS_8LocationEENS_15ValueShapeRangeENS_14DictionaryAttrENS_11RegionRangeERN4llvm15SmallVectorImplINS_20ShapedTypeComponentsEEE
FNDA:0,_ZN4mlir9stablehlo7RoundOp25inferReturnTypeComponentsEPNS_11MLIRContextESt8optionalINS_8LocationEENS_15ValueShapeRangeENS_14DictionaryAttrENS_11RegionRangeERN4llvm15SmallVectorImplINS_20ShapedTypeComponentsEEE
FN:201,_ZN4mlir9stablehlo7RsqrtOp25inferReturnTypeComponentsEPNS_11MLIRContextESt8optionalINS_8LocationEENS_15ValueShapeRangeENS_14DictionaryAttrENS_11RegionRangeERN4llvm15SmallVectorImplINS_20ShapedTypeComponentsEEE
FNDA:0,_ZN4mlir9stablehlo7RsqrtOp25inferReturnTypeComponentsEPNS_11MLIRContextESt8optionalINS_8LocationEENS_15ValueShapeRangeENS_14DictionaryAttrENS_11RegionRangeERN4llvm15SmallVectorImplINS_20ShapedTypeComponentsEEE
FN:202,_ZN4mlir9stablehlo11ShiftLeftOp25inferReturnTypeComponentsEPNS_11MLIRContextESt8optionalINS_8LocationEENS_15ValueShapeRangeENS_14DictionaryAttrENS_11RegionRangeERN4llvm15SmallVectorImplINS_20ShapedTypeComponentsEEE
FNDA:0,_ZN4mlir9stablehlo11ShiftLeftOp25inferReturnTypeComponentsEPNS_11MLIRContextESt8optionalINS_8LocationEENS_15ValueShapeRangeENS_14DictionaryAttrENS_11RegionRangeERN4llvm15SmallVectorImplINS_20ShapedTypeComponentsEEE
FN:203,_ZN4mlir9stablehlo22ShiftRightArithmeticOp25inferReturnTypeComponentsEPNS_11MLIRContextESt8optionalINS_8LocationEENS_15ValueShapeRangeENS_14DictionaryAttrENS_11RegionRangeERN4llvm15SmallVectorImplINS_20ShapedTypeComponentsEEE
FNDA:0,_ZN4mlir9stablehlo22ShiftRightArithmeticOp25inferReturnTypeComponentsEPNS_11MLIRContextESt8optionalINS_8LocationEENS_15ValueShapeRangeENS_14DictionaryAttrENS_11RegionRangeERN4llvm15SmallVectorImplINS_20ShapedTypeComponentsEEE
FN:204,_ZN4mlir9stablehlo19ShiftRightLogicalOp25inferReturnTypeComponentsEPNS_11MLIRContextESt8optionalINS_8LocationEENS_15ValueShapeRangeENS_14DictionaryAttrENS_11RegionRangeERN4llvm15SmallVectorImplINS_20ShapedTypeComponentsEEE
FNDA:0,_ZN4mlir9stablehlo19ShiftRightLogicalOp25inferReturnTypeComponentsEPNS_11MLIRContextESt8optionalINS_8LocationEENS_15ValueShapeRangeENS_14DictionaryAttrENS_11RegionRangeERN4llvm15SmallVectorImplINS_20ShapedTypeComponentsEEE
FN:205,_ZN4mlir9stablehlo6SignOp25inferReturnTypeComponentsEPNS_11MLIRContextESt8optionalINS_8LocationEENS_15ValueShapeRangeENS_14DictionaryAttrENS_11RegionRangeERN4llvm15SmallVectorImplINS_20ShapedTypeComponentsEEE
FNDA:0,_ZN4mlir9stablehlo6SignOp25inferReturnTypeComponentsEPNS_11MLIRContextESt8optionalINS_8LocationEENS_15ValueShapeRangeENS_14DictionaryAttrENS_11RegionRangeERN4llvm15SmallVectorImplINS_20ShapedTypeComponentsEEE
FN:206,_ZN4mlir9stablehlo6SineOp25inferReturnTypeComponentsEPNS_11MLIRContextESt8optionalINS_8LocationEENS_15ValueShapeRangeENS_14DictionaryAttrENS_11RegionRangeERN4llvm15SmallVectorImplINS_20ShapedTypeComponentsEEE
FNDA:0,_ZN4mlir9stablehlo6SineOp25inferReturnTypeComponentsEPNS_11MLIRContextESt8optionalINS_8LocationEENS_15ValueShapeRangeENS_14DictionaryAttrENS_11RegionRangeERN4llvm15SmallVectorImplINS_20ShapedTypeComponentsEEE
FN:207,_ZN4mlir9stablehlo6SqrtOp25inferReturnTypeComponentsEPNS_11MLIRContextESt8optionalINS_8LocationEENS_15ValueShapeRangeENS_14DictionaryAttrENS_11RegionRangeERN4llvm15SmallVectorImplINS_20ShapedTypeComponentsEEE
FNDA:0,_ZN4mlir9stablehlo6SqrtOp25inferReturnTypeComponentsEPNS_11MLIRContextESt8optionalINS_8LocationEENS_15ValueShapeRangeENS_14DictionaryAttrENS_11RegionRangeERN4llvm15SmallVectorImplINS_20ShapedTypeComponentsEEE
FN:208,_ZN4mlir9stablehlo10SubtractOp25inferReturnTypeComponentsEPNS_11MLIRContextESt8optionalINS_8LocationEENS_15ValueShapeRangeENS_14DictionaryAttrENS_11RegionRangeERN4llvm15SmallVectorImplINS_20ShapedTypeComponentsEEE
FNDA:0,_ZN4mlir9stablehlo10SubtractOp25inferReturnTypeComponentsEPNS_11MLIRContextESt8optionalINS_8LocationEENS_15ValueShapeRangeENS_14DictionaryAttrENS_11RegionRangeERN4llvm15SmallVectorImplINS_20ShapedTypeComponentsEEE
FN:209,_ZN4mlir9stablehlo6TanhOp25inferReturnTypeComponentsEPNS_11MLIRContextESt8optionalINS_8LocationEENS_15ValueShapeRangeENS_14DictionaryAttrENS_11RegionRangeERN4llvm15SmallVectorImplINS_20ShapedTypeComponentsEEE
FNDA:0,_ZN4mlir9stablehlo6TanhOp25inferReturnTypeComponentsEPNS_11MLIRContextESt8optionalINS_8LocationEENS_15ValueShapeRangeENS_14DictionaryAttrENS_11RegionRangeERN4llvm15SmallVectorImplINS_20ShapedTypeComponentsEEE
FN:210,_ZN4mlir9stablehlo5XorOp25inferReturnTypeComponentsEPNS_11MLIRContextESt8optionalINS_8LocationEENS_15ValueShapeRangeENS_14DictionaryAttrENS_11RegionRangeERN4llvm15SmallVectorImplINS_20ShapedTypeComponentsEEE
FNDA:0,_ZN4mlir9stablehlo5XorOp25inferReturnTypeComponentsEPNS_11MLIRContextESt8optionalINS_8LocationEENS_15ValueShapeRangeENS_14DictionaryAttrENS_11RegionRangeERN4llvm15SmallVectorImplINS_20ShapedTypeComponentsEEE
FN:216,_ZN4mlir9stablehlo10AfterAllOp16inferReturnTypesEPNS_11MLIRContextESt8optionalINS_8LocationEENS_10ValueRangeENS_14DictionaryAttrENS_11RegionRangeERN4llvm15SmallVectorImplINS_4TypeEEE
FNDA:328,_ZN4mlir9stablehlo10AfterAllOp16inferReturnTypesEPNS_11MLIRContextESt8optionalINS_8LocationEENS_10ValueRangeENS_14DictionaryAttrENS_11RegionRangeERN4llvm15SmallVectorImplINS_4TypeEEE
FN:228,_ZN4mlir9stablehlo10ConstantOp4foldENS0_24ConstantOpGenericAdaptorIN4llvm8ArrayRefINS_9AttributeEEEEE
FNDA:3784,_ZN4mlir9stablehlo10ConstantOp4foldENS0_24ConstantOpGenericAdaptorIN4llvm8ArrayRefINS_9AttributeEEEEE
FN:236,_ZN4mlir9stablehlo10ConstantOp5buildERNS_9OpBuilderERNS_14OperationStateENS_9AttributeE
FNDA:168,_ZN4mlir9stablehlo10ConstantOp5buildERNS_9OpBuilderERNS_14OperationStateENS_9AttributeE
FN:261,_ZN4mlir9stablehlo10ConstantOp16inferReturnTypesEPNS_11MLIRContextESt8optionalINS_8LocationEENS_10ValueRangeENS_14DictionaryAttrENS_11RegionRangeERN4llvm15SmallVectorImplINS_4TypeEEE
FNDA:8848,_ZN4mlir9stablehlo10ConstantOp16inferReturnTypesEPNS_11MLIRContextESt8optionalINS_8LocationEENS_10ValueRangeENS_14DictionaryAttrENS_11RegionRangeERN4llvm15SmallVectorImplINS_4TypeEEE
FN:270,_ZN4mlir9stablehlo10ConstantOp23isCompatibleReturnTypesENS_9TypeRangeES2_
FNDA:8097,_ZN4mlir9stablehlo10ConstantOp23isCompatibleReturnTypesENS_9TypeRangeES2_
FN:282,_ZN4mlir9stablehlo10ConstantOp5parseERNS_11OpAsmParserERNS_14OperationStateE
FNDA:4048,_ZN4mlir9stablehlo10ConstantOp5parseERNS_11OpAsmParserERNS_14OperationStateE
FN:311,_ZN4mlir9stablehlo10ConstantOp5printERNS_12OpAsmPrinterE
FNDA:1568,_ZN4mlir9stablehlo10ConstantOp5printERNS_12OpAsmPrinterE
FN:327,_ZN4mlir9stablehlo13CreateTokenOp16inferReturnTypesEPNS_11MLIRContextESt8optionalINS_8LocationEENS_10ValueRangeENS_14DictionaryAttrENS_11RegionRangeERN4llvm15SmallVectorImplINS_4TypeEEE
FNDA:264,_ZN4mlir9stablehlo13CreateTokenOp16inferReturnTypesEPNS_11MLIRContextESt8optionalINS_8LocationEENS_10ValueRangeENS_14DictionaryAttrENS_11RegionRangeERN4llvm15SmallVectorImplINS_4TypeEEE
FN:339,_ZN4mlir9stablehlo12CustomCallOp6verifyEv
FNDA:1015,_ZN4mlir9stablehlo12CustomCallOp6verifyEv
FN:351,_ZZN4mlir9stablehlo12CustomCallOp6verifyEvENK3$_9clENS_9TypeRangeENS_9ArrayAttrERKNSt7__cxx1112basic_stringIcSt11char_traitsIcESaIcEEE
FNDA:504,_ZZN4mlir9stablehlo12CustomCallOp6verifyEvENK3$_9clENS_9TypeRangeENS_9ArrayAttrERKNSt7__cxx1112basic_stringIcSt11char_traitsIcESaIcEEE
FN:477,_ZN4mlir9stablehlo12CustomCallOp10getEffectsERN4llvm15SmallVectorImplINS_11SideEffects14EffectInstanceINS_13MemoryEffects6EffectEEEEE
FNDA:16,_ZN4mlir9stablehlo12CustomCallOp10getEffectsERN4llvm15SmallVectorImplINS_11SideEffects14EffectInstanceINS_13MemoryEffects6EffectEEEEE
FN:494,_ZN4mlir9stablehlo10CholeskyOp25inferReturnTypeComponentsEPNS_11MLIRContextESt8optionalINS_8LocationEENS_15ValueShapeRangeENS_14DictionaryAttrENS_11RegionRangeERN4llvm15SmallVectorImplINS_20ShapedTypeComponentsEEE
FNDA:216,_ZN4mlir9stablehlo10CholeskyOp25inferReturnTypeComponentsEPNS_11MLIRContextESt8optionalINS_8LocationEENS_15ValueShapeRangeENS_14DictionaryAttrENS_11RegionRangeERN4llvm15SmallVectorImplINS_20ShapedTypeComponentsEEE
FN:506,_ZN4mlir9stablehlo5DotOp6verifyEv
FNDA:805,_ZN4mlir9stablehlo5DotOp6verifyEv
FN:516,_ZN4mlir9stablehlo20printPrecisionConfigERNS_12OpAsmPrinterEPNS_9OperationENS_9ArrayAttrE
FNDA:608,_ZN4mlir9stablehlo20printPrecisionConfigERNS_12OpAsmPrinterEPNS_9OperationENS_9ArrayAttrE
FN:522,_ZZN4mlir9stablehlo20printPrecisionConfigERNS_12OpAsmPrinterEPNS_9OperationENS_9ArrayAttrEENK4$_10clENS_9AttributeE
FNDA:480,_ZZN4mlir9stablehlo20printPrecisionConfigERNS_12OpAsmPrinterEPNS_9OperationENS_9ArrayAttrEENK4$_10clENS_9AttributeE
FN:528,_ZN4mlir9stablehlo20parsePrecisionConfigERNS_11OpAsmParserERNS_9ArrayAttrE
FNDA:72,_ZN4mlir9stablehlo20parsePrecisionConfigERNS_11OpAsmParserERNS_9ArrayAttrE
FN:537,_ZZN4mlir9stablehlo20parsePrecisionConfigERNS_11OpAsmParserERNS_9ArrayAttrEENK4$_11clEv
FNDA:48,_ZZN4mlir9stablehlo20parsePrecisionConfigERNS_11OpAsmParserERNS_9ArrayAttrEENK4$_11clEv
FN:551,_ZN4mlir9stablehlo12DotGeneralOp6verifyEv
FNDA:551,_ZN4mlir9stablehlo12DotGeneralOp6verifyEv
FN:561,_ZN4mlir9stablehlo12DotGeneralOp21reifyReturnTypeShapesERNS_9OpBuilderENS_10ValueRangeERN4llvm15SmallVectorImplINS_5ValueEEE
FNDA:8,_ZN4mlir9stablehlo12DotGeneralOp21reifyReturnTypeShapesERNS_9OpBuilderENS_10ValueRangeERN4llvm15SmallVectorImplINS_5ValueEEE
FN:595,_ZN4mlir9stablehlo5FftOp25inferReturnTypeComponentsEPNS_11MLIRContextESt8optionalINS_8LocationEENS_15ValueShapeRangeENS_14DictionaryAttrENS_11RegionRangeERN4llvm15SmallVectorImplINS_20ShapedTypeComponentsEEE
FNDA:824,_ZN4mlir9stablehlo5FftOp25inferReturnTypeComponentsEPNS_11MLIRContextESt8optionalINS_8LocationEENS_15ValueShapeRangeENS_14DictionaryAttrENS_11RegionRangeERN4llvm15SmallVectorImplINS_20ShapedTypeComponentsEEE
FN:627,_ZN4mlir9stablehlo12_GLOBAL__N_118getSliceSizeValuesEPNS0_8GatherOpERNS_9OpBuilderENS_8LocationENS_10ValueRangeERN4llvm15SmallVectorImplINS_5ValueEEE
FNDA:8,_ZN4mlir9stablehlo12_GLOBAL__N_118getSliceSizeValuesEPNS0_8GatherOpERNS_9OpBuilderENS_8LocationENS_10ValueRangeERN4llvm15SmallVectorImplINS_5ValueEEE
FN:634,_ZN4mlir9stablehlo12_GLOBAL__N_118getSliceSizeValuesEPNS0_15DynamicGatherOpERNS_9OpBuilderENS_8LocationENS_10ValueRangeERN4llvm15SmallVectorImplINS_5ValueEEE
FNDA:0,_ZN4mlir9stablehlo12_GLOBAL__N_118getSliceSizeValuesEPNS0_15DynamicGatherOpERNS_9OpBuilderENS_8LocationENS_10ValueRangeERN4llvm15SmallVectorImplINS_5ValueEEE
FN:648,_ZN4mlir9stablehlo12_GLOBAL__N_116reifyGatherShapeINS0_8GatherOpEEENS_13LogicalResultEPT_RNS_9OpBuilderENS_10ValueRangeERN4llvm15SmallVectorImplINS_5ValueEEE
FNDA:8,_ZN4mlir9stablehlo12_GLOBAL__N_116reifyGatherShapeINS0_8GatherOpEEENS_13LogicalResultEPT_RNS_9OpBuilderENS_10ValueRangeERN4llvm15SmallVectorImplINS_5ValueEEE
FN:648,_ZN4mlir9stablehlo12_GLOBAL__N_116reifyGatherShapeINS0_15DynamicGatherOpEEENS_13LogicalResultEPT_RNS_9OpBuilderENS_10ValueRangeERN4llvm15SmallVectorImplINS_5ValueEEE
FNDA:0,_ZN4mlir9stablehlo12_GLOBAL__N_116reifyGatherShapeINS0_15DynamicGatherOpEEENS_13LogicalResultEPT_RNS_9OpBuilderENS_10ValueRangeERN4llvm15SmallVectorImplINS_5ValueEEE
FN:661,_ZZN4mlir9stablehlo12_GLOBAL__N_116reifyGatherShapeINS0_8GatherOpEEENS_13LogicalResultEPT_RNS_9OpBuilderENS_10ValueRangeERN4llvm15SmallVectorImplINS_5ValueEEEENKUlSC_E_clESC_
FNDA:40,_ZZN4mlir9stablehlo12_GLOBAL__N_116reifyGatherShapeINS0_8GatherOpEEENS_13LogicalResultEPT_RNS_9OpBuilderENS_10ValueRangeERN4llvm15SmallVectorImplINS_5ValueEEEENKUlSC_E_clESC_
FN:661,_ZZN4mlir9stablehlo12_GLOBAL__N_116reifyGatherShapeINS0_15DynamicGatherOpEEENS_13LogicalResultEPT_RNS_9OpBuilderENS_10ValueRangeERN4llvm15SmallVectorImplINS_5ValueEEEENKUlSC_E_clESC_
FNDA:0,_ZZN4mlir9stablehlo12_GLOBAL__N_116reifyGatherShapeINS0_15DynamicGatherOpEEENS_13LogicalResultEPT_RNS_9OpBuilderENS_10ValueRangeERN4llvm15SmallVectorImplINS_5ValueEEEENKUlSC_E_clESC_
FN:668,_ZZN4mlir9stablehlo12_GLOBAL__N_116reifyGatherShapeINS0_8GatherOpEEENS_13LogicalResultEPT_RNS_9OpBuilderENS_10ValueRangeERN4llvm15SmallVectorImplINS_5ValueEEEENKUlSC_E0_clESC_
FNDA:24,_ZZN4mlir9stablehlo12_GLOBAL__N_116reifyGatherShapeINS0_8GatherOpEEENS_13LogicalResultEPT_RNS_9OpBuilderENS_10ValueRangeERN4llvm15SmallVectorImplINS_5ValueEEEENKUlSC_E0_clESC_
FN:668,_ZZN4mlir9stablehlo12_GLOBAL__N_116reifyGatherShapeINS0_15DynamicGatherOpEEENS_13LogicalResultEPT_RNS_9OpBuilderENS_10ValueRangeERN4llvm15SmallVectorImplINS_5ValueEEEENKUlSC_E0_clESC_
FNDA:0,_ZZN4mlir9stablehlo12_GLOBAL__N_116reifyGatherShapeINS0_15DynamicGatherOpEEENS_13LogicalResultEPT_RNS_9OpBuilderENS_10ValueRangeERN4llvm15SmallVectorImplINS_5ValueEEEENKUlSC_E0_clESC_
FN:670,_ZZN4mlir9stablehlo12_GLOBAL__N_116reifyGatherShapeINS0_8GatherOpEEENS_13LogicalResultEPT_RNS_9OpBuilderENS_10ValueRangeERN4llvm15SmallVectorImplINS_5ValueEEEENKUllE_clEl
FNDA:16,_ZZN4mlir9stablehlo12_GLOBAL__N_116reifyGatherShapeINS0_8GatherOpEEENS_13LogicalResultEPT_RNS_9OpBuilderENS_10ValueRangeERN4llvm15SmallVectorImplINS_5ValueEEEENKUllE_clEl
FN:670,_ZZN4mlir9stablehlo12_GLOBAL__N_116reifyGatherShapeINS0_15DynamicGatherOpEEENS_13LogicalResultEPT_RNS_9OpBuilderENS_10ValueRangeERN4llvm15SmallVectorImplINS_5ValueEEEENKUllE_clEl
FNDA:0,_ZZN4mlir9stablehlo12_GLOBAL__N_116reifyGatherShapeINS0_15DynamicGatherOpEEENS_13LogicalResultEPT_RNS_9OpBuilderENS_10ValueRangeERN4llvm15SmallVectorImplINS_5ValueEEEENKUllE_clEl
FN:675,_ZZN4mlir9stablehlo12_GLOBAL__N_116reifyGatherShapeINS0_8GatherOpEEENS_13LogicalResultEPT_RNS_9OpBuilderENS_10ValueRangeERN4llvm15SmallVectorImplINS_5ValueEEEENKUllE0_clEl
FNDA:16,_ZZN4mlir9stablehlo12_GLOBAL__N_116reifyGatherShapeINS0_8GatherOpEEENS_13LogicalResultEPT_RNS_9OpBuilderENS_10ValueRangeERN4llvm15SmallVectorImplINS_5ValueEEEENKUllE0_clEl
FN:675,_ZZN4mlir9stablehlo12_GLOBAL__N_116reifyGatherShapeINS0_15DynamicGatherOpEEENS_13LogicalResultEPT_RNS_9OpBuilderENS_10ValueRangeERN4llvm15SmallVectorImplINS_5ValueEEEENKUllE0_clEl
FNDA:0,_ZZN4mlir9stablehlo12_GLOBAL__N_116reifyGatherShapeINS0_15DynamicGatherOpEEENS_13LogicalResultEPT_RNS_9OpBuilderENS_10ValueRangeERN4llvm15SmallVectorImplINS_5ValueEEEENKUllE0_clEl
FN:694,_ZN4mlir9stablehlo8GatherOp21reifyReturnTypeShapesERNS_9OpBuilderENS_10ValueRangeERN4llvm15SmallVectorImplINS_5ValueEEE
FNDA:8,_ZN4mlir9stablehlo8GatherOp21reifyReturnTypeShapesERNS_9OpBuilderENS_10ValueRangeERN4llvm15SmallVectorImplINS_5ValueEEE
FN:700,_ZN4mlir9stablehlo8GatherOp25inferReturnTypeComponentsEPNS_11MLIRContextESt8optionalINS_8LocationEENS_15ValueShapeRangeENS_14DictionaryAttrENS_11RegionRangeERN4llvm15SmallVectorImplINS_20ShapedTypeComponentsEEE
FNDA:480,_ZN4mlir9stablehlo8GatherOp25inferReturnTypeComponentsEPNS_11MLIRContextESt8optionalINS_8LocationEENS_15ValueShapeRangeENS_14DictionaryAttrENS_11RegionRangeERN4llvm15SmallVectorImplINS_20ShapedTypeComponentsEEE
FN:718,_ZN4mlir9stablehlo15DynamicGatherOp21reifyReturnTypeShapesERNS_9OpBuilderENS_10ValueRangeERN4llvm15SmallVectorImplINS_5ValueEEE
FNDA:0,_ZN4mlir9stablehlo15DynamicGatherOp21reifyReturnTypeShapesERNS_9OpBuilderENS_10ValueRangeERN4llvm15SmallVectorImplINS_5ValueEEE
FN:724,_ZN4mlir9stablehlo15DynamicGatherOp25inferReturnTypeComponentsEPNS_11MLIRContextESt8optionalINS_8LocationEENS_15ValueShapeRangeENS_14DictionaryAttrENS_11RegionRangeERN4llvm15SmallVectorImplINS_20ShapedTypeComponentsEEE
FNDA:216,_ZN4mlir9stablehlo15DynamicGatherOp25inferReturnTypeComponentsEPNS_11MLIRContextESt8optionalINS_8LocationEENS_15ValueShapeRangeENS_14DictionaryAttrENS_11RegionRangeERN4llvm15SmallVectorImplINS_20ShapedTypeComponentsEEE
FN:741,_ZN4mlir9stablehlo18GetDimensionSizeOp6verifyEv
FNDA:288,_ZN4mlir9stablehlo18GetDimensionSizeOp6verifyEv
FN:747,_ZN4mlir9stablehlo18GetDimensionSizeOp16inferReturnTypesEPNS_11MLIRContextESt8optionalINS_8LocationEENS_10ValueRangeENS_14DictionaryAttrENS_11RegionRangeERN4llvm15SmallVectorImplINS_4TypeEEE
FNDA:272,_ZN4mlir9stablehlo18GetDimensionSizeOp16inferReturnTypesEPNS_11MLIRContextESt8optionalINS_8LocationEENS_10ValueRangeENS_14DictionaryAttrENS_11RegionRangeERN4llvm15SmallVectorImplINS_4TypeEEE
FN:757,_ZN4mlir9stablehlo6IotaOp6verifyEv
FNDA:632,_ZN4mlir9stablehlo6IotaOp6verifyEv
FN:765,_ZN4mlir9stablehloL17castToIndexTensorERNS_9OpBuilderENS_8LocationENS_5ValueE
FNDA:8,_ZN4mlir9stablehloL17castToIndexTensorERNS_9OpBuilderENS_8LocationENS_5ValueE
FN:773,_ZN4mlir9stablehlo13DynamicIotaOp21reifyReturnTypeShapesERNS_9OpBuilderENS_10ValueRangeERN4llvm15SmallVectorImplINS_5ValueEEE
FNDA:8,_ZN4mlir9stablehlo13DynamicIotaOp21reifyReturnTypeShapesERNS_9OpBuilderENS_10ValueRangeERN4llvm15SmallVectorImplINS_5ValueEEE
FN:786,_ZN4mlir9stablehlo20DynamicUpdateSliceOp25inferReturnTypeComponentsEPNS_11MLIRContextESt8optionalINS_8LocationEENS_15ValueShapeRangeENS_14DictionaryAttrENS_11RegionRangeERN4llvm15SmallVectorImplINS_20ShapedTypeComponentsEEE
FNDA:264,_ZN4mlir9stablehlo20DynamicUpdateSliceOp25inferReturnTypeComponentsEPNS_11MLIRContextESt8optionalINS_8LocationEENS_15ValueShapeRangeENS_14DictionaryAttrENS_11RegionRangeERN4llvm15SmallVectorImplINS_20ShapedTypeComponentsEEE
FN:800,_ZN4mlir9stablehlo5AbsOp16inferReturnTypesEPNS_11MLIRContextESt8optionalINS_8LocationEENS_10ValueRangeENS_14DictionaryAttrENS_11RegionRangeERN4llvm15SmallVectorImplINS_4TypeEEE
FNDA:999,_ZN4mlir9stablehlo5AbsOp16inferReturnTypesEPNS_11MLIRContextESt8optionalINS_8LocationEENS_10ValueRangeENS_14DictionaryAttrENS_11RegionRangeERN4llvm15SmallVectorImplINS_4TypeEEE
FN:812,_ZN4mlir9stablehlo19CollectivePermuteOp6verifyEv
FNDA:342,_ZN4mlir9stablehlo19CollectivePermuteOp6verifyEv
FN:820,_ZN4mlir9stablehlo13ConvolutionOp6verifyEv
FNDA:782,_ZN4mlir9stablehlo13ConvolutionOp6verifyEv
FN:841,_ZN4mlir9stablehlo9ConvertOp5buildERNS_9OpBuilderERNS_14OperationStateENS_5ValueENS_4TypeE
FNDA:0,_ZN4mlir9stablehlo9ConvertOp5buildERNS_9OpBuilderERNS_14OperationStateENS_5ValueENS_4TypeE
FN:856,_ZN4mlir9stablehlo10AllToAllOp25inferReturnTypeComponentsEPNS_11MLIRContextESt8optionalINS_8LocationEENS_15ValueShapeRangeENS_14DictionaryAttrENS_11RegionRangeERN4llvm15SmallVectorImplINS_20ShapedTypeComponentsEEE
FNDA:296,_ZN4mlir9stablehlo10AllToAllOp25inferReturnTypeComponentsEPNS_11MLIRContextESt8optionalINS_8LocationEENS_15ValueShapeRangeENS_14DictionaryAttrENS_11RegionRangeERN4llvm15SmallVectorImplINS_20ShapedTypeComponentsEEE
FN:867,_ZN4mlir9stablehlo10AllToAllOp5buildERNS_9OpBuilderERNS_14OperationStateENS_4TypeENS_5ValueENS_11IntegerAttrES8_S8_NS_20DenseIntElementsAttrE
FNDA:0,_ZN4mlir9stablehlo10AllToAllOp5buildERNS_9OpBuilderERNS_14OperationStateENS_4TypeENS_5ValueENS_11IntegerAttrES8_S8_NS_20DenseIntElementsAttrE
FN:881,_ZN4mlir9stablehlo11AllGatherOp6verifyEv
FNDA:304,_ZN4mlir9stablehlo11AllGatherOp6verifyEv
FN:891,_ZN4mlir9stablehlo11AllReduceOp6verifyEv
FNDA:488,_ZN4mlir9stablehlo11AllReduceOp6verifyEv
FN:900,_ZN4mlir9stablehlo15BatchNormGradOp25inferReturnTypeComponentsEPNS_11MLIRContextESt8optionalINS_8LocationEENS_15ValueShapeRangeENS_14DictionaryAttrENS_11RegionRangeERN4llvm15SmallVectorImplINS_20ShapedTypeComponentsEEE
FNDA:304,_ZN4mlir9stablehlo15BatchNormGradOp25inferReturnTypeComponentsEPNS_11MLIRContextESt8optionalINS_8LocationEENS_15ValueShapeRangeENS_14DictionaryAttrENS_11RegionRangeERN4llvm15SmallVectorImplINS_20ShapedTypeComponentsEEE
FN:915,_ZN4mlir9stablehlo19BatchNormTrainingOp25inferReturnTypeComponentsEPNS_11MLIRContextESt8optionalINS_8LocationEENS_15ValueShapeRangeENS_14DictionaryAttrENS_11RegionRangeERN4llvm15SmallVectorImplINS_20ShapedTypeComponentsEEE
FNDA:288,_ZN4mlir9stablehlo19BatchNormTrainingOp25inferReturnTypeComponentsEPNS_11MLIRContextESt8optionalINS_8LocationEENS_15ValueShapeRangeENS_14DictionaryAttrENS_11RegionRangeERN4llvm15SmallVectorImplINS_20ShapedTypeComponentsEEE
FN:929,_ZN4mlir9stablehlo20BatchNormInferenceOp25inferReturnTypeComponentsEPNS_11MLIRContextESt8optionalINS_8LocationEENS_15ValueShapeRangeENS_14DictionaryAttrENS_11RegionRangeERN4llvm15SmallVectorImplINS_20ShapedTypeComponentsEEE
FNDA:184,_ZN4mlir9stablehlo20BatchNormInferenceOp25inferReturnTypeComponentsEPNS_11MLIRContextESt8optionalINS_8LocationEENS_15ValueShapeRangeENS_14DictionaryAttrENS_11RegionRangeERN4llvm15SmallVectorImplINS_20ShapedTypeComponentsEEE
FN:944,_ZN4mlir9stablehlo16BitcastConvertOp21reifyReturnTypeShapesERNS_9OpBuilderENS_10ValueRangeERN4llvm15SmallVectorImplINS_5ValueEEE
FNDA:0,_ZN4mlir9stablehlo16BitcastConvertOp21reifyReturnTypeShapesERNS_9OpBuilderENS_10ValueRangeERN4llvm15SmallVectorImplINS_5ValueEEE
FN:966,_ZN4mlir9stablehlo16BitcastConvertOp6verifyEv
FNDA:408,_ZN4mlir9stablehlo16BitcastConvertOp6verifyEv
FN:974,_ZN4mlir9stablehlo11BroadcastOp25inferReturnTypeComponentsEPNS_11MLIRContextESt8optionalINS_8LocationEENS_15ValueShapeRangeENS_14DictionaryAttrENS_11RegionRangeERN4llvm15SmallVectorImplINS_20ShapedTypeComponentsEEE
FNDA:312,_ZN4mlir9stablehlo11BroadcastOp25inferReturnTypeComponentsEPNS_11MLIRContextESt8optionalINS_8LocationEENS_15ValueShapeRangeENS_14DictionaryAttrENS_11RegionRangeERN4llvm15SmallVectorImplINS_20ShapedTypeComponentsEEE
FN:984,_ZN4mlir9stablehlo11BroadcastOp21reifyReturnTypeShapesERNS_9OpBuilderENS_10ValueRangeERN4llvm15SmallVectorImplINS_5ValueEEE
FNDA:8,_ZN4mlir9stablehlo11BroadcastOp21reifyReturnTypeShapesERNS_9OpBuilderENS_10ValueRangeERN4llvm15SmallVectorImplINS_5ValueEEE
FN:1020,_ZN4mlir9stablehlo16BroadcastInDimOp6verifyEv
FNDA:392,_ZN4mlir9stablehlo16BroadcastInDimOp6verifyEv
FN:1029,_ZN4mlir9stablehlo23DynamicBroadcastInDimOp6verifyEv
FNDA:144,_ZN4mlir9stablehlo23DynamicBroadcastInDimOp6verifyEv
FN:1036,_ZN4mlir9stablehlo23DynamicBroadcastInDimOp21reifyReturnTypeShapesERNS_9OpBuilderENS_10ValueRangeERN4llvm15SmallVectorImplINS_5ValueEEE
FNDA:0,_ZN4mlir9stablehlo23DynamicBroadcastInDimOp21reifyReturnTypeShapesERNS_9OpBuilderENS_10ValueRangeERN4llvm15SmallVectorImplINS_5ValueEEE
FN:1049,_ZN4mlir9stablehlo7ClampOp25inferReturnTypeComponentsEPNS_11MLIRContextESt8optionalINS_8LocationEENS_15ValueShapeRangeENS_14DictionaryAttrENS_11RegionRangeERN4llvm15SmallVectorImplINS_20ShapedTypeComponentsEEE
FNDA:248,_ZN4mlir9stablehlo7ClampOp25inferReturnTypeComponentsEPNS_11MLIRContextESt8optionalINS_8LocationEENS_15ValueShapeRangeENS_14DictionaryAttrENS_11RegionRangeERN4llvm15SmallVectorImplINS_20ShapedTypeComponentsEEE
FN:1058,_ZN4mlir9stablehlo7ClampOp21reifyReturnTypeShapesERNS_9OpBuilderENS_10ValueRangeERN4llvm15SmallVectorImplINS_5ValueEEE
FNDA:0,_ZN4mlir9stablehlo7ClampOp21reifyReturnTypeShapesERNS_9OpBuilderENS_10ValueRangeERN4llvm15SmallVectorImplINS_5ValueEEE
FN:1070,_ZN4mlir9stablehlo9ComplexOp16inferReturnTypesEPNS_11MLIRContextESt8optionalINS_8LocationEENS_10ValueRangeENS_14DictionaryAttrENS_11RegionRangeERN4llvm15SmallVectorImplINS_4TypeEEE
FNDA:216,_ZN4mlir9stablehlo9ComplexOp16inferReturnTypesEPNS_11MLIRContextESt8optionalINS_8LocationEENS_10ValueRangeENS_14DictionaryAttrENS_11RegionRangeERN4llvm15SmallVectorImplINS_4TypeEEE
FN:1082,_ZN4mlir9stablehlo6ImagOp16inferReturnTypesEPNS_11MLIRContextESt8optionalINS_8LocationEENS_10ValueRangeENS_14DictionaryAttrENS_11RegionRangeERN4llvm15SmallVectorImplINS_4TypeEEE
FNDA:184,_ZN4mlir9stablehlo6ImagOp16inferReturnTypesEPNS_11MLIRContextESt8optionalINS_8LocationEENS_10ValueRangeENS_14DictionaryAttrENS_11RegionRangeERN4llvm15SmallVectorImplINS_4TypeEEE
FN:1094,_ZN4mlir9stablehlo10IsFiniteOp16inferReturnTypesEPNS_11MLIRContextESt8optionalINS_8LocationEENS_10ValueRangeENS_14DictionaryAttrENS_11RegionRangeERN4llvm15SmallVectorImplINS_4TypeEEE
FNDA:128,_ZN4mlir9stablehlo10IsFiniteOp16inferReturnTypesEPNS_11MLIRContextESt8optionalINS_8LocationEENS_10ValueRangeENS_14DictionaryAttrENS_11RegionRangeERN4llvm15SmallVectorImplINS_4TypeEEE
FN:1107,_ZN4mlir9stablehlo6RealOp16inferReturnTypesEPNS_11MLIRContextESt8optionalINS_8LocationEENS_10ValueRangeENS_14DictionaryAttrENS_11RegionRangeERN4llvm15SmallVectorImplINS_4TypeEEE
FNDA:184,_ZN4mlir9stablehlo6RealOp16inferReturnTypesEPNS_11MLIRContextESt8optionalINS_8LocationEENS_10ValueRangeENS_14DictionaryAttrENS_11RegionRangeERN4llvm15SmallVectorImplINS_4TypeEEE
FN:1119,_ZN4mlir9stablehlo13ConcatenateOp16inferReturnTypesEPNS_11MLIRContextESt8optionalINS_8LocationEENS_10ValueRangeENS_14DictionaryAttrENS_11RegionRangeERN4llvm15SmallVectorImplINS_4TypeEEE
FNDA:728,_ZN4mlir9stablehlo13ConcatenateOp16inferReturnTypesEPNS_11MLIRContextESt8optionalINS_8LocationEENS_10ValueRangeENS_14DictionaryAttrENS_11RegionRangeERN4llvm15SmallVectorImplINS_4TypeEEE
FN:1128,_ZN4mlir9stablehlo13ConcatenateOp21reifyReturnTypeShapesERNS_9OpBuilderENS_10ValueRangeERN4llvm15SmallVectorImplINS_5ValueEEE
FNDA:8,_ZN4mlir9stablehlo13ConcatenateOp21reifyReturnTypeShapesERNS_9OpBuilderENS_10ValueRangeERN4llvm15SmallVectorImplINS_5ValueEEE
FN:1140,_ZZN4mlir9stablehlo13ConcatenateOp21reifyReturnTypeShapesERNS_9OpBuilderENS_10ValueRangeERN4llvm15SmallVectorImplINS_5ValueEEEENK4$_12clES7_
FNDA:48,_ZZN4mlir9stablehlo13ConcatenateOp21reifyReturnTypeShapesERNS_9OpBuilderENS_10ValueRangeERN4llvm15SmallVectorImplINS_5ValueEEEENK4$_12clES7_
FN:1186,_ZN4mlir9stablehlo16DynamicReshapeOp6verifyEv
FNDA:112,_ZN4mlir9stablehlo16DynamicReshapeOp6verifyEv
FN:1190,_ZN4mlir9stablehlo16DynamicReshapeOp21reifyReturnTypeShapesERNS_9OpBuilderENS_10ValueRangeERN4llvm15SmallVectorImplINS_5ValueEEE
FNDA:0,_ZN4mlir9stablehlo16DynamicReshapeOp21reifyReturnTypeShapesERNS_9OpBuilderENS_10ValueRangeERN4llvm15SmallVectorImplINS_5ValueEEE
FN:1203,_ZN4mlir9stablehlo14DynamicSliceOp25inferReturnTypeComponentsEPNS_11MLIRContextESt8optionalINS_8LocationEENS_15ValueShapeRangeENS_14DictionaryAttrENS_11RegionRangeERN4llvm15SmallVectorImplINS_20ShapedTypeComponentsEEE
FNDA:328,_ZN4mlir9stablehlo14DynamicSliceOp25inferReturnTypeComponentsEPNS_11MLIRContextESt8optionalINS_8LocationEENS_15ValueShapeRangeENS_14DictionaryAttrENS_11RegionRangeERN4llvm15SmallVectorImplINS_20ShapedTypeComponentsEEE
FN:1217,_ZN4mlir9stablehlo18RealDynamicSliceOp6verifyEv
FNDA:144,_ZN4mlir9stablehlo18RealDynamicSliceOp6verifyEv
FN:1223,_ZN4mlir9stablehlo18RealDynamicSliceOp21reifyReturnTypeShapesERNS_9OpBuilderENS_10ValueRangeERN4llvm15SmallVectorImplINS_5ValueEEE
FNDA:8,_ZN4mlir9stablehlo18RealDynamicSliceOp21reifyReturnTypeShapesERNS_9OpBuilderENS_10ValueRangeERN4llvm15SmallVectorImplINS_5ValueEEE
FN:1274,_ZN4mlir9stablehlo8InfeedOp6verifyEv
FNDA:411,_ZN4mlir9stablehlo8InfeedOp6verifyEv
FN:1283,_ZN4mlir9stablehlo5MapOp25inferReturnTypeComponentsEPNS_11MLIRContextESt8optionalINS_8LocationEENS_15ValueShapeRangeENS_14DictionaryAttrENS_11RegionRangeERN4llvm15SmallVectorImplINS_20ShapedTypeComponentsEEE
FNDA:432,_ZN4mlir9stablehlo5MapOp25inferReturnTypeComponentsEPNS_11MLIRContextESt8optionalINS_8LocationEENS_15ValueShapeRangeENS_14DictionaryAttrENS_11RegionRangeERN4llvm15SmallVectorImplINS_20ShapedTypeComponentsEEE
FN:1292,_ZN4mlir9stablehlo5MapOp21reifyReturnTypeShapesERNS_9OpBuilderENS_10ValueRangeERN4llvm15SmallVectorImplINS_5ValueEEE
FNDA:0,_ZN4mlir9stablehlo5MapOp21reifyReturnTypeShapesERNS_9OpBuilderENS_10ValueRangeERN4llvm15SmallVectorImplINS_5ValueEEE
FN:1303,_ZN4mlir9stablehlo9OutfeedOp16inferReturnTypesEPNS_11MLIRContextESt8optionalINS_8LocationEENS_10ValueRangeENS_14DictionaryAttrENS_11RegionRangeERN4llvm15SmallVectorImplINS_4TypeEEE
FNDA:424,_ZN4mlir9stablehlo9OutfeedOp16inferReturnTypesEPNS_11MLIRContextESt8optionalINS_8LocationEENS_10ValueRangeENS_14DictionaryAttrENS_11RegionRangeERN4llvm15SmallVectorImplINS_4TypeEEE
FN:1315,_ZN4mlir9stablehlo6SendOp16inferReturnTypesEPNS_11MLIRContextESt8optionalINS_8LocationEENS_10ValueRangeENS_14DictionaryAttrENS_11RegionRangeERN4llvm15SmallVectorImplINS_4TypeEEE
FNDA:581,_ZN4mlir9stablehlo6SendOp16inferReturnTypesEPNS_11MLIRContextESt8optionalINS_8LocationEENS_10ValueRangeENS_14DictionaryAttrENS_11RegionRangeERN4llvm15SmallVectorImplINS_4TypeEEE
FN:1326,_ZN4mlir9stablehlo6RecvOp6verifyEv
FNDA:478,_ZN4mlir9stablehlo6RecvOp6verifyEv
FN:1335,_ZN4mlir9stablehlo14ReduceWindowOp25inferReturnTypeComponentsEPNS_11MLIRContextESt8optionalINS_8LocationEENS_15ValueShapeRangeENS_14DictionaryAttrENS_11RegionRangeERN4llvm15SmallVectorImplINS_20ShapedTypeComponentsEEE
FNDA:440,_ZN4mlir9stablehlo14ReduceWindowOp25inferReturnTypeComponentsEPNS_11MLIRContextESt8optionalINS_8LocationEENS_15ValueShapeRangeENS_14DictionaryAttrENS_11RegionRangeERN4llvm15SmallVectorImplINS_20ShapedTypeComponentsEEE
FN:1347,_ZN4mlir9stablehlo14ReduceWindowOp6verifyEv
FNDA:647,_ZN4mlir9stablehlo14ReduceWindowOp6verifyEv
FN:1355,_ZN4mlir9stablehlo14ReduceWindowOp5buildERNS_9OpBuilderERNS_14OperationStateENS_10ValueRangeES6_NS_20DenseIntElementsAttrES7_S7_S7_S7_N4llvm12function_refIFvS3_NS_8LocationES6_EEE
FNDA:0,_ZN4mlir9stablehlo14ReduceWindowOp5buildERNS_9OpBuilderERNS_14OperationStateENS_10ValueRangeES6_NS_20DenseIntElementsAttrES7_S7_S7_S7_N4llvm12function_refIFvS3_NS_8LocationES6_EEE
FN:1419,_ZN4mlir9stablehlo17ReducePrecisionOp6verifyEv
FNDA:248,_ZN4mlir9stablehlo17ReducePrecisionOp6verifyEv
FN:1428,_ZN4mlir9stablehlo28hasSameOperandAndResultTypesERNS_9OperationE
FNDA:528,_ZN4mlir9stablehlo28hasSameOperandAndResultTypesERNS_9OperationE
FN:1434,_ZZN4mlir9stablehlo28hasSameOperandAndResultTypesERNS_9OperationEENK4$_13clENS_4TypeE
FNDA:1584,_ZZN4mlir9stablehlo28hasSameOperandAndResultTypesERNS_9OperationEENK4$_13clENS_4TypeE
FN:1453,_ZN4mlir9stablehloL25isEligibleForCompactPrintENS0_8ReduceOpE
FNDA:736,_ZN4mlir9stablehloL25isEligibleForCompactPrintENS0_8ReduceOpE
FN:1496,_ZN4mlir9stablehlo8ReduceOp5printERNS_12OpAsmPrinterE
FNDA:736,_ZN4mlir9stablehlo8ReduceOp5printERNS_12OpAsmPrinterE
FN:1551,_ZN4mlir9stablehlo8ReduceOp5parseERNS_11OpAsmParserERNS_14OperationStateE
FNDA:192,_ZN4mlir9stablehlo8ReduceOp5parseERNS_11OpAsmParserERNS_14OperationStateE
FN:1581,_ZZN4mlir9stablehlo8ReduceOp5parseERNS_11OpAsmParserERNS_14OperationStateEENK4$_14clEv
FNDA:128,_ZZN4mlir9stablehlo8ReduceOp5parseERNS_11OpAsmParserERNS_14OperationStateEENK4$_14clEv
FN:1606,_ZZN4mlir9stablehlo8ReduceOp5parseERNS_11OpAsmParserERNS_14OperationStateEENK4$_15clERN4llvm15SmallVectorImplINS2_17UnresolvedOperandEEERNS8_INS_4TypeEEERNS8_ISt8optionalINS_8LocationEEEE
FNDA:336,_ZZN4mlir9stablehlo8ReduceOp5parseERNS_11OpAsmParserERNS_14OperationStateEENK4$_15clERN4llvm15SmallVectorImplINS2_17UnresolvedOperandEEERNS8_INS_4TypeEEERNS8_ISt8optionalINS_8LocationEEEE
FN:1674,_ZZN4mlir9stablehlo8ReduceOp5parseERNS_11OpAsmParserERNS_14OperationStateEENK4$_16clEv
FNDA:40,_ZZN4mlir9stablehlo8ReduceOp5parseERNS_11OpAsmParserERNS_14OperationStateEENK4$_16clEv
FN:1738,_ZN4mlir9stablehlo8ReduceOp25inferReturnTypeComponentsEPNS_11MLIRContextESt8optionalINS_8LocationEENS_15ValueShapeRangeENS_14DictionaryAttrENS_11RegionRangeERN4llvm15SmallVectorImplINS_20ShapedTypeComponentsEEE
FNDA:1192,_ZN4mlir9stablehlo8ReduceOp25inferReturnTypeComponentsEPNS_11MLIRContextESt8optionalINS_8LocationEENS_15ValueShapeRangeENS_14DictionaryAttrENS_11RegionRangeERN4llvm15SmallVectorImplINS_20ShapedTypeComponentsEEE
FN:1748,_ZN4mlir9stablehlo8ReduceOp6verifyEv
FNDA:1285,_ZN4mlir9stablehlo8ReduceOp6verifyEv
FN:1753,_ZN4mlir9stablehlo8ReduceOp21reifyReturnTypeShapesERNS_9OpBuilderENS_10ValueRangeERN4llvm15SmallVectorImplINS_5ValueEEE
FNDA:8,_ZN4mlir9stablehlo8ReduceOp21reifyReturnTypeShapesERNS_9OpBuilderENS_10ValueRangeERN4llvm15SmallVectorImplINS_5ValueEEE
FN:1769,_ZZN4mlir9stablehlo8ReduceOp21reifyReturnTypeShapesERNS_9OpBuilderENS_10ValueRangeERN4llvm15SmallVectorImplINS_5ValueEEEENK4$_17clES7_
FNDA:8,_ZZN4mlir9stablehlo8ReduceOp21reifyReturnTypeShapesERNS_9OpBuilderENS_10ValueRangeERN4llvm15SmallVectorImplINS_5ValueEEEENK4$_17clES7_
FN:1796,_ZN4mlir9stablehlo21OptimizationBarrierOp16inferReturnTypesEPNS_11MLIRContextESt8optionalINS_8LocationEENS_10ValueRangeENS_14DictionaryAttrENS_11RegionRangeERN4llvm15SmallVectorImplINS_4TypeEEE
FNDA:312,_ZN4mlir9stablehlo21OptimizationBarrierOp16inferReturnTypesEPNS_11MLIRContextESt8optionalINS_8LocationEENS_10ValueRangeENS_14DictionaryAttrENS_11RegionRangeERN4llvm15SmallVectorImplINS_4TypeEEE
FN:1808,_ZN4mlir9stablehlo9ReverseOp6verifyEv
FNDA:288,_ZN4mlir9stablehlo9ReverseOp6verifyEv
FN:1817,_ZN4mlir9stablehlo17RngBitGeneratorOp6verifyEv
FNDA:445,_ZN4mlir9stablehlo17RngBitGeneratorOp6verifyEv
FN:1826,_ZN4mlir9stablehlo5RngOp25inferReturnTypeComponentsEPNS_11MLIRContextESt8optionalINS_8LocationEENS_15ValueShapeRangeENS_14DictionaryAttrENS_11RegionRangeERN4llvm15SmallVectorImplINS_20ShapedTypeComponentsEEE
FNDA:656,_ZN4mlir9stablehlo5RngOp25inferReturnTypeComponentsEPNS_11MLIRContextESt8optionalINS_8LocationEENS_15ValueShapeRangeENS_14DictionaryAttrENS_11RegionRangeERN4llvm15SmallVectorImplINS_20ShapedTypeComponentsEEE
FN:1837,_ZN4mlir9stablehlo5RngOp21reifyReturnTypeShapesERNS_9OpBuilderENS_10ValueRangeERN4llvm15SmallVectorImplINS_5ValueEEE
FNDA:0,_ZN4mlir9stablehlo5RngOp21reifyReturnTypeShapesERNS_9OpBuilderENS_10ValueRangeERN4llvm15SmallVectorImplINS_5ValueEEE
FN:1850,_ZN4mlir9stablehlo8SelectOp25inferReturnTypeComponentsEPNS_11MLIRContextESt8optionalINS_8LocationEENS_15ValueShapeRangeENS_14DictionaryAttrENS_11RegionRangeERN4llvm15SmallVectorImplINS_20ShapedTypeComponentsEEE
FNDA:528,_ZN4mlir9stablehlo8SelectOp25inferReturnTypeComponentsEPNS_11MLIRContextESt8optionalINS_8LocationEENS_15ValueShapeRangeENS_14DictionaryAttrENS_11RegionRangeERN4llvm15SmallVectorImplINS_20ShapedTypeComponentsEEE
FN:1859,_ZN4mlir9stablehlo8SelectOp21reifyReturnTypeShapesERNS_9OpBuilderENS_10ValueRangeERN4llvm15SmallVectorImplINS_5ValueEEE
FNDA:0,_ZN4mlir9stablehlo8SelectOp21reifyReturnTypeShapesERNS_9OpBuilderENS_10ValueRangeERN4llvm15SmallVectorImplINS_5ValueEEE
FN:1871,_ZN4mlir9stablehlo18SetDimensionSizeOp6verifyEv
FNDA:655,_ZN4mlir9stablehlo18SetDimensionSizeOp6verifyEv
FN:1883,_ZN4mlir9stablehlo18SetDimensionSizeOp16inferReturnTypesEPNS_11MLIRContextESt8optionalINS_8LocationEENS_10ValueRangeENS_14DictionaryAttrENS_11RegionRangeERN4llvm15SmallVectorImplINS_4TypeEEE
FNDA:664,_ZN4mlir9stablehlo18SetDimensionSizeOp16inferReturnTypesEPNS_11MLIRContextESt8optionalINS_8LocationEENS_10ValueRangeENS_14DictionaryAttrENS_11RegionRangeERN4llvm15SmallVectorImplINS_4TypeEEE
FN:1926,_ZZN4mlir9stablehlo18SetDimensionSizeOp16inferReturnTypesEPNS_11MLIRContextESt8optionalINS_8LocationEENS_10ValueRangeENS_14DictionaryAttrENS_11RegionRangeERN4llvm15SmallVectorImplINS_4TypeEEEENK4$_18clEl
FNDA:920,_ZZN4mlir9stablehlo18SetDimensionSizeOp16inferReturnTypesEPNS_11MLIRContextESt8optionalINS_8LocationEENS_10ValueRangeENS_14DictionaryAttrENS_11RegionRangeERN4llvm15SmallVectorImplINS_4TypeEEEENK4$_18clEl
FN:1938,_ZN4mlir9stablehlo5PadOp16inferReturnTypesEPNS_11MLIRContextESt8optionalINS_8LocationEENS_10ValueRangeENS_14DictionaryAttrENS_11RegionRangeERN4llvm15SmallVectorImplINS_4TypeEEE
FNDA:392,_ZN4mlir9stablehlo5PadOp16inferReturnTypesEPNS_11MLIRContextESt8optionalINS_8LocationEENS_10ValueRangeENS_14DictionaryAttrENS_11RegionRangeERN4llvm15SmallVectorImplINS_4TypeEEE
FN:1949,_ZN4mlir9stablehlo5PadOp21reifyReturnTypeShapesERNS_9OpBuilderENS_10ValueRangeERN4llvm15SmallVectorImplINS_5ValueEEE
FNDA:8,_ZN4mlir9stablehlo5PadOp21reifyReturnTypeShapesERNS_9OpBuilderENS_10ValueRangeERN4llvm15SmallVectorImplINS_5ValueEEE
FN:2016,_ZN4mlir9stablehlo12DynamicPadOp6verifyEv
FNDA:96,_ZN4mlir9stablehlo12DynamicPadOp6verifyEv
FN:2022,_ZN4mlir9stablehlo12DynamicPadOp21reifyReturnTypeShapesERNS_9OpBuilderENS_10ValueRangeERN4llvm15SmallVectorImplINS_5ValueEEE
FNDA:8,_ZN4mlir9stablehlo12DynamicPadOp21reifyReturnTypeShapesERNS_9OpBuilderENS_10ValueRangeERN4llvm15SmallVectorImplINS_5ValueEEE
FN:2041,_ZZN4mlir9stablehlo12DynamicPadOp21reifyReturnTypeShapesERNS_9OpBuilderENS_10ValueRangeERN4llvm15SmallVectorImplINS_5ValueEEEENK4$_19clES7_
FNDA:24,_ZZN4mlir9stablehlo12DynamicPadOp21reifyReturnTypeShapesERNS_9OpBuilderENS_10ValueRangeERN4llvm15SmallVectorImplINS_5ValueEEEENK4$_19clES7_
FN:2089,_ZN4mlir9stablehlo9ReshapeOp6verifyEv
FNDA:416,_ZN4mlir9stablehlo9ReshapeOp6verifyEv
FN:2097,_ZN4mlir9stablehlo11ReplicaIdOp16inferReturnTypesEPNS_11MLIRContextESt8optionalINS_8LocationEENS_10ValueRangeENS_14DictionaryAttrENS_11RegionRangeERN4llvm15SmallVectorImplINS_4TypeEEE
FNDA:128,_ZN4mlir9stablehlo11ReplicaIdOp16inferReturnTypesEPNS_11MLIRContextESt8optionalINS_8LocationEENS_10ValueRangeENS_14DictionaryAttrENS_11RegionRangeERN4llvm15SmallVectorImplINS_4TypeEEE
FN:2107,_ZN4mlir9stablehlo13PartitionIdOp16inferReturnTypesEPNS_11MLIRContextESt8optionalINS_8LocationEENS_10ValueRangeENS_14DictionaryAttrENS_11RegionRangeERN4llvm15SmallVectorImplINS_4TypeEEE
FNDA:136,_ZN4mlir9stablehlo13PartitionIdOp16inferReturnTypesEPNS_11MLIRContextESt8optionalINS_8LocationEENS_10ValueRangeENS_14DictionaryAttrENS_11RegionRangeERN4llvm15SmallVectorImplINS_4TypeEEE
FN:2118,_ZN4mlir9stablehlo4IfOp16inferReturnTypesEPNS_11MLIRContextESt8optionalINS_8LocationEENS_10ValueRangeENS_14DictionaryAttrENS_11RegionRangeERN4llvm15SmallVectorImplINS_4TypeEEE
FNDA:296,_ZN4mlir9stablehlo4IfOp16inferReturnTypesEPNS_11MLIRContextESt8optionalINS_8LocationEENS_10ValueRangeENS_14DictionaryAttrENS_11RegionRangeERN4llvm15SmallVectorImplINS_4TypeEEE
FN:2130,_ZN4mlir9stablehlo6CaseOp16inferReturnTypesEPNS_11MLIRContextESt8optionalINS_8LocationEENS_10ValueRangeENS_14DictionaryAttrENS_11RegionRangeERN4llvm15SmallVectorImplINS_4TypeEEE
FNDA:360,_ZN4mlir9stablehlo6CaseOp16inferReturnTypesEPNS_11MLIRContextESt8optionalINS_8LocationEENS_10ValueRangeENS_14DictionaryAttrENS_11RegionRangeERN4llvm15SmallVectorImplINS_4TypeEEE
FN:2142,_ZN4mlir9stablehlo7SliceOp16inferReturnTypesEPNS_11MLIRContextESt8optionalINS_8LocationEENS_10ValueRangeENS_14DictionaryAttrENS_11RegionRangeERN4llvm15SmallVectorImplINS_4TypeEEE
FNDA:416,_ZN4mlir9stablehlo7SliceOp16inferReturnTypesEPNS_11MLIRContextESt8optionalINS_8LocationEENS_10ValueRangeENS_14DictionaryAttrENS_11RegionRangeERN4llvm15SmallVectorImplINS_4TypeEEE
FN:2156,_ZN4mlir9stablehlo6SortOp5buildERNS_9OpBuilderERNS_14OperationStateENS_10ValueRangeElb
FNDA:0,_ZN4mlir9stablehlo6SortOp5buildERNS_9OpBuilderERNS_14OperationStateENS_10ValueRangeElb
FN:2167,_ZN4mlir9stablehlo6SortOp25inferReturnTypeComponentsEPNS_11MLIRContextESt8optionalINS_8LocationEENS_15ValueShapeRangeENS_14DictionaryAttrENS_11RegionRangeERN4llvm15SmallVectorImplINS_20ShapedTypeComponentsEEE
FNDA:400,_ZN4mlir9stablehlo6SortOp25inferReturnTypeComponentsEPNS_11MLIRContextESt8optionalINS_8LocationEENS_15ValueShapeRangeENS_14DictionaryAttrENS_11RegionRangeERN4llvm15SmallVectorImplINS_20ShapedTypeComponentsEEE
FN:2175,_ZN4mlir9stablehlo6SortOp6verifyEv
FNDA:444,_ZN4mlir9stablehlo6SortOp6verifyEv
FN:2184,_ZN4mlir9stablehlo11TransposeOp21reifyReturnTypeShapesERNS_9OpBuilderENS_10ValueRangeERN4llvm15SmallVectorImplINS_5ValueEEE
FNDA:8,_ZN4mlir9stablehlo11TransposeOp21reifyReturnTypeShapesERNS_9OpBuilderENS_10ValueRangeERN4llvm15SmallVectorImplINS_5ValueEEE
FN:2200,_ZZN4mlir9stablehlo11TransposeOp21reifyReturnTypeShapesERNS_9OpBuilderENS_10ValueRangeERN4llvm15SmallVectorImplINS_5ValueEEEENK4$_20clES7_
FNDA:32,_ZZN4mlir9stablehlo11TransposeOp21reifyReturnTypeShapesERNS_9OpBuilderENS_10ValueRangeERN4llvm15SmallVectorImplINS_5ValueEEEENK4$_20clES7_
FN:2222,_ZN4mlir9stablehlo11TransposeOp16inferReturnTypesEPNS_11MLIRContextESt8optionalINS_8LocationEENS_10ValueRangeENS_14DictionaryAttrENS_11RegionRangeERN4llvm15SmallVectorImplINS_4TypeEEE
FNDA:456,_ZN4mlir9stablehlo11TransposeOp16inferReturnTypesEPNS_11MLIRContextESt8optionalINS_8LocationEENS_10ValueRangeENS_14DictionaryAttrENS_11RegionRangeERN4llvm15SmallVectorImplINS_4TypeEEE
FN:2235,_ZN4mlir9stablehlo17TriangularSolveOp25inferReturnTypeComponentsEPNS_11MLIRContextESt8optionalINS_8LocationEENS_15ValueShapeRangeENS_14DictionaryAttrENS_11RegionRangeERN4llvm15SmallVectorImplINS_20ShapedTypeComponentsEEE
FNDA:696,_ZN4mlir9stablehlo17TriangularSolveOp25inferReturnTypeComponentsEPNS_11MLIRContextESt8optionalINS_8LocationEENS_15ValueShapeRangeENS_14DictionaryAttrENS_11RegionRangeERN4llvm15SmallVectorImplINS_20ShapedTypeComponentsEEE
FN:2251,_ZN4mlir9stablehlo17GetTupleElementOp16inferReturnTypesEPNS_11MLIRContextESt8optionalINS_8LocationEENS_10ValueRangeENS_14DictionaryAttrENS_11RegionRangeERN4llvm15SmallVectorImplINS_4TypeEEE
FNDA:368,_ZN4mlir9stablehlo17GetTupleElementOp16inferReturnTypesEPNS_11MLIRContextESt8optionalINS_8LocationEENS_10ValueRangeENS_14DictionaryAttrENS_11RegionRangeERN4llvm15SmallVectorImplINS_4TypeEEE
FN:2264,_ZN4mlir9stablehlo7TupleOp16inferReturnTypesEPNS_11MLIRContextESt8optionalINS_8LocationEENS_10ValueRangeENS_14DictionaryAttrENS_11RegionRangeERN4llvm15SmallVectorImplINS_4TypeEEE
FNDA:1327,_ZN4mlir9stablehlo7TupleOp16inferReturnTypesEPNS_11MLIRContextESt8optionalINS_8LocationEENS_10ValueRangeENS_14DictionaryAttrENS_11RegionRangeERN4llvm15SmallVectorImplINS_4TypeEEE
FN:2277,_ZN4mlir9stablehlo9CompareOp5buildERNS_9OpBuilderERNS_14OperationStateENS_5ValueES6_NS0_19ComparisonDirectionENS0_14ComparisonTypeE
FNDA:0,_ZN4mlir9stablehlo9CompareOp5buildERNS_9OpBuilderERNS_14OperationStateENS_5ValueES6_NS0_19ComparisonDirectionENS0_14ComparisonTypeE
FN:2285,_ZN4mlir9stablehlo9CompareOp25inferReturnTypeComponentsEPNS_11MLIRContextESt8optionalINS_8LocationEENS_15ValueShapeRangeENS_14DictionaryAttrENS_11RegionRangeERN4llvm15SmallVectorImplINS_20ShapedTypeComponentsEEE
FNDA:1792,_ZN4mlir9stablehlo9CompareOp25inferReturnTypeComponentsEPNS_11MLIRContextESt8optionalINS_8LocationEENS_15ValueShapeRangeENS_14DictionaryAttrENS_11RegionRangeERN4llvm15SmallVectorImplINS_20ShapedTypeComponentsEEE
FN:2294,_ZN4mlir9stablehlo9CompareOp21reifyReturnTypeShapesERNS_9OpBuilderENS_10ValueRangeERN4llvm15SmallVectorImplINS_5ValueEEE
FNDA:8,_ZN4mlir9stablehlo9CompareOp21reifyReturnTypeShapesERNS_9OpBuilderENS_10ValueRangeERN4llvm15SmallVectorImplINS_5ValueEEE
FN:2305,_ZN4mlir9stablehlo18SelectAndScatterOp16inferReturnTypesEPNS_11MLIRContextESt8optionalINS_8LocationEENS_10ValueRangeENS_14DictionaryAttrENS_11RegionRangeERN4llvm15SmallVectorImplINS_4TypeEEE
FNDA:280,_ZN4mlir9stablehlo18SelectAndScatterOp16inferReturnTypesEPNS_11MLIRContextESt8optionalINS_8LocationEENS_10ValueRangeENS_14DictionaryAttrENS_11RegionRangeERN4llvm15SmallVectorImplINS_4TypeEEE
FN:2314,_ZN4mlir9stablehlo18SelectAndScatterOp6verifyEv
FNDA:456,_ZN4mlir9stablehlo18SelectAndScatterOp6verifyEv
FN:2325,_ZN4mlir9stablehlo9ScatterOp16inferReturnTypesEPNS_11MLIRContextESt8optionalINS_8LocationEENS_10ValueRangeENS_14DictionaryAttrENS_11RegionRangeERN4llvm15SmallVectorImplINS_4TypeEEE
FNDA:408,_ZN4mlir9stablehlo9ScatterOp16inferReturnTypesEPNS_11MLIRContextESt8optionalINS_8LocationEENS_10ValueRangeENS_14DictionaryAttrENS_11RegionRangeERN4llvm15SmallVectorImplINS_4TypeEEE
FN:2334,_ZN4mlir9stablehlo9ScatterOp6verifyEv
FNDA:592,_ZN4mlir9stablehlo9ScatterOp6verifyEv
FN:2347,_ZN4mlir9stablehlo7WhileOp16inferReturnTypesEPNS_11MLIRContextESt8optionalINS_8LocationEENS_10ValueRangeENS_14DictionaryAttrENS_11RegionRangeERN4llvm15SmallVectorImplINS_4TypeEEE
FNDA:352,_ZN4mlir9stablehlo7WhileOp16inferReturnTypesEPNS_11MLIRContextESt8optionalINS_8LocationEENS_10ValueRangeENS_14DictionaryAttrENS_11RegionRangeERN4llvm15SmallVectorImplINS_4TypeEEE
FN:2355,_ZN4mlir9stablehlo7WhileOp6verifyEv
FNDA:400,_ZN4mlir9stablehlo7WhileOp6verifyEv
FN:2366,_ZN4mlir9stablehlo7WhileOp5printERNS_12OpAsmPrinterE
FNDA:240,_ZN4mlir9stablehlo7WhileOp5printERNS_12OpAsmPrinterE
FN:2370,_ZZN4mlir9stablehlo7WhileOp5printERNS_12OpAsmPrinterEENK4$_21clISt5tupleIJRNS_13BlockArgumentENS_5ValueEEEEEDaT_
FNDA:512,_ZZN4mlir9stablehlo7WhileOp5printERNS_12OpAsmPrinterEENK4$_21clISt5tupleIJRNS_13BlockArgumentENS_5ValueEEEEEDaT_
FN:2388,_ZN4mlir9stablehlo7WhileOp5parseERNS_11OpAsmParserERNS_14OperationStateE
FNDA:48,_ZN4mlir9stablehlo7WhileOp5parseERNS_11OpAsmParserERNS_14OperationStateE
FN:2424,_ZN4mlir9stablehlo19UniformDequantizeOp25inferReturnTypeComponentsEPNS_11MLIRContextESt8optionalINS_8LocationEENS_15ValueShapeRangeENS_14DictionaryAttrENS_11RegionRangeERN4llvm15SmallVectorImplINS_20ShapedTypeComponentsEEE
FNDA:176,_ZN4mlir9stablehlo19UniformDequantizeOp25inferReturnTypeComponentsEPNS_11MLIRContextESt8optionalINS_8LocationEENS_15ValueShapeRangeENS_14DictionaryAttrENS_11RegionRangeERN4llvm15SmallVectorImplINS_20ShapedTypeComponentsEEE
FN:2468,_ZN4mlir9stablehlo12_GLOBAL__N_132StablehloDialectInlinerInterfaceD0Ev
FNDA:9408,_ZN4mlir9stablehlo12_GLOBAL__N_132StablehloDialectInlinerInterfaceD0Ev
FN:2469,_ZN4mlir9stablehlo12_GLOBAL__N_132StablehloDialectInlinerInterfaceCI2NS_23DialectInlinerInterfaceEEPNS_7DialectE
FNDA:9408,_ZN4mlir9stablehlo12_GLOBAL__N_132StablehloDialectInlinerInterfaceCI2NS_23DialectInlinerInterfaceEEPNS_7DialectE
FN:2472,_ZNK4mlir9stablehlo12_GLOBAL__N_132StablehloDialectInlinerInterface15isLegalToInlineEPNS_9OperationES4_b
FNDA:0,_ZNK4mlir9stablehlo12_GLOBAL__N_132StablehloDialectInlinerInterface15isLegalToInlineEPNS_9OperationES4_b
FN:2478,_ZNK4mlir9stablehlo12_GLOBAL__N_132StablehloDialectInlinerInterface15isLegalToInlineEPNS_6RegionES4_bRNS_9IRMappingE
FNDA:0,_ZNK4mlir9stablehlo12_GLOBAL__N_132StablehloDialectInlinerInterface15isLegalToInlineEPNS_6RegionES4_bRNS_9IRMappingE
FN:2484,_ZNK4mlir9stablehlo12_GLOBAL__N_132StablehloDialectInlinerInterface15isLegalToInlineEPNS_9OperationEPNS_6RegionEbRNS_9IRMappingE
FNDA:8,_ZNK4mlir9stablehlo12_GLOBAL__N_132StablehloDialectInlinerInterface15isLegalToInlineEPNS_9OperationEPNS_6RegionEbRNS_9IRMappingE
FN:2489,_ZN4mlir9stablehlo12_GLOBAL__N_128StablehloHloDialectInterfaceD0Ev
FNDA:9408,_ZN4mlir9stablehlo12_GLOBAL__N_128StablehloHloDialectInterfaceD0Ev
FN:2490,_ZN4mlir9stablehlo12_GLOBAL__N_128StablehloHloDialectInterfaceCI2NS_3hlo19HloDialectInterfaceEEPNS_7DialectE
FNDA:9408,_ZN4mlir9stablehlo12_GLOBAL__N_128StablehloHloDialectInterfaceCI2NS_3hlo19HloDialectInterfaceEEPNS_7DialectE
FN:2492,_ZNK4mlir9stablehlo12_GLOBAL__N_128StablehloHloDialectInterface15createTokenTypeEv
FNDA:1586,_ZNK4mlir9stablehlo12_GLOBAL__N_128StablehloHloDialectInterface15createTokenTypeEv
FN:2496,_ZNK4mlir9stablehlo12_GLOBAL__N_128StablehloHloDialectInterface11isTokenTypeENS_4TypeE
FNDA:893,_ZNK4mlir9stablehlo12_GLOBAL__N_128StablehloHloDialectInterface11isTokenTypeENS_4TypeE
FN:2498,_ZNK4mlir9stablehlo12_GLOBAL__N_128StablehloHloDialectInterface20createTypeExtensionsEN4llvm8ArrayRefIlEE
FNDA:680,_ZNK4mlir9stablehlo12_GLOBAL__N_128StablehloHloDialectInterface20createTypeExtensionsEN4llvm8ArrayRefIlEE
FN:2508,_ZN4mlir9stablehlo16StablehloDialectC2EPNS_11MLIRContextE
FNDA:9408,_ZN4mlir9stablehlo16StablehloDialectC2EPNS_11MLIRContextE
FN:2524,_ZNK4mlir9stablehlo16StablehloDialect9parseTypeERNS_16DialectAsmParserE
FNDA:6712,_ZNK4mlir9stablehlo16StablehloDialect9parseTypeERNS_16DialectAsmParserE
FN:2534,_ZNK4mlir9stablehlo16StablehloDialect9printTypeENS_4TypeERNS_17DialectAsmPrinterE
FNDA:4720,_ZNK4mlir9stablehlo16StablehloDialect9printTypeENS_4TypeERNS_17DialectAsmPrinterE
FN:2544,_ZNK4mlir9stablehlo16StablehloDialect14parseAttributeERNS_16DialectAsmParserENS_4TypeE
FNDA:9192,_ZNK4mlir9stablehlo16StablehloDialect14parseAttributeERNS_16DialectAsmParserENS_4TypeE
FN:2556,_ZNK4mlir9stablehlo16StablehloDialect14printAttributeENS_9AttributeERNS_17DialectAsmPrinterE
FNDA:6272,_ZNK4mlir9stablehlo16StablehloDialect14printAttributeENS_9AttributeERNS_17DialectAsmPrinterE
FN:2565,_ZN4mlir9stablehloL9parseDimsERNS_9AsmParserERN4llvm11SmallVectorIlLj6EEE
FNDA:5048,_ZN4mlir9stablehloL9parseDimsERNS_9AsmParserERN4llvm11SmallVectorIlLj6EEE
FN:2574,_ZN4mlir9stablehloL28parseDimsWithMinimumElementsERNS_9AsmParserERN4llvm11SmallVectorIlLj6EEEi
FNDA:160,_ZN4mlir9stablehloL28parseDimsWithMinimumElementsERNS_9AsmParserERN4llvm11SmallVectorIlLj6EEEi
FN:2594,_ZN4mlir9stablehloL11parseStructERNS_9AsmParserEN4llvm8ArrayRefINS3_9StringRefEEENS4_INS3_12function_refIFNS_11ParseResultEvEEEEENS4_IbEE
FNDA:1712,_ZN4mlir9stablehloL11parseStructERNS_9AsmParserEN4llvm8ArrayRefINS3_9StringRefEEENS4_INS3_12function_refIFNS_11ParseResultEvEEEEENS4_IbEE
FN:2621,_ZZN4mlir9stablehloL11parseStructERNS_9AsmParserEN4llvm8ArrayRefINS3_9StringRefEEENS4_INS3_12function_refIFNS_11ParseResultEvEEEEENS4_IbEEENK4$_90clES5_
FNDA:64,_ZZN4mlir9stablehloL11parseStructERNS_9AsmParserEN4llvm8ArrayRefINS3_9StringRefEEENS4_INS3_12function_refIFNS_11ParseResultEvEEEEENS4_IbEEENK4$_90clES5_
FN:2633,_ZN4mlir9stablehloL10printFieldIlEEvRNS_10AsmPrinterEN4llvm9StringRefET_RS5_
FNDA:608,_ZN4mlir9stablehloL10printFieldIlEEvRNS_10AsmPrinterEN4llvm9StringRefET_RS5_
FN:2641,_ZN4mlir9stablehloL10printFieldIlEEvRNS_10AsmPrinterEN4llvm9StringRefENS4_8ArrayRefIT_EERS5_
FNDA:3104,_ZN4mlir9stablehloL10printFieldIlEEvRNS_10AsmPrinterEN4llvm9StringRefENS4_8ArrayRefIT_EERS5_
FN:2651,_ZN4mlir9stablehloL11printStructIJSt4pairIPKcN4llvm8ArrayRefIlEEES8_S8_S2_IS4_lEEEEvRNS_10AsmPrinterENS5_9StringRefEDpT_
FNDA:608,_ZN4mlir9stablehloL11printStructIJSt4pairIPKcN4llvm8ArrayRefIlEEES8_S8_S2_IS4_lEEEEvRNS_10AsmPrinterENS5_9StringRefEDpT_
FN:2651,_ZN4mlir9stablehloL11printStructIJSt4pairIPKcN4llvm8ArrayRefIlEEES8_S8_S8_EEEvRNS_10AsmPrinterENS5_9StringRefEDpT_
FNDA:320,_ZN4mlir9stablehloL11printStructIJSt4pairIPKcN4llvm8ArrayRefIlEEES8_S8_S8_EEEvRNS_10AsmPrinterENS5_9StringRefEDpT_
FN:2665,_ZNK4mlir9stablehlo27ScatterDimensionNumbersAttr5printERNS_10AsmPrinterE
FNDA:288,_ZNK4mlir9stablehlo27ScatterDimensionNumbersAttr5printERNS_10AsmPrinterE
FN:2673,_ZN4mlir9stablehlo27ScatterDimensionNumbersAttr5parseERNS_9AsmParserENS_4TypeE
FNDA:440,_ZN4mlir9stablehlo27ScatterDimensionNumbersAttr5parseERNS_9AsmParserENS_4TypeE
FN:2684,_ZZN4mlir9stablehlo27ScatterDimensionNumbersAttr5parseERNS_9AsmParserENS_4TypeEENK4$_32clEv
FNDA:424,_ZZN4mlir9stablehlo27ScatterDimensionNumbersAttr5parseERNS_9AsmParserENS_4TypeEENK4$_32clEv
FN:2685,_ZZN4mlir9stablehlo27ScatterDimensionNumbersAttr5parseERNS_9AsmParserENS_4TypeEENK4$_33clEv
FNDA:400,_ZZN4mlir9stablehlo27ScatterDimensionNumbersAttr5parseERNS_9AsmParserENS_4TypeEENK4$_33clEv
FN:2686,_ZZN4mlir9stablehlo27ScatterDimensionNumbersAttr5parseERNS_9AsmParserENS_4TypeEENK4$_34clEv
FNDA:416,_ZZN4mlir9stablehlo27ScatterDimensionNumbersAttr5parseERNS_9AsmParserENS_4TypeEENK4$_34clEv
FN:2687,_ZZN4mlir9stablehlo27ScatterDimensionNumbersAttr5parseERNS_9AsmParserENS_4TypeEENK4$_35clEv
FNDA:400,_ZZN4mlir9stablehlo27ScatterDimensionNumbersAttr5parseERNS_9AsmParserENS_4TypeEENK4$_35clEv
FN:2699,_ZNK4mlir9stablehlo26GatherDimensionNumbersAttr5printERNS_10AsmPrinterE
FNDA:320,_ZNK4mlir9stablehlo26GatherDimensionNumbersAttr5printERNS_10AsmPrinterE
FN:2706,_ZN4mlir9stablehlo26GatherDimensionNumbersAttr5parseERNS_9AsmParserENS_4TypeE
FNDA:488,_ZN4mlir9stablehlo26GatherDimensionNumbersAttr5parseERNS_9AsmParserENS_4TypeE
FN:2718,_ZZN4mlir9stablehlo26GatherDimensionNumbersAttr5parseERNS_9AsmParserENS_4TypeEENK4$_36clEv
FNDA:472,_ZZN4mlir9stablehlo26GatherDimensionNumbersAttr5parseERNS_9AsmParserENS_4TypeEENK4$_36clEv
FN:2719,_ZZN4mlir9stablehlo26GatherDimensionNumbersAttr5parseERNS_9AsmParserENS_4TypeEENK4$_37clEv
FNDA:472,_ZZN4mlir9stablehlo26GatherDimensionNumbersAttr5parseERNS_9AsmParserENS_4TypeEENK4$_37clEv
FN:2720,_ZZN4mlir9stablehlo26GatherDimensionNumbersAttr5parseERNS_9AsmParserENS_4TypeEENK4$_38clEv
FNDA:472,_ZZN4mlir9stablehlo26GatherDimensionNumbersAttr5parseERNS_9AsmParserENS_4TypeEENK4$_38clEv
FN:2721,_ZZN4mlir9stablehlo26GatherDimensionNumbersAttr5parseERNS_9AsmParserENS_4TypeEENK4$_39clEv
FNDA:464,_ZZN4mlir9stablehlo26GatherDimensionNumbersAttr5parseERNS_9AsmParserENS_4TypeEENK4$_39clEv
FN:2733,_ZNK4mlir9stablehlo23DotDimensionNumbersAttr5printERNS_10AsmPrinterE
FNDA:320,_ZNK4mlir9stablehlo23DotDimensionNumbersAttr5printERNS_10AsmPrinterE
FN:2744,_ZN4mlir9stablehlo23DotDimensionNumbersAttr5parseERNS_9AsmParserENS_4TypeE
FNDA:432,_ZN4mlir9stablehlo23DotDimensionNumbersAttr5parseERNS_9AsmParserENS_4TypeE
FN:2756,_ZZN4mlir9stablehlo23DotDimensionNumbersAttr5parseERNS_9AsmParserENS_4TypeEENK4$_40clEv
FNDA:384,_ZZN4mlir9stablehlo23DotDimensionNumbersAttr5parseERNS_9AsmParserENS_4TypeEENK4$_40clEv
FN:2757,_ZZN4mlir9stablehlo23DotDimensionNumbersAttr5parseERNS_9AsmParserENS_4TypeEENK4$_41clEv
FNDA:400,_ZZN4mlir9stablehlo23DotDimensionNumbersAttr5parseERNS_9AsmParserENS_4TypeEENK4$_41clEv
FN:2758,_ZZN4mlir9stablehlo23DotDimensionNumbersAttr5parseERNS_9AsmParserENS_4TypeEENK4$_42clEv
FNDA:408,_ZZN4mlir9stablehlo23DotDimensionNumbersAttr5parseERNS_9AsmParserENS_4TypeEENK4$_42clEv
FN:2759,_ZZN4mlir9stablehlo23DotDimensionNumbersAttr5parseERNS_9AsmParserENS_4TypeEENK4$_43clEv
FNDA:408,_ZZN4mlir9stablehlo23DotDimensionNumbersAttr5parseERNS_9AsmParserENS_4TypeEENK4$_43clEv
FN:2778,_ZN4mlir9stablehlo12_GLOBAL__N_125DenseMapInfoNonSpatialDim11getEmptyKeyEv
FNDA:10328,_ZN4mlir9stablehlo12_GLOBAL__N_125DenseMapInfoNonSpatialDim11getEmptyKeyEv
FN:2782,_ZN4mlir9stablehlo12_GLOBAL__N_125DenseMapInfoNonSpatialDim15getTombstoneKeyEv
FNDA:6992,_ZN4mlir9stablehlo12_GLOBAL__N_125DenseMapInfoNonSpatialDim15getTombstoneKeyEv
FN:2786,_ZN4mlir9stablehlo12_GLOBAL__N_125DenseMapInfoNonSpatialDim12getHashValueERKNS1_13NonSpatialDimE
FNDA:5552,_ZN4mlir9stablehlo12_GLOBAL__N_125DenseMapInfoNonSpatialDim12getHashValueERKNS1_13NonSpatialDimE
FN:2790,_ZN4mlir9stablehlo12_GLOBAL__N_125DenseMapInfoNonSpatialDim7isEqualERKNS1_13NonSpatialDimES5_
FNDA:25344,_ZN4mlir9stablehlo12_GLOBAL__N_125DenseMapInfoNonSpatialDim7isEqualERKNS1_13NonSpatialDimES5_
FN:2795,_ZN4mlir9stablehlo12_GLOBAL__N_121nonSpatialDimToStringENS1_13NonSpatialDimE
FNDA:5632,_ZN4mlir9stablehlo12_GLOBAL__N_121nonSpatialDimToStringENS1_13NonSpatialDimE
FN:2811,_ZN4mlir9stablehlo26printConvolutionDimensionsERNS_10AsmPrinterENS0_24ConvDimensionNumbersAttrE
FNDA:448,_ZN4mlir9stablehlo26printConvolutionDimensionsERNS_10AsmPrinterENS0_24ConvDimensionNumbersAttrE
FN:2815,_ZZN4mlir9stablehlo26printConvolutionDimensionsERNS_10AsmPrinterENS0_24ConvDimensionNumbersAttrEENK4$_44clEN4llvm8ArrayRefIlEENS6_ISt4pairIlNS0_12_GLOBAL__N_113NonSpatialDimEEEE
FNDA:1344,_ZZN4mlir9stablehlo26printConvolutionDimensionsERNS_10AsmPrinterENS0_24ConvDimensionNumbersAttrEENK4$_44clEN4llvm8ArrayRefIlEENS6_ISt4pairIlNS0_12_GLOBAL__N_113NonSpatialDimEEEE
FN:2830,_ZZZN4mlir9stablehlo26printConvolutionDimensionsERNS_10AsmPrinterENS0_24ConvDimensionNumbersAttrEENK4$_44clEN4llvm8ArrayRefIlEENS6_ISt4pairIlNS0_12_GLOBAL__N_113NonSpatialDimEEEEENKUllE_clEl
FNDA:5280,_ZZZN4mlir9stablehlo26printConvolutionDimensionsERNS_10AsmPrinterENS0_24ConvDimensionNumbersAttrEENK4$_44clEN4llvm8ArrayRefIlEENS6_ISt4pairIlNS0_12_GLOBAL__N_113NonSpatialDimEEEEENKUllE_clEl
FN:2852,_ZN4mlir9stablehlo26printConvolutionDimensionsERNS_10AsmPrinterEPNS_9OperationENS0_24ConvDimensionNumbersAttrE
FNDA:368,_ZN4mlir9stablehlo26printConvolutionDimensionsERNS_10AsmPrinterEPNS_9OperationENS0_24ConvDimensionNumbersAttrE
FN:2858,_ZNK4mlir9stablehlo24ConvDimensionNumbersAttr5printERNS_10AsmPrinterE
FNDA:80,_ZNK4mlir9stablehlo24ConvDimensionNumbersAttr5printERNS_10AsmPrinterE
FN:2867,_ZN4mlir9stablehloL29parseConvolutionDimensionsRawERNS_9AsmParserERNS0_24ConvDimensionNumbersAttrE
FNDA:192,_ZN4mlir9stablehloL29parseConvolutionDimensionsRawERNS_9AsmParserERNS0_24ConvDimensionNumbersAttrE
FN:2886,_ZZN4mlir9stablehloL29parseConvolutionDimensionsRawERNS_9AsmParserERNS0_24ConvDimensionNumbersAttrEENK4$_91clEv
FNDA:184,_ZZN4mlir9stablehloL29parseConvolutionDimensionsRawERNS_9AsmParserERNS0_24ConvDimensionNumbersAttrEENK4$_91clEv
FN:2887,_ZZN4mlir9stablehloL29parseConvolutionDimensionsRawERNS_9AsmParserERNS0_24ConvDimensionNumbersAttrEENK4$_92clEv
FNDA:184,_ZZN4mlir9stablehloL29parseConvolutionDimensionsRawERNS_9AsmParserERNS0_24ConvDimensionNumbersAttrEENK4$_92clEv
FN:2888,_ZZN4mlir9stablehloL29parseConvolutionDimensionsRawERNS_9AsmParserERNS0_24ConvDimensionNumbersAttrEENK4$_93clEv
FNDA:184,_ZZN4mlir9stablehloL29parseConvolutionDimensionsRawERNS_9AsmParserERNS0_24ConvDimensionNumbersAttrEENK4$_93clEv
FN:2889,_ZZN4mlir9stablehloL29parseConvolutionDimensionsRawERNS_9AsmParserERNS0_24ConvDimensionNumbersAttrEENK4$_94clEv
FNDA:192,_ZZN4mlir9stablehloL29parseConvolutionDimensionsRawERNS_9AsmParserERNS0_24ConvDimensionNumbersAttrEENK4$_94clEv
FN:2892,_ZZN4mlir9stablehloL29parseConvolutionDimensionsRawERNS_9AsmParserERNS0_24ConvDimensionNumbersAttrEENK4$_95clEv
FNDA:192,_ZZN4mlir9stablehloL29parseConvolutionDimensionsRawERNS_9AsmParserERNS0_24ConvDimensionNumbersAttrEENK4$_95clEv
FN:2895,_ZZN4mlir9stablehloL29parseConvolutionDimensionsRawERNS_9AsmParserERNS0_24ConvDimensionNumbersAttrEENK4$_96clEv
FNDA:184,_ZZN4mlir9stablehloL29parseConvolutionDimensionsRawERNS_9AsmParserERNS0_24ConvDimensionNumbersAttrEENK4$_96clEv
FN:2896,_ZZN4mlir9stablehloL29parseConvolutionDimensionsRawERNS_9AsmParserERNS0_24ConvDimensionNumbersAttrEENK4$_97clEv
FNDA:192,_ZZN4mlir9stablehloL29parseConvolutionDimensionsRawERNS_9AsmParserERNS0_24ConvDimensionNumbersAttrEENK4$_97clEv
FN:2897,_ZZN4mlir9stablehloL29parseConvolutionDimensionsRawERNS_9AsmParserERNS0_24ConvDimensionNumbersAttrEENK4$_98clEv
FNDA:192,_ZZN4mlir9stablehloL29parseConvolutionDimensionsRawERNS_9AsmParserERNS0_24ConvDimensionNumbersAttrEENK4$_98clEv
FN:2898,_ZZN4mlir9stablehloL29parseConvolutionDimensionsRawERNS_9AsmParserERNS0_24ConvDimensionNumbersAttrEENK4$_99clEv
FNDA:184,_ZZN4mlir9stablehloL29parseConvolutionDimensionsRawERNS_9AsmParserERNS0_24ConvDimensionNumbersAttrEENK4$_99clEv
FN:2913,_ZN4mlir9stablehlo26parseConvolutionDimensionsERNS_9AsmParserERNS0_24ConvDimensionNumbersAttrE
FNDA:520,_ZN4mlir9stablehlo26parseConvolutionDimensionsERNS_9AsmParserERNS0_24ConvDimensionNumbersAttrE
FN:2927,_ZZN4mlir9stablehlo26parseConvolutionDimensionsERNS_9AsmParserERNS0_24ConvDimensionNumbersAttrEENK4$_45clESt3setINS0_12_GLOBAL__N_113NonSpatialDimESt7greaterIvESaIS8_EERSt4pairIN4llvm11SmallVectorIlLj6EEENSE_13SmallDenseMapIS8_lLj4ENS7_25DenseMapInfoNonSpatialDimENSE_6detail12DenseMapPairIS8_lEEEEE
FNDA:1440,_ZZN4mlir9stablehlo26parseConvolutionDimensionsERNS_9AsmParserERNS0_24ConvDimensionNumbersAttrEENK4$_45clESt3setINS0_12_GLOBAL__N_113NonSpatialDimESt7greaterIvESaIS8_EERSt4pairIN4llvm11SmallVectorIlLj6EEENSE_13SmallDenseMapIS8_lLj4ENS7_25DenseMapInfoNonSpatialDimENSE_6detail12DenseMapPairIS8_lEEEEE
FN:2988,_ZZZN4mlir9stablehlo26parseConvolutionDimensionsERNS_9AsmParserERNS0_24ConvDimensionNumbersAttrEENK4$_45clESt3setINS0_12_GLOBAL__N_113NonSpatialDimESt7greaterIvESaIS8_EERSt4pairIN4llvm11SmallVectorIlLj6EEENSE_13SmallDenseMapIS8_lLj4ENS7_25DenseMapInfoNonSpatialDimENSE_6detail12DenseMapPairIS8_lEEEEEENKUlS8_E_clES8_
FNDA:40,_ZZZN4mlir9stablehlo26parseConvolutionDimensionsERNS_9AsmParserERNS0_24ConvDimensionNumbersAttrEENK4$_45clESt3setINS0_12_GLOBAL__N_113NonSpatialDimESt7greaterIvESaIS8_EERSt4pairIN4llvm11SmallVectorIlLj6EEENSE_13SmallDenseMapIS8_lLj4ENS7_25DenseMapInfoNonSpatialDimENSE_6detail12DenseMapPairIS8_lEEEEEENKUlS8_E_clES8_
FN:3001,_ZZZN4mlir9stablehlo26parseConvolutionDimensionsERNS_9AsmParserERNS0_24ConvDimensionNumbersAttrEENK4$_45clESt3setINS0_12_GLOBAL__N_113NonSpatialDimESt7greaterIvESaIS8_EERSt4pairIN4llvm11SmallVectorIlLj6EEENSE_13SmallDenseMapIS8_lLj4ENS7_25DenseMapInfoNonSpatialDimENSE_6detail12DenseMapPairIS8_lEEEEEENKUlS8_E0_clES8_
FNDA:8,_ZZZN4mlir9stablehlo26parseConvolutionDimensionsERNS_9AsmParserERNS0_24ConvDimensionNumbersAttrEENK4$_45clESt3setINS0_12_GLOBAL__N_113NonSpatialDimESt7greaterIvESaIS8_EERSt4pairIN4llvm11SmallVectorIlLj6EEENSE_13SmallDenseMapIS8_lLj4ENS7_25DenseMapInfoNonSpatialDimENSE_6detail12DenseMapPairIS8_lEEEEEENKUlS8_E0_clES8_
FN:3079,_ZN4mlir9stablehlo24ConvDimensionNumbersAttr5parseERNS_9AsmParserENS_4TypeE
FNDA:360,_ZN4mlir9stablehlo24ConvDimensionNumbersAttr5parseERNS_9AsmParserENS_4TypeE
FN:3096,_ZNK4mlir9stablehlo18ArgResultAliasAttr5printERNS_10AsmPrinterE
FNDA:80,_ZNK4mlir9stablehlo18ArgResultAliasAttr5printERNS_10AsmPrinterE
FN:3117,_ZN4mlir9stablehlo18ArgResultAliasAttr5parseERNS_9AsmParserENS_4TypeE
FNDA:160,_ZN4mlir9stablehlo18ArgResultAliasAttr5parseERNS_9AsmParserENS_4TypeE
FN:3130,_ZZN4mlir9stablehlo18ArgResultAliasAttr5parseERNS_9AsmParserENS_4TypeEENK4$_46clEv
FNDA:80,_ZZN4mlir9stablehlo18ArgResultAliasAttr5parseERNS_9AsmParserENS_4TypeEENK4$_46clEv
FN:3131,_ZZN4mlir9stablehlo18ArgResultAliasAttr5parseERNS_9AsmParserENS_4TypeEENK4$_47clEv
FNDA:160,_ZZN4mlir9stablehlo18ArgResultAliasAttr5parseERNS_9AsmParserENS_4TypeEENK4$_47clEv
FN:3137,_ZZN4mlir9stablehlo18ArgResultAliasAttr5parseERNS_9AsmParserENS_4TypeEENK4$_48clEv
FNDA:56,_ZZN4mlir9stablehlo18ArgResultAliasAttr5parseERNS_9AsmParserENS_4TypeEENK4$_48clEv
FN:3159,_ZN4mlir9stablehloL23getTypeFromTupleIndicesENS_4TypeEN4llvm8ArrayRefIlEE
FNDA:408,_ZN4mlir9stablehloL23getTypeFromTupleIndicesENS_4TypeEN4llvm8ArrayRefIlEE
FN:3170,_ZN4mlir9stablehloL24verifyArgResultAliasAttrENS_10StringAttrENS0_18ArgResultAliasAttrEjPNS_9OperationE
FNDA:240,_ZN4mlir9stablehloL24verifyArgResultAliasAttrENS_10StringAttrENS0_18ArgResultAliasAttrEjPNS_9OperationE
FN:3182,_ZZN4mlir9stablehloL24verifyArgResultAliasAttrENS_10StringAttrENS0_18ArgResultAliasAttrEjPNS_9OperationEENK5$_100clEl
FNDA:384,_ZZN4mlir9stablehloL24verifyArgResultAliasAttrENS_10StringAttrENS0_18ArgResultAliasAttrEjPNS_9OperationEENK5$_100clEl
FN:3223,_ZN4mlir9stablehlo12_GLOBAL__N_120printWindowAttributeERNS_12OpAsmPrinterENS_17DenseElementsAttrE
FNDA:1584,_ZN4mlir9stablehlo12_GLOBAL__N_120printWindowAttributeERNS_12OpAsmPrinterENS_17DenseElementsAttrE
FN:3227,_ZZN4mlir9stablehlo12_GLOBAL__N_120printWindowAttributeERNS_12OpAsmPrinterENS_17DenseElementsAttrEENK5$_101clEb
FNDA:224,_ZZN4mlir9stablehlo12_GLOBAL__N_120printWindowAttributeERNS_12OpAsmPrinterENS_17DenseElementsAttrEENK5$_101clEb
FN:3243,_ZZN4mlir9stablehlo12_GLOBAL__N_120printWindowAttributeERNS_12OpAsmPrinterENS_17DenseElementsAttrEENK5$_102clESt4pairIllE
FNDA:704,_ZZN4mlir9stablehlo12_GLOBAL__N_120printWindowAttributeERNS_12OpAsmPrinterENS_17DenseElementsAttrEENK5$_102clESt4pairIllE
FN:3252,_ZN4mlir9stablehlo21printWindowAttributesERNS_12OpAsmPrinterEPNS_9OperationESt8optionalINS_20DenseIntElementsAttrEES7_S7_S7_S5_INS_17DenseElementsAttrEE
FNDA:368,_ZN4mlir9stablehlo21printWindowAttributesERNS_12OpAsmPrinterEPNS_9OperationESt8optionalINS_20DenseIntElementsAttrEES7_S7_S7_S5_INS_17DenseElementsAttrEE
FN:3270,_ZZN4mlir9stablehlo21printWindowAttributesERNS_12OpAsmPrinterEPNS_9OperationESt8optionalINS_20DenseIntElementsAttrEES7_S7_S7_S5_INS_17DenseElementsAttrEEENK4$_30clERKSt4pairIS8_N4llvm9StringRefEE
FNDA:1840,_ZZN4mlir9stablehlo21printWindowAttributesERNS_12OpAsmPrinterEPNS_9OperationESt8optionalINS_20DenseIntElementsAttrEES7_S7_S7_S5_INS_17DenseElementsAttrEEENK4$_30clERKSt4pairIS8_N4llvm9StringRefEE
FN:3272,_ZZN4mlir9stablehlo21printWindowAttributesERNS_12OpAsmPrinterEPNS_9OperationESt8optionalINS_20DenseIntElementsAttrEES7_S7_S7_S5_INS_17DenseElementsAttrEEENK4$_49clERKSt4pairIS8_N4llvm9StringRefEE
FNDA:1584,_ZZN4mlir9stablehlo21printWindowAttributesERNS_12OpAsmPrinterEPNS_9OperationESt8optionalINS_20DenseIntElementsAttrEES7_S7_S7_S5_INS_17DenseElementsAttrEEENK4$_49clERKSt4pairIS8_N4llvm9StringRefEE
FN:3279,_ZN4mlir9stablehlo21parseWindowAttributesERNS_11OpAsmParserERNS_20DenseIntElementsAttrES4_S4_S4_RNS_17DenseElementsAttrE
FNDA:352,_ZN4mlir9stablehlo21parseWindowAttributesERNS_11OpAsmParserERNS_20DenseIntElementsAttrES4_S4_S4_RNS_17DenseElementsAttrE
FN:3302,_ZZN4mlir9stablehlo21parseWindowAttributesERNS_11OpAsmParserERNS_20DenseIntElementsAttrES4_S4_S4_RNS_17DenseElementsAttrEENK4$_50clEv
FNDA:3096,_ZZN4mlir9stablehlo21parseWindowAttributesERNS_11OpAsmParserERNS_20DenseIntElementsAttrES4_S4_S4_RNS_17DenseElementsAttrEENK4$_50clEv
FN:3309,_ZZN4mlir9stablehlo21parseWindowAttributesERNS_11OpAsmParserERNS_20DenseIntElementsAttrES4_S4_S4_RNS_17DenseElementsAttrEENK4$_51clEv
FNDA:616,_ZZN4mlir9stablehlo21parseWindowAttributesERNS_11OpAsmParserERNS_20DenseIntElementsAttrES4_S4_S4_RNS_17DenseElementsAttrEENK4$_51clEv
FN:3343,_ZZN4mlir9stablehlo21parseWindowAttributesERNS_11OpAsmParserERNS_20DenseIntElementsAttrES4_S4_S4_RNS_17DenseElementsAttrEENK4$_31clEl
FNDA:24,_ZZN4mlir9stablehlo21parseWindowAttributesERNS_11OpAsmParserERNS_20DenseIntElementsAttrES4_S4_S4_RNS_17DenseElementsAttrEENK4$_31clEl
FN:3375,_ZN4mlir9stablehloL23buildSortComparisonBodyEN4llvm8ArrayRefINS_4TypeEEENS0_19ComparisonDirectionESt8optionalINS1_9StringRefEEPNS_6RegionEPNS_9OpBuilderE
FNDA:0,_ZN4mlir9stablehloL23buildSortComparisonBodyEN4llvm8ArrayRefINS_4TypeEEENS0_19ComparisonDirectionESt8optionalINS1_9StringRefEEPNS_6RegionEPNS_9OpBuilderE
FN:3401,_ZN4mlir9stablehlo12createSortOpEPNS_15PatternRewriterERKNS_8LocationERKN4llvm8ArrayRefINS_5ValueEEERKNS7_INS_4TypeEEElbNS0_19ComparisonDirectionE
FNDA:0,_ZN4mlir9stablehlo12createSortOpEPNS_15PatternRewriterERKNS_8LocationERKN4llvm8ArrayRefINS_5ValueEEERKNS7_INS_4TypeEEElbNS0_19ComparisonDirectionE
FN:3427,_ZN4mlir9stablehlo16StablehloDialect19materializeConstantERNS_9OpBuilderENS_9AttributeENS_4TypeENS_8LocationE
FNDA:160,_ZN4mlir9stablehlo16StablehloDialect19materializeConstantERNS_9OpBuilderENS_9AttributeENS_4TypeENS_8LocationE
FN:3440,_ZN4mlir9stablehlo16StablehloDialect24verifyRegionArgAttributeEPNS_9OperationEjjNS_14NamedAttributeE
FNDA:304,_ZN4mlir9stablehlo16StablehloDialect24verifyRegionArgAttributeEPNS_9OperationEjjNS_14NamedAttributeE
FN:3450,_ZN4mlir9stablehlo16StablehloDialect24verifyOperationAttributeEPNS_9OperationENS_14NamedAttributeE
FNDA:583,_ZN4mlir9stablehlo16StablehloDialect24verifyOperationAttributeEPNS_9OperationENS_14NamedAttributeE
DA:89,176
DA:91,176
DA:92,584
DA:93,408
DA:94,408
DA:95,408
DA:96,408
DA:97,176
DA:103,935
DA:104,935
DA:105,24
DA:106,24
DA:107,911
DA:108,64
DA:109,32
DA:110,879
DA:111,935
DA:115,160
DA:116,160
DA:117,0
DA:118,0
DA:119,160
DA:126,4608
DA:128,4608
DA:129,4608
DA:130,4608
DA:137,0
DA:139,0
DA:140,0
DA:141,0
DA:142,0
DA:148,398
DA:149,398
DA:150,398
DA:151,398
DA:171,0
DA:172,0
DA:173,0
DA:174,0
DA:175,0
DA:176,0
DA:177,0
DA:178,0
DA:179,0
DA:180,0
DA:181,0
DA:182,0
DA:183,0
DA:184,0
DA:185,0
DA:186,0
DA:187,0
DA:188,0
DA:189,0
DA:190,0
DA:191,0
DA:192,0
DA:193,0
DA:194,0
DA:195,0
DA:196,0
DA:197,0
DA:198,0
DA:199,0
DA:200,0
DA:201,0
DA:202,0
DA:203,0
DA:204,0
DA:205,0
DA:206,0
DA:207,0
DA:208,0
DA:209,0
DA:210,0
DA:216,328
DA:219,328
DA:220,328
DA:221,328
DA:222,328
DA:228,3784
DA:229,3784
DA:232,3784
DA:236,168
DA:237,168
DA:238,168
DA:239,168
DA:240,168
DA:241,168
DA:245,0
DA:246,0
DA:247,0
DA:248,0
DA:249,0
DA:250,0
DA:251,0
DA:252,0
DA:253,0
DA:256,168
DA:257,168
DA:258,168
DA:259,168
DA:261,8848
DA:264,8848
DA:265,8848
DA:266,17696
DA:267,8848
DA:268,8848
DA:270,8097
DA:271,8097
DA:272,8093
DA:273,8093
DA:277,8093
DA:278,24
DA:279,8093
DA:280,8093
DA:282,4048
DA:284,4048
DA:285,8
DA:286,8
DA:287,8
DA:288,8
DA:289,0
DA:290,8
DA:291,8
DA:292,8
DA:293,8
DA:294,8
DA:296,4040
DA:297,4040
DA:298,8080
DA:299,4040
DA:300,0
DA:301,4040
DA:302,4040
DA:303,4048
DA:311,1568
DA:313,1568
DA:314,16
DA:315,16
DA:318,1552
DA:319,1552
DA:320,1552
DA:321,1568
DA:327,264
DA:330,264
DA:331,264
DA:332,264
DA:333,264
DA:339,1015
DA:342,1015
DA:345,280
DA:346,8
DA:350,272
DA:351,776
DA:352,504
DA:353,504
DA:354,48
DA:355,24
DA:356,24
DA:357,24
DA:359,1056
DA:360,480
DA:362,576
DA:364,576
DA:365,1152
DA:366,576
DA:368,576
DA:369,8
DA:371,568
DA:375,568
DA:376,80
DA:377,16
DA:378,8
DA:379,8
DA:380,8
DA:385,488
DA:389,488
DA:390,488
DA:391,488
DA:392,480
DA:393,32
DA:394,16
DA:395,16
DA:396,16
DA:397,576
DA:398,448
DA:399,504
DA:402,272
DA:403,272
DA:414,272
DA:415,272
DA:416,32
DA:418,240
DA:421,544
DA:422,272
DA:423,40
DA:426,232
DA:427,16
DA:428,272
DA:432,951
DA:433,1175
DA:434,224
DA:435,224
DA:436,224
DA:437,224
DA:439,224
DA:440,224
DA:441,16
DA:442,8
DA:444,8
DA:446,216
DA:447,256
DA:448,80
DA:449,40
DA:450,32
DA:451,16
DA:452,8
DA:454,32
DA:455,40
DA:456,208
DA:457,0
DA:458,208
DA:459,240
DA:460,64
DA:461,32
DA:462,24
DA:463,16
DA:464,8
DA:466,24
DA:467,32
DA:468,200
DA:469,16
DA:470,8
DA:471,8
DA:472,8
DA:473,224
DA:474,919
DA:475,1015
DA:477,16
DA:479,16
DA:482,16
DA:483,16
DA:484,16
DA:485,16
DA:486,16
DA:487,16
DA:488,16
DA:494,216
DA:497,216
DA:498,216
DA:499,216
DA:500,216
DA:506,805
DA:507,1610
DA:508,805
DA:516,608
DA:517,608
DA:519,608
DA:521,320
DA:522,800
DA:523,480
DA:524,480
DA:525,320
DA:526,608
DA:528,72
DA:530,72
DA:532,64
DA:533,16
DA:535,48
DA:536,96
DA:537,96
DA:538,48
DA:539,48
DA:541,24
DA:543,24
DA:544,24
DA:545,72
DA:551,551
DA:552,551
DA:553,551
DA:554,551
DA:555,551
DA:556,551
DA:557,551
DA:558,551
DA:561,8
DA:563,8
DA:564,8
DA:565,8
DA:566,8
DA:568,8
DA:569,8
DA:570,8
DA:571,16
DA:572,16
DA:573,16
DA:575,32
DA:576,24
DA:577,40
DA:578,16
DA:579,8
DA:580,32
DA:581,24
DA:582,40
DA:583,16
DA:584,8
DA:586,16
DA:587,8
DA:588,8
DA:589,8
DA:595,824
DA:598,824
DA:599,824
DA:600,1648
DA:601,824
DA:602,824
DA:603,824
DA:604,824
DA:627,8
DA:629,8
DA:630,32
DA:631,24
DA:632,8
DA:634,0
DA:636,0
DA:637,0
DA:638,0
DA:639,0
DA:640,0
DA:641,0
DA:642,0
DA:643,0
DA:644,0
DA:645,0
DA:648,8
DA:649,8
DA:651,8
DA:652,8
DA:653,8
DA:655,8
DA:656,8
DA:658,8
DA:659,8
DA:660,8
DA:661,48
DA:662,40
DA:665,8
DA:666,8
DA:667,16
DA:668,32
DA:670,24
DA:671,32
DA:672,16
DA:674,8
DA:675,24
DA:676,16
DA:678,16
DA:679,8
DA:680,8
DA:681,8
DA:682,8
DA:683,8
DA:685,16
DA:686,8
DA:687,8
DA:689,8
DA:690,8
DA:694,8
DA:696,8
DA:697,8
DA:700,480
DA:703,480
DA:704,480
DA:705,480
DA:706,480
DA:707,480
DA:708,480
DA:709,480
DA:710,480
DA:711,480
DA:712,480
DA:718,0
DA:720,0
DA:721,0
DA:724,216
DA:727,216
DA:728,216
DA:729,216
DA:730,216
DA:731,216
DA:732,216
DA:733,216
DA:734,216
DA:735,216
DA:741,288
DA:742,288
DA:743,288
DA:744,288
DA:745,288
DA:747,272
DA:749,272
DA:750,272
DA:757,632
DA:758,632
DA:765,8
DA:766,8
DA:767,16
DA:768,8
DA:769,8
DA:770,0
DA:771,8
DA:773,8
DA:775,8
DA:776,8
DA:777,16
DA:778,8
DA:779,8
DA:780,8
DA:786,264
DA:789,264
DA:790,264
DA:791,264
DA:792,264
DA:793,264
DA:794,264
DA:800,999
DA:803,999
DA:804,999
DA:805,999
DA:806,999
DA:812,342
DA:813,342
DA:820,782
DA:821,782
DA:822,782
DA:823,782
DA:824,782
DA:825,782
DA:826,782
DA:827,782
DA:828,782
DA:829,782
DA:830,782
DA:831,782
DA:832,782
DA:833,782
DA:834,782
DA:841,0
DA:842,0
DA:843,0
DA:844,0
DA:845,0
DA:846,0
DA:848,0
DA:849,0
DA:850,0
DA:856,296
DA:859,296
DA:860,296
DA:861,296
DA:862,296
DA:863,296
DA:864,296
DA:865,296
DA:867,0
DA:871,0
DA:872,0
DA:873,0
DA:874,0
DA:875,0
DA:881,304
DA:882,608
DA:883,304
DA:884,304
DA:891,488
DA:892,976
DA:893,488
DA:900,304
DA:903,304
DA:904,304
DA:905,304
DA:906,304
DA:907,304
DA:908,304
DA:909,304
DA:915,288
DA:918,288
DA:919,288
DA:920,288
DA:921,288
DA:922,288
DA:923,288
DA:929,184
DA:932,184
DA:933,184
DA:934,184
DA:935,184
DA:936,184
DA:937,184
DA:938,184
DA:944,0
DA:946,0
DA:947,0
DA:948,0
DA:951,0
DA:955,0
DA:956,0
DA:957,0
DA:958,0
DA:959,0
DA:960,0
DA:962,0
DA:963,0
DA:964,0
DA:966,408
DA:967,408
DA:974,312
DA:977,312
DA:978,312
DA:979,624
DA:980,312
DA:981,312
DA:982,312
DA:984,8
DA:986,8
DA:987,8
DA:988,8
DA:990,8
DA:992,8
DA:994,8
DA:995,8
DA:998,24
DA:999,32
DA:1000,32
DA:1003,16
DA:1004,16
DA:1005,16
DA:1007,16
DA:1008,8
DA:1009,16
DA:1010,8
DA:1013,8
DA:1014,8
DA:1020,392
DA:1021,784
DA:1022,392
DA:1029,144
DA:1030,144
DA:1031,144
DA:1032,144
DA:1033,144
DA:1036,0
DA:1038,0
DA:1039,0
DA:1040,0
DA:1041,0
DA:1042,0
DA:1043,0
DA:1049,248
DA:1052,248
DA:1053,248
DA:1054,496
DA:1055,248
DA:1056,248
DA:1058,0
DA:1060,0
DA:1062,0
DA:1063,0
DA:1070,216
DA:1073,216
DA:1074,216
DA:1075,216
DA:1076,216
DA:1082,184
DA:1085,184
DA:1086,184
DA:1087,184
DA:1088,184
DA:1094,128
DA:1097,128
DA:1098,128
DA:1099,256
DA:1100,128
DA:1101,128
DA:1107,184
DA:1110,184
DA:1111,184
DA:1112,184
DA:1113,184
DA:1119,728
DA:1122,728
DA:1123,728
DA:1124,1456
DA:1125,728
DA:1126,728
DA:1128,8
DA:1130,8
DA:1131,8
DA:1132,8
DA:1134,8
DA:1136,8
DA:1138,8
DA:1139,8
DA:1140,56
DA:1141,48
DA:1144,8
DA:1145,32
DA:1146,24
DA:1147,24
DA:1148,24
DA:1150,24
DA:1151,72
DA:1152,96
DA:1153,48
DA:1154,48
DA:1155,48
DA:1156,24
DA:1157,24
DA:1159,8
DA:1160,8
DA:1161,24
DA:1162,16
DA:1163,16
DA:1164,0
DA:1165,0
DA:1166,0
DA:1168,32
DA:1169,16
DA:1170,16
DA:1172,16
DA:1173,8
DA:1174,16
DA:1175,8
DA:1176,8
DA:1177,8
DA:1179,8
DA:1180,8
DA:1186,112
DA:1187,112
DA:1190,0
DA:1192,0
DA:1193,0
DA:1194,0
DA:1195,0
DA:1196,0
DA:1197,0
DA:1203,328
DA:1206,328
DA:1207,328
DA:1208,656
DA:1209,328
DA:1210,328
DA:1211,328
DA:1212,328
DA:1217,144
DA:1218,288
DA:1219,144
DA:1220,144
DA:1223,8
DA:1225,8
DA:1226,8
DA:1227,8
DA:1228,8
DA:1229,8
DA:1230,8
DA:1232,8
DA:1234,8
DA:1236,8
DA:1237,8
DA:1238,8
DA:1239,8
DA:1240,8
DA:1241,8
DA:1242,8
DA:1243,16
DA:1244,8
DA:1245,8
DA:1246,8
DA:1247,8
DA:1248,8
DA:1249,8
DA:1251,16
DA:1252,8
DA:1253,16
DA:1254,8
DA:1255,16
DA:1256,8
DA:1257,8
DA:1260,8
DA:1262,16
DA:1263,8
DA:1264,16
DA:1265,8
DA:1267,8
DA:1268,8
DA:1274,411
DA:1275,411
DA:1276,411
DA:1277,411
DA:1283,432
DA:1286,432
DA:1287,432
DA:1288,864
DA:1289,432
DA:1290,432
DA:1292,0
DA:1294,0
DA:1295,0
DA:1296,0
DA:1303,424
DA:1306,424
DA:1307,424
DA:1308,424
DA:1309,424
DA:1315,581
DA:1317,581
DA:1318,581
DA:1319,581
DA:1320,581
DA:1326,478
DA:1327,478
DA:1328,478
DA:1329,478
DA:1335,440
DA:1338,440
DA:1339,440
DA:1340,440
DA:1341,440
DA:1342,440
DA:1343,440
DA:1344,440
DA:1345,440
DA:1347,647
DA:1348,1294
DA:1349,647
DA:1350,647
DA:1351,647
DA:1355,0
DA:1362,0
DA:1363,0
DA:1364,0
DA:1365,0
DA:1366,0
DA:1367,0
DA:1368,0
DA:1369,0
DA:1370,0
DA:1371,0
DA:1372,0
DA:1373,0
DA:1374,0
DA:1375,0
DA:1376,0
DA:1377,0
DA:1378,0
DA:1380,0
DA:1381,0
DA:1382,0
DA:1383,0
DA:1384,0
DA:1385,0
DA:1386,0
DA:1387,0
DA:1388,0
DA:1389,0
DA:1390,0
DA:1391,0
DA:1392,0
DA:1393,0
DA:1394,0
DA:1395,0
DA:1396,0
DA:1399,0
DA:1400,0
DA:1401,0
DA:1402,0
DA:1403,0
DA:1405,0
DA:1406,0
DA:1407,0
DA:1408,0
DA:1409,0
DA:1410,0
DA:1412,0
DA:1413,0
DA:1419,248
DA:1420,496
DA:1421,248
DA:1428,528
DA:1429,528
DA:1430,528
DA:1431,528
DA:1432,528
DA:1434,2112
DA:1435,528
DA:1436,528
DA:1437,528
DA:1453,736
DA:1455,736
DA:1456,736
DA:1458,576
DA:1461,576
DA:1463,1584
DA:1464,528
DA:1465,528
DA:1466,528
DA:1467,480
DA:1468,96
DA:1471,480
DA:1473,480
DA:1474,480
DA:1475,480
DA:1476,480
DA:1479,352
DA:1482,304
DA:1483,304
DA:1485,304
DA:1486,304
DA:1488,192
DA:1489,128
DA:1490,64
DA:1493,128
DA:1494,736
DA:1496,736
DA:1500,736
DA:1501,736
DA:1502,1680
DA:1503,944
DA:1504,944
DA:1505,944
DA:1506,944
DA:1507,736
DA:1514,736
DA:1515,128
DA:1516,128
DA:1517,128
DA:1519,128
DA:1520,128
DA:1521,128
DA:1522,128
DA:1523,128
DA:1524,128
DA:1525,608
DA:1526,608
DA:1527,608
DA:1528,608
DA:1529,608
DA:1530,608
DA:1531,608
DA:1532,608
DA:1536,608
DA:1537,608
DA:1538,1424
DA:1539,816
DA:1540,816
DA:1541,816
DA:1542,816
DA:1543,816
DA:1544,816
DA:1545,608
DA:1546,608
DA:1547,608
DA:1549,736
DA:1551,192
DA:1552,192
DA:1553,192
DA:1559,192
DA:1560,192
DA:1561,424
DA:1562,424
DA:1563,424
DA:1564,232
DA:1565,464
DA:1566,232
DA:1567,232
DA:1568,0
DA:1569,232
DA:1570,232
DA:1571,232
DA:1572,192
DA:1577,192
DA:1580,128
DA:1581,256
DA:1582,128
DA:1583,128
DA:1584,128
DA:1586,128
DA:1587,256
DA:1588,128
DA:1589,256
DA:1590,384
DA:1591,128
DA:1592,128
DA:1593,128
DA:1594,0
DA:1595,128
DA:1596,128
DA:1599,128
DA:1600,128
DA:1601,128
DA:1602,128
DA:1603,128
DA:1604,128
DA:1605,128
DA:1606,464
DA:1608,336
DA:1609,336
DA:1610,336
DA:1611,336
DA:1612,672
DA:1613,336
DA:1614,336
DA:1615,0
DA:1616,336
DA:1617,336
DA:1618,336
DA:1619,336
DA:1620,336
DA:1621,296
DA:1622,296
DA:1623,336
DA:1624,168
DA:1625,336
DA:1626,504
DA:1627,168
DA:1628,0
DA:1629,168
DA:1630,128
DA:1631,128
DA:1632,128
DA:1633,128
DA:1634,128
DA:1635,128
DA:1639,128
DA:1640,384
DA:1641,256
DA:1642,128
DA:1643,0
DA:1645,464
DA:1646,128
DA:1647,336
DA:1648,336
DA:1649,128
DA:1650,128
DA:1651,128
DA:1655,64
DA:1656,64
DA:1658,64
DA:1659,64
DA:1660,120
DA:1661,56
DA:1662,48
DA:1663,48
DA:1664,40
DA:1665,48
DA:1666,24
DA:1668,24
DA:1673,40
DA:1674,80
DA:1675,40
DA:1676,40
DA:1677,40
DA:1679,40
DA:1680,40
DA:1681,80
DA:1682,40
DA:1683,40
DA:1684,40
DA:1685,40
DA:1686,0
DA:1688,40
DA:1689,0
DA:1690,0
DA:1691,0
DA:1696,40
DA:1699,80
DA:1700,40
DA:1701,0
DA:1704,80
DA:1705,40
DA:1708,40
DA:1711,40
DA:1712,40
DA:1713,40
DA:1716,40
DA:1717,40
DA:1719,40
DA:1720,40
DA:1721,40
DA:1722,40
DA:1724,40
DA:1727,40
DA:1731,40
DA:1732,40
DA:1733,40
DA:1735,40
DA:1736,192
DA:1738,1192
DA:1741,1192
DA:1742,1192
DA:1743,2384
DA:1744,1192
DA:1745,1192
DA:1746,1192
DA:1748,1285
DA:1749,2570
DA:1750,1285
DA:1753,8
DA:1755,8
DA:1756,8
DA:1757,8
DA:1759,8
DA:1761,8
DA:1763,8
DA:1764,8
DA:1765,16
DA:1766,8
DA:1767,8
DA:1768,8
DA:1769,16
DA:1770,8
DA:1773,24
DA:1774,16
DA:1775,16
DA:1776,16
DA:1777,16
DA:1778,8
DA:1779,8
DA:1780,16
DA:1782,16
DA:1783,8
DA:1784,16
DA:1785,8
DA:1787,16
DA:1788,8
DA:1790,8
DA:1791,8
DA:1796,312
DA:1799,312
DA:1800,312
DA:1801,624
DA:1802,312
DA:1803,312
DA:1808,288
DA:1809,288
DA:1817,445
DA:1818,890
DA:1819,445
DA:1826,656
DA:1829,656
DA:1830,656
DA:1831,656
DA:1832,656
DA:1833,656
DA:1834,656
DA:1835,656
DA:1837,0
DA:1839,0
DA:1840,0
DA:1841,0
DA:1842,0
DA:1843,0
DA:1844,0
DA:1850,528
DA:1853,528
DA:1854,528
DA:1855,1056
DA:1856,528
DA:1857,528
DA:1859,0
DA:1861,0
DA:1863,0
DA:1864,0
DA:1871,655
DA:1872,1310
DA:1873,655
DA:1874,8
DA:1875,647
DA:1876,647
DA:1877,647
DA:1878,647
DA:1879,655
DA:1883,664
DA:1886,664
DA:1887,664
DA:1889,664
DA:1890,664
DA:1892,664
DA:1893,664
DA:1894,32
DA:1895,32
DA:1898,632
DA:1899,632
DA:1900,632
DA:1901,0
DA:1902,0
DA:1905,632
DA:1906,632
DA:1907,1264
DA:1908,632
DA:1909,176
DA:1911,632
DA:1912,632
DA:1914,632
DA:1915,632
DA:1916,64
DA:1917,32
DA:1918,32
DA:1919,32
DA:1920,32
DA:1921,32
DA:1922,32
DA:1924,632
DA:1925,632
DA:1926,1552
DA:1927,96
DA:1928,1072
DA:1929,536
DA:1930,632
DA:1931,632
DA:1932,664
DA:1938,392
DA:1941,392
DA:1942,392
DA:1943,784
DA:1944,392
DA:1945,392
DA:1946,392
DA:1947,392
DA:1949,8
DA:1951,8
DA:1952,8
DA:1953,8
DA:1954,8
DA:1955,8
DA:1957,8
DA:1958,8
DA:1959,8
DA:1961,8
DA:1962,8
DA:1963,8
DA:1965,8
DA:1966,8
DA:1967,8
DA:1969,40
DA:1970,32
DA:1972,40
DA:1973,32
DA:1975,40
DA:1976,32
DA:1978,8
DA:1979,8
DA:1981,8
DA:1982,8
DA:1983,40
DA:1984,32
DA:1985,32
DA:1988,32
DA:1991,32
DA:1992,0
DA:1993,0
DA:1994,0
DA:1995,0
DA:1996,0
DA:1997,0
DA:1998,0
DA:1999,0
DA:2002,32
DA:2003,32
DA:2004,32
DA:2006,8
DA:2007,8
DA:2008,8
DA:2009,8
DA:2010,8
DA:2016,96
DA:2017,192
DA:2018,96
DA:2019,96
DA:2022,8
DA:2024,8
DA:2025,8
DA:2026,8
DA:2027,8
DA:2028,8
DA:2029,8
DA:2031,8
DA:2033,8
DA:2035,8
DA:2036,8
DA:2037,8
DA:2038,8
DA:2039,8
DA:2041,32
DA:2042,24
DA:2045,8
DA:2046,8
DA:2047,8
DA:2049,16
DA:2050,8
DA:2051,8
DA:2052,8
DA:2053,8
DA:2054,8
DA:2055,8
DA:2056,8
DA:2057,8
DA:2058,8
DA:2061,16
DA:2062,8
DA:2063,16
DA:2064,8
DA:2065,16
DA:2066,8
DA:2067,8
DA:2068,16
DA:2069,8
DA:2070,16
DA:2071,8
DA:2074,8
DA:2076,16
DA:2077,8
DA:2078,16
DA:2079,8
DA:2082,8
DA:2083,8
DA:2089,416
DA:2090,416
DA:2097,128
DA:2099,128
DA:2100,128
DA:2107,136
DA:2110,136
DA:2111,136
DA:2118,296
DA:2121,296
DA:2122,296
DA:2123,296
DA:2124,296
DA:2130,360
DA:2133,360
DA:2134,360
DA:2135,360
DA:2136,360
DA:2142,416
DA:2145,416
DA:2146,416
DA:2147,832
DA:2148,416
DA:2149,416
DA:2150,416
DA:2156,0
DA:2157,0
DA:2158,0
DA:2159,0
DA:2160,0
DA:2162,0
DA:2164,0
DA:2165,0
DA:2167,400
DA:2170,400
DA:2171,400
DA:2172,400
DA:2173,400
DA:2175,444
DA:2176,888
DA:2177,444
DA:2184,8
DA:2186,8
DA:2187,8
DA:2188,8
DA:2190,8
DA:2192,8
DA:2194,8
DA:2195,16
DA:2196,8
DA:2197,8
DA:2199,8
DA:2200,40
DA:2201,32
DA:2204,40
DA:2205,32
DA:2206,32
DA:2207,64
DA:2208,32
DA:2209,32
DA:2210,32
DA:2212,16
DA:2213,8
DA:2214,16
DA:2215,8
DA:2217,8
DA:2219,8
DA:2220,8
DA:2222,456
DA:2225,456
DA:2226,456
DA:2227,912
DA:2228,456
DA:2229,456
DA:2235,696
DA:2238,696
DA:2239,696
DA:2240,1392
DA:2241,696
DA:2242,1392
DA:2243,696
DA:2244,696
DA:2245,696
DA:2251,368
DA:2254,368
DA:2255,368
DA:2256,736
DA:2257,368
DA:2258,368
DA:2264,1327
DA:2267,1327
DA:2268,1327
DA:2269,2654
DA:2270,1327
DA:2271,1327
DA:2277,0
DA:2279,0
DA:2280,0
DA:2281,0
DA:2282,0
DA:2283,0
DA:2285,1792
DA:2288,1792
DA:2289,1792
DA:2290,3584
DA:2291,1792
DA:2292,1792
DA:2294,8
DA:2296,8
DA:2297,16
DA:2298,8
DA:2305,280
DA:2308,280
DA:2309,280
DA:2310,560
DA:2311,280
DA:2312,280
DA:2314,456
DA:2315,912
DA:2316,456
DA:2317,456
DA:2318,456
DA:2325,408
DA:2328,408
DA:2329,408
DA:2330,816
DA:2331,408
DA:2332,408
DA:2334,592
DA:2335,592
DA:2336,592
DA:2337,592
DA:2338,592
DA:2339,592
DA:2340,592
DA:2347,352
DA:2350,352
DA:2351,352
DA:2352,352
DA:2353,352
DA:2355,400
DA:2356,400
DA:2366,240
DA:2367,240
DA:2368,240
DA:2369,240
DA:2370,752
DA:2371,512
DA:2372,512
DA:2373,512
DA:2374,512
DA:2375,240
DA:2376,240
DA:2377,192
DA:2378,192
DA:2379,192
DA:2380,240
DA:2381,240
DA:2382,240
DA:2383,240
DA:2384,240
DA:2385,240
DA:2386,240
DA:2388,48
DA:2389,48
DA:2394,48
DA:2395,48
DA:2396,48
DA:2397,96
DA:2398,96
DA:2399,72
DA:2400,72
DA:2401,72
DA:2402,0
DA:2403,72
DA:2404,72
DA:2405,72
DA:2406,48
DA:2407,72
DA:2408,48
DA:2409,24
DA:2410,0
DA:2411,24
DA:2412,48
DA:2413,48
DA:2414,96
DA:2415,48
DA:2416,48
DA:2417,48
DA:2418,48
DA:2419,48
DA:2420,0
DA:2421,48
DA:2422,48
DA:2424,176
DA:2427,176
DA:2428,176
DA:2429,352
DA:2430,176
DA:2431,176
DA:2472,0
DA:2473,0
DA:2474,0
DA:2478,0
DA:2479,0
DA:2480,0
DA:2484,8
DA:2485,8
DA:2492,1586
DA:2493,1586
DA:2496,893
DA:2498,680
DA:2499,680
DA:2508,9408
DA:2509,9408
DA:2510,9408
DA:2514,9408
DA:2515,9408
DA:2516,9408
DA:2517,9408
DA:2518,9408
DA:2522,9408
DA:2524,6712
DA:2525,6712
DA:2526,6712
DA:2528,6712
DA:2529,16
DA:2530,8
DA:2531,8
DA:2532,6712
DA:2534,4720
DA:2535,4720
DA:2536,4720
DA:2537,4720
DA:2539,0
DA:2540,4720
DA:2544,9192
DA:2545,9192
DA:2546,9192
DA:2547,9192
DA:2548,9192
DA:2549,9192
DA:2550,0
DA:2551,0
DA:2552,9192
DA:2556,6272
DA:2557,6272
DA:2558,6272
DA:2560,6272
DA:2561,6272
DA:2565,5048
DA:2566,5048
DA:2567,5048
DA:2568,5048
DA:2569,5048
DA:2570,5048
DA:2571,5048
DA:2572,5048
DA:2574,160
DA:2576,160
DA:2577,160
DA:2578,160
DA:2579,16
DA:2580,8
DA:2581,8
DA:2582,152
DA:2583,160
DA:2594,1712
DA:2597,1712
DA:2598,1712
DA:2599,1712
DA:2600,1712
DA:2601,2352
DA:2602,2248
DA:2603,11488
DA:2604,9240
DA:2605,9240
DA:2606,9240
DA:2607,7128
DA:2608,48
DA:2609,24
DA:2610,7104
DA:2611,7048
DA:2612,7048
DA:2613,7104
DA:2614,7096
DA:2615,5536
DA:2616,5536
DA:2617,9240
DA:2618,656
DA:2619,32
DA:2620,16
DA:2621,80
DA:2622,64
DA:2623,64
DA:2624,16
DA:2625,16
DA:2626,2248
DA:2627,104
DA:2628,1712
DA:2633,608
DA:2634,608
DA:2635,608
DA:2636,528
DA:2637,528
DA:2638,528
DA:2639,608
DA:2641,3104
DA:2642,3104
DA:2643,3104
DA:2644,2880
DA:2645,2880
DA:2646,2880
DA:2647,2880
DA:2648,2880
DA:2649,3104
DA:2651,928
DA:2652,928
DA:2653,928
DA:2654,928
DA:2658,4640
DA:2659,3712
DA:2661,928
DA:2662,928
DA:2665,288
DA:2666,576
DA:2667,288
DA:2668,288
DA:2669,288
DA:2670,288
DA:2671,288
DA:2672,288
DA:2673,440
DA:2674,440
DA:2675,440
DA:2676,440
DA:2677,440
DA:2678,440
DA:2680,880
DA:2681,440
DA:2682,440
DA:2684,2184
DA:2685,840
DA:2686,856
DA:2687,840
DA:2688,16
DA:2689,8
DA:2690,8
DA:2693,864
DA:2694,432
DA:2695,432
DA:2696,440
DA:2699,320
DA:2700,640
DA:2701,320
DA:2702,320
DA:2703,320
DA:2704,320
DA:2706,488
DA:2707,488
DA:2709,488
DA:2710,488
DA:2711,488
DA:2712,488
DA:2714,976
DA:2715,488
DA:2716,488
DA:2718,2424
DA:2719,960
DA:2720,960
DA:2721,952
DA:2722,16
DA:2723,8
DA:2724,8
DA:2727,960
DA:2728,480
DA:2729,480
DA:2730,488
DA:2733,320
DA:2734,320
DA:2735,320
DA:2736,320
DA:2737,320
DA:2738,320
DA:2739,320
DA:2740,320
DA:2741,320
DA:2742,320
DA:2744,432
DA:2745,432
DA:2747,432
DA:2748,432
DA:2749,432
DA:2750,432
DA:2752,864
DA:2753,432
DA:2754,432
DA:2756,2112
DA:2757,832
DA:2758,840
DA:2759,840
DA:2760,64
DA:2761,32
DA:2762,32
DA:2764,800
DA:2765,400
DA:2766,400
DA:2767,432
DA:2778,10328
DA:2779,10328
DA:2782,6992
DA:2783,6992
DA:2786,5552
DA:2787,5552
DA:2790,25344
DA:2791,25344
DA:2795,5632
DA:2796,5632
DA:2798,3728
DA:2800,2832
DA:2802,1904
DA:2804,936
DA:2805,0
DA:2806,0
DA:2807,5632
DA:2811,448
DA:2814,448
DA:2815,1792
DA:2816,1344
DA:2817,2688
DA:2818,1344
DA:2821,4032
DA:2822,1344
DA:2823,2688
DA:2824,3936
DA:2825,2592
DA:2829,1344
DA:2830,6624
DA:2831,5280
DA:2832,2592
DA:2834,2688
DA:2835,5280
DA:2836,1344
DA:2837,1344
DA:2839,896
DA:2840,896
DA:2841,448
DA:2842,448
DA:2843,896
DA:2844,896
DA:2845,448
DA:2846,448
DA:2847,896
DA:2848,896
DA:2849,448
DA:2850,448
DA:2852,368
DA:2853,368
DA:2854,368
DA:2855,368
DA:2858,80
DA:2859,80
DA:2860,80
DA:2861,80
DA:2862,80
DA:2867,192
DA:2868,192
DA:2869,192
DA:2870,192
DA:2871,192
DA:2872,192
DA:2873,192
DA:2874,192
DA:2875,192
DA:2876,192
DA:2877,192
DA:2878,384
DA:2879,192
DA:2880,192
DA:2885,1920
DA:2886,376
DA:2887,376
DA:2888,376
DA:2889,384
DA:2890,192
DA:2892,384
DA:2893,192
DA:2895,376
DA:2896,384
DA:2897,384
DA:2898,376
DA:2900,0
DA:2901,0
DA:2902,0
DA:2904,384
DA:2905,192
DA:2906,192
DA:2907,192
DA:2908,192
DA:2909,192
DA:2910,192
DA:2911,192
DA:2913,520
DA:2914,520
DA:2926,520
DA:2927,1960
DA:2928,1440
DA:2929,1440
DA:2930,1440
DA:2931,1440
DA:2932,1440
DA:2935,1440
DA:2937,1432
DA:2938,1432
DA:2941,1432
DA:2943,1432
DA:2944,5624
DA:2945,5624
DA:2946,5624
DA:2947,5624
DA:2948,5624
DA:2949,2776
DA:2953,2776
DA:2954,16
DA:2955,8
DA:2956,5536
DA:2957,2768
DA:2958,2768
DA:2959,16
DA:2960,8
DA:2961,2760
DA:2962,2760
DA:2964,2848
DA:2965,2848
DA:2966,2848
DA:2967,16
DA:2968,8
DA:2972,2840
DA:2973,5736
DA:2974,2896
DA:2975,2816
DA:2976,2816
DA:2977,2816
DA:2978,2816
DA:2980,2896
DA:2982,2840
DA:2983,24
DA:2984,24
DA:2985,24
DA:2986,24
DA:2988,64
DA:2989,24
DA:2990,24
DA:2991,2848
DA:2992,5576
DA:2993,5624
DA:2996,1384
DA:2997,8
DA:2998,8
DA:2999,8
DA:3001,16
DA:3002,8
DA:3003,8
DA:3004,8
DA:3007,1376
DA:3013,1376
DA:3014,1376
DA:3022,1376
DA:3023,1376
DA:3024,4056
DA:3025,2680
DA:3026,2680
DA:3029,8
DA:3030,8
DA:3031,8
DA:3033,2672
DA:3034,2680
DA:3038,1376
DA:3039,16
DA:3040,8
DA:3041,8
DA:3042,8
DA:3043,8
DA:3044,8
DA:3046,1368
DA:3047,1440
DA:3049,520
DA:3050,520
DA:3052,472
DA:3053,472
DA:3054,472
DA:3056,472
DA:3057,472
DA:3059,448
DA:3060,448
DA:3061,448
DA:3063,448
DA:3064,448
DA:3066,448
DA:3067,448
DA:3068,448
DA:3069,896
DA:3070,448
DA:3071,448
DA:3072,448
DA:3073,448
DA:3074,448
DA:3076,448
DA:3077,520
DA:3079,360
DA:3080,360
DA:3081,360
DA:3082,360
DA:3083,192
DA:3084,192
DA:3086,168
DA:3087,96
DA:3088,96
DA:3089,360
DA:3096,80
DA:3097,80
DA:3101,80
DA:3102,56
DA:3105,80
DA:3106,80
DA:3107,80
DA:3108,56
DA:3109,80
DA:3112,80
DA:3114,80
DA:3115,80
DA:3117,160
DA:3118,160
DA:3119,160
DA:3122,160
DA:3123,160
DA:3127,160
DA:3129,320
DA:3130,560
DA:3131,320
DA:3134,160
DA:3135,160
DA:3137,216
DA:3140,56
DA:3141,56
DA:3143,160
DA:3144,16
DA:3145,8
DA:3146,8
DA:3149,152
DA:3150,152
DA:3151,152
DA:3153,304
DA:3154,152
DA:3155,160
DA:3159,408
DA:3160,408
DA:3161,768
DA:3162,360
DA:3163,360
DA:3164,8
DA:3165,352
DA:3166,360
DA:3167,400
DA:3168,408
DA:3170,240
DA:3173,240
DA:3175,240
DA:3176,0
DA:3177,0
DA:3180,480
DA:3181,240
DA:3182,624
DA:3183,224
DA:3184,48
DA:3185,24
DA:3186,24
DA:3191,216
DA:3192,216
DA:3193,216
DA:3194,216
DA:3195,16
DA:3196,8
DA:3197,8
DA:3201,416
DA:3202,208
DA:3203,208
DA:3204,16
DA:3205,8
DA:3206,200
DA:3207,400
DA:3208,200
DA:3209,200
DA:3210,0
DA:3211,0
DA:3213,200
DA:3214,192
DA:3215,32
DA:3216,16
DA:3217,16
DA:3218,184
DA:3219,240
DA:3223,1584
DA:3224,1584
DA:3226,256
DA:3227,352
DA:3228,128
DA:3230,1456
DA:3232,368
DA:3233,368
DA:3235,1072
DA:3236,704
DA:3237,704
DA:3238,704
DA:3239,704
DA:3240,704
DA:3241,704
DA:3242,368
DA:3243,1072
DA:3244,704
DA:3245,704
DA:3246,368
DA:3247,1088
DA:3249,1584
DA:3252,368
DA:3257,368
DA:3259,2208
DA:3260,368
DA:3261,368
DA:3262,368
DA:3263,368
DA:3264,368
DA:3268,368
DA:3270,1840
DA:3272,1952
DA:3273,1584
DA:3274,1584
DA:3275,1584
DA:3276,1584
DA:3277,368
DA:3279,352
DA:3284,352
DA:3285,352
DA:3287,704
DA:3288,352
DA:3290,1352
DA:3292,1352
DA:3293,48
DA:3294,16
DA:3295,16
DA:3297,1336
DA:3301,1336
DA:3302,4432
DA:3303,3096
DA:3306,1336
DA:3309,952
DA:3310,616
DA:3311,1232
DA:3312,616
DA:3313,0
DA:3314,616
DA:3315,616
DA:3316,616
DA:3317,32
DA:3318,16
DA:3319,16
DA:3320,16
DA:3321,600
DA:3322,616
DA:3324,672
DA:3325,336
DA:3326,16
DA:3327,320
DA:3329,320
DA:3330,640
DA:3331,320
DA:3332,320
DA:3333,336
DA:3335,2000
DA:3336,1000
DA:3337,8
DA:3338,992
DA:3339,992
DA:3340,64
DA:3341,32
DA:3342,64
DA:3343,56
DA:3344,32
DA:3345,32
DA:3346,960
DA:3348,960
DA:3349,336
DA:3350,960
DA:3351,304
DA:3352,624
DA:3353,320
DA:3354,320
DA:3355,0
DA:3357,960
DA:3358,992
DA:3360,1312
DA:3361,1336
DA:3362,312
DA:3363,352
DA:3375,0
DA:3378,0
DA:3379,0
DA:3381,0
DA:3382,0
DA:3384,0
DA:3385,0
DA:3386,0
DA:3387,0
DA:3388,0
DA:3390,0
DA:3391,0
DA:3392,0
DA:3394,0
DA:3395,0
DA:3396,0
DA:3398,0
DA:3399,0
DA:3401,0
DA:3404,0
DA:3405,0
DA:3407,0
DA:3411,0
DA:3412,0
DA:3413,0
DA:3414,0
DA:3415,0
DA:3417,0
DA:3418,0
DA:3419,0
DA:3421,0
DA:3427,160
DA:3429,160
DA:3430,160
DA:3433,160
DA:3435,160
DA:3437,160
DA:3438,160
DA:3440,304
DA:3442,304
DA:3443,544
DA:3444,240
DA:3445,240
DA:3446,56
DA:3447,248
DA:3448,304
DA:3450,583
DA:3451,583
DA:3452,591
DA:3453,8
DA:3454,16
DA:3455,8
DA:3456,8
DA:3457,575
DA:3458,583
end_of_record
TN:
SF:/usr/local/google/home/gleasonk/Coding/openxla/stablehlo/stablehlo/dialect/TypeInference.h
FN:56,_ZN4mlir3hlo15WindowDimensionC2Ev
FNDA:1901,_ZN4mlir3hlo15WindowDimensionC2Ev
DA:56,1901
DA:57,1901
DA:58,1901
DA:59,1901
DA:60,1901
DA:61,1901
DA:62,1901
DA:63,1901
end_of_record
SF:/usr/local/google/home/gleasonk/Coding/openxla/stablehlo/stablehlo/dialect/Base.h
FN:49,_ZN4mlir3hloL16isDynamicDimSizeEl
FNDA:33301,_ZN4mlir3hloL16isDynamicDimSizeEl
FN:53,_ZN4mlir3hloL15isStaticDimSizeEl
FNDA:1623,_ZN4mlir3hloL15isStaticDimSizeEl
DA:49,33301
DA:50,33301
DA:53,1623
DA:54,1623
end_of_record
SF:/usr/local/google/home/gleasonk/Coding/openxla/stablehlo/stablehlo/dialect/TypeInference.cpp
FN:71,_ZNK4mlir3hlo4$_12clEN4llvm8ArrayRefIlEE
FNDA:6288,_ZNK4mlir3hlo4$_12clEN4llvm8ArrayRefIlEE
FN:76,_ZN4mlir3hlo21tensorsHaveSameElTypeENS_9TypeRangeEb
FNDA:17885,_ZN4mlir3hlo21tensorsHaveSameElTypeENS_9TypeRangeEb
FN:95,_ZN4mlir3hlo21tensorsHaveSameElTypeENS_4TypeES1_b
FNDA:17263,_ZN4mlir3hlo21tensorsHaveSameElTypeENS_4TypeES1_b
FN:103,_ZN4mlir3hlo29compatibleShapeAndElementTypeENS_4TypeES1_b
FNDA:13575,_ZN4mlir3hlo29compatibleShapeAndElementTypeENS_4TypeES1_b
FN:110,_ZN4mlir3hlo20verifyCompatibleDimsEll
FNDA:6069,_ZN4mlir3hlo20verifyCompatibleDimsEll
FN:116,_ZN4mlir3hlo18convert1DAttributeESt8optionalINS_20DenseIntElementsAttrEES1_INS_8LocationEEN4llvm9StringRefE
FNDA:6813,_ZN4mlir3hlo18convert1DAttributeESt8optionalINS_20DenseIntElementsAttrEES1_INS_8LocationEEN4llvm9StringRefE
FN:132,_ZN4mlir3hlo23convertPaddingAttributeESt8optionalINS_20DenseIntElementsAttrEES1_INS_8LocationEE
FNDA:2037,_ZN4mlir3hlo23convertPaddingAttributeESt8optionalINS_20DenseIntElementsAttrEES1_INS_8LocationEE
FN:158,_ZN4mlir3hlo30convertWindowReversalAttributeESt8optionalINS_17DenseElementsAttrEES1_INS_8LocationEEN4llvm9StringRefE
FNDA:1687,_ZN4mlir3hlo30convertWindowReversalAttributeESt8optionalINS_17DenseElementsAttrEES1_INS_8LocationEEN4llvm9StringRefE
FN:180,_ZN4mlir3hlo12dilatedBoundEll
FNDA:7597,_ZN4mlir3hlo12dilatedBoundEll
FN:199,_ZN4mlir3hlo12stridedBoundElll
FNDA:3799,_ZN4mlir3hlo12stridedBoundElll
FN:213,_ZN4mlir3hlo30verifyPairwiseCompatibleShapesENS_9TypeRangeE
FNDA:1542,_ZN4mlir3hlo30verifyPairwiseCompatibleShapesENS_9TypeRangeE
FN:220,_ZN4mlir3hlo15verifyBatchNormESt8optionalINS_8LocationEENS_10ValueRangeES4_l
FNDA:774,_ZN4mlir3hlo15verifyBatchNormESt8optionalINS_8LocationEENS_10ValueRangeES4_l
FN:263,_ZN4mlir3hlo16inferBatchNormOpESt8optionalINS_8LocationEENS_10ValueRangeES4_lRN4llvm15SmallVectorImplINS_20ShapedTypeComponentsEEEb
FNDA:775,_ZN4mlir3hlo16inferBatchNormOpESt8optionalINS_8LocationEENS_10ValueRangeES4_lRN4llvm15SmallVectorImplINS_20ShapedTypeComponentsEEEb
FN:303,_ZN4mlir3hlo46verifyWindowAttributesAndInferWindowDimensionsEN4llvm8ArrayRefIlEES3_NS2_ISt4pairIllEEES3_S3_NS2_IbEESt8optionalINS_8LocationEE
FNDA:1997,_ZN4mlir3hlo46verifyWindowAttributesAndInferWindowDimensionsEN4llvm8ArrayRefIlEES3_NS2_ISt4pairIllEEES3_S3_NS2_IbEESt8optionalINS_8LocationEE
FN:308,_ZZN4mlir3hlo46verifyWindowAttributesAndInferWindowDimensionsEN4llvm8ArrayRefIlEES3_NS2_ISt4pairIllEEES3_S3_NS2_IbEESt8optionalINS_8LocationEEENK4$_10clEmNS1_9StringRefE
FNDA:9774,_ZZN4mlir3hlo46verifyWindowAttributesAndInferWindowDimensionsEN4llvm8ArrayRefIlEES3_NS2_ISt4pairIllEEES3_S3_NS2_IbEESt8optionalINS_8LocationEEENK4$_10clEmNS1_9StringRefE
FN:371,_ZN4mlir3hlo22inferWindowOutputShapeEN4llvm8ArrayRefIlEENS2_INS0_15WindowDimensionEEE
FNDA:1512,_ZN4mlir3hlo22inferWindowOutputShapeEN4llvm8ArrayRefIlEENS2_INS0_15WindowDimensionEEE
FN:396,_ZN4mlir3hlo26potentiallyComplexBitwidthENS_4TypeE
FNDA:800,_ZN4mlir3hlo26potentiallyComplexBitwidthENS_4TypeE
FN:410,_ZN4mlir3hlo19verifyReplicaGroupsESt8optionalINS_8LocationEENS_20DenseIntElementsAttrEbbS1_ImE
FNDA:1476,_ZN4mlir3hlo19verifyReplicaGroupsESt8optionalINS_8LocationEENS_20DenseIntElementsAttrEbbS1_ImE
FN:457,_ZN4mlir3hlo33verifyReduceOpInputsAndInferShapeESt8optionalINS_8LocationEEN4llvm11SmallVectorINS_10TensorTypeELj6EEES7_NS_20DenseIntElementsAttrERNS5_IlLj6EEERNS_9AttributeE
FNDA:2472,_ZN4mlir3hlo33verifyReduceOpInputsAndInferShapeESt8optionalINS_8LocationEEN4llvm11SmallVectorINS_10TensorTypeELj6EEES7_NS_20DenseIntElementsAttrERNS5_IlLj6EEERNS_9AttributeE
FN:517,_ZN4mlir3hlo18verifyReducerShapeESt8optionalINS_8LocationEERNS_5BlockEN4llvm8ArrayRefINS_10TensorTypeEEES9_lNS7_IlEEb
FNDA:3579,_ZN4mlir3hlo18verifyReducerShapeESt8optionalINS_8LocationEERNS_5BlockEN4llvm8ArrayRefINS_10TensorTypeEEES9_lNS7_IlEEb
FN:663,_ZN4mlir3hlo40verifyReduceWindowOpInputsAndInferWindowESt8optionalINS_8LocationEEN4llvm11SmallVectorINS_10TensorTypeELj6EEES7_NS_20DenseIntElementsAttrES1_IS8_ES9_S9_S9_S1_INS_17DenseElementsAttrEERNS5_IlLj6EEERNS5_INS0_15WindowDimensionELj1EEE
FNDA:1089,_ZN4mlir3hlo40verifyReduceWindowOpInputsAndInferWindowESt8optionalINS_8LocationEEN4llvm11SmallVectorINS_10TensorTypeELj6EEES7_NS_20DenseIntElementsAttrES1_IS8_ES9_S9_S9_S1_INS_17DenseElementsAttrEERNS5_IlLj6EEERNS5_INS0_15WindowDimensionELj1EEE
FN:741,_ZN4mlir3hlo20verifyRegionNotEmptyESt8optionalINS_8LocationEERNS_6RegionE
FNDA:1624,_ZN4mlir3hlo20verifyRegionNotEmptyESt8optionalINS_8LocationEERNS_6RegionE
FN:757,_ZN4mlir3hlo24isSpatialDimensionsValidENS_5ValueEllN4llvm8ArrayRefIlEEllS4_llS4_St8optionalINS_8LocationEE
FNDA:794,_ZN4mlir3hlo24isSpatialDimensionsValidENS_5ValueEllN4llvm8ArrayRefIlEEllS4_llS4_St8optionalINS_8LocationEE
FN:795,_ZZN4mlir3hlo24isSpatialDimensionsValidENS_5ValueEllN4llvm8ArrayRefIlEEllS4_llS4_St8optionalINS_8LocationEEENK4$_11clEl
FNDA:9022,_ZZN4mlir3hlo24isSpatialDimensionsValidENS_5ValueEllN4llvm8ArrayRefIlEEllS4_llS4_St8optionalINS_8LocationEEENK4$_11clEl
FN:824,_ZN4mlir3hlo21verifyPrecisionConfigESt8optionalINS_8LocationEES1_INS_9ArrayAttrEE
FNDA:2634,_ZN4mlir3hlo21verifyPrecisionConfigESt8optionalINS_8LocationEES1_INS_9ArrayAttrEE
FN:857,_ZN4mlir3hlo27verifyConvolutionAttributesESt8optionalINS_8LocationEENS_5ValueES4_llN4llvm8ArrayRefIlEEllS7_llS7_llS1_INS_9ArrayAttrEE
FNDA:798,_ZN4mlir3hlo27verifyConvolutionAttributesESt8optionalINS_8LocationEENS_5ValueES4_llN4llvm8ArrayRefIlEEllS7_llS7_llS1_INS_9ArrayAttrEE
FN:962,_ZN4mlir3hlo31validateScatterDimensionNumbersENS_10ShapedTypeEN4llvm8ArrayRefIlEES1_bbbS4_S4_S4_lSt8optionalINS_8LocationEE
FNDA:608,_ZN4mlir3hlo31validateScatterDimensionNumbersENS_10ShapedTypeEN4llvm8ArrayRefIlEES1_bbbS4_S4_S4_lSt8optionalINS_8LocationEE
FN:1071,_ZN4mlir3hloL12verifyGatherESt8optionalINS_8LocationEENS_12ShapeAdaptorES4_S4_N4llvm8ArrayRefIlEES7_S7_l
FNDA:696,_ZN4mlir3hloL12verifyGatherESt8optionalINS_8LocationEENS_12ShapeAdaptorES4_S4_N4llvm8ArrayRefIlEES7_S7_l
FN:1168,_ZN4mlir3hloL16inferGatherShapeINS_5ValueEEEvlN4llvm12function_refIFT_lEEES7_NS3_8ArrayRefIlEES9_S9_lRNS3_15SmallVectorImplIS5_EE
FNDA:8,_ZN4mlir3hloL16inferGatherShapeINS_5ValueEEEvlN4llvm12function_refIFT_lEEES7_NS3_8ArrayRefIlEES9_S9_lRNS3_15SmallVectorImplIS5_EE
FN:1168,_ZN4mlir3hloL16inferGatherShapeIlEEvlN4llvm12function_refIFT_lEEES6_NS2_8ArrayRefIlEES8_S8_lRNS2_15SmallVectorImplIS4_EE
FNDA:432,_ZN4mlir3hloL16inferGatherShapeIlEEvlN4llvm12function_refIFT_lEEES6_NS2_8ArrayRefIlEES8_S8_lRNS2_15SmallVectorImplIS4_EE
FN:1189,_ZZN4mlir3hloL16inferGatherShapeIlEEvlN4llvm12function_refIFT_lEEES6_NS2_8ArrayRefIlEES8_S8_lRNS2_15SmallVectorImplIS4_EEENKUllE_clEl
FNDA:504,_ZZN4mlir3hloL16inferGatherShapeIlEEvlN4llvm12function_refIFT_lEEES6_NS2_8ArrayRefIlEES8_S8_lRNS2_15SmallVectorImplIS4_EEENKUllE_clEl
FN:1189,_ZZN4mlir3hloL16inferGatherShapeINS_5ValueEEEvlN4llvm12function_refIFT_lEEES7_NS3_8ArrayRefIlEES9_S9_lRNS3_15SmallVectorImplIS5_EEENKUllE_clEl
FNDA:16,_ZZN4mlir3hloL16inferGatherShapeINS_5ValueEEEvlN4llvm12function_refIFT_lEEES7_NS3_8ArrayRefIlEES9_S9_lRNS3_15SmallVectorImplIS5_EEENKUllE_clEl
FN:1222,_ZN4mlir3hlo19reifyGatherDimSizesElN4llvm12function_refIFNS_5ValueElEEES5_NS1_8ArrayRefIlEES7_S7_lRNS1_15SmallVectorImplIS3_EE
FNDA:8,_ZN4mlir3hlo19reifyGatherDimSizesElN4llvm12function_refIFNS_5ValueElEEES5_NS1_8ArrayRefIlEES7_S7_lRNS1_15SmallVectorImplIS3_EE
FN:1238,_ZN4mlir3hloL31inferGatherReturnTypeComponentsESt8optionalINS_8LocationEENS_12ShapeAdaptorENS_5ValueEN4llvm12function_refIFllEEENS6_8ArrayRefIlEESB_SB_lRNS6_15SmallVectorImplINS_20ShapedTypeComponentsEEE
FNDA:512,_ZN4mlir3hloL31inferGatherReturnTypeComponentsESt8optionalINS_8LocationEENS_12ShapeAdaptorENS_5ValueEN4llvm12function_refIFllEEENS6_8ArrayRefIlEESB_SB_lRNS6_15SmallVectorImplINS_20ShapedTypeComponentsEEE
FN:1266,_ZZN4mlir3hloL31inferGatherReturnTypeComponentsESt8optionalINS_8LocationEENS_12ShapeAdaptorENS_5ValueEN4llvm12function_refIFllEEENS6_8ArrayRefIlEESB_SB_lRNS6_15SmallVectorImplINS_20ShapedTypeComponentsEEEENK4$_19clEl
FNDA:696,_ZZN4mlir3hloL31inferGatherReturnTypeComponentsESt8optionalINS_8LocationEENS_12ShapeAdaptorENS_5ValueEN4llvm12function_refIFllEEENS6_8ArrayRefIlEESB_SB_lRNS6_15SmallVectorImplINS_20ShapedTypeComponentsEEEENK4$_19clEl
FN:1304,_ZN4mlir3hlo18inferConditionalOpESt8optionalINS_8LocationEENS_11RegionRangeERN4llvm15SmallVectorImplINS_4TypeEEE
FNDA:656,_ZN4mlir3hlo18inferConditionalOpESt8optionalINS_8LocationEENS_11RegionRangeERN4llvm15SmallVectorImplINS_4TypeEEE
FN:1346,_ZN4mlir3hlo10inferAbsOpESt8optionalINS_8LocationEENS_5ValueERN4llvm15SmallVectorImplINS_4TypeEEE
FNDA:1000,_ZN4mlir3hlo10inferAbsOpESt8optionalINS_8LocationEENS_5ValueERN4llvm15SmallVectorImplINS_4TypeEEE
FN:1366,_ZN4mlir3hlo15inferAfterAllOpEPNS_7DialectESt8optionalINS_8LocationEERN4llvm15SmallVectorImplINS_4TypeEEE
FNDA:328,_ZN4mlir3hlo15inferAfterAllOpEPNS_7DialectESt8optionalINS_8LocationEERN4llvm15SmallVectorImplINS_4TypeEEE
FN:1374,_ZN4mlir3hlo15inferAllToAllOpESt8optionalINS_8LocationEENS_5ValueElllNS_20DenseIntElementsAttrERN4llvm15SmallVectorImplINS_20ShapedTypeComponentsEEE
FNDA:296,_ZN4mlir3hlo15inferAllToAllOpESt8optionalINS_8LocationEENS_5ValueElllNS_20DenseIntElementsAttrERN4llvm15SmallVectorImplINS_20ShapedTypeComponentsEEE
FN:1442,_ZN4mlir3hlo20inferBatchNormGradOpESt8optionalINS_8LocationEENS_5ValueES4_S4_S4_S4_lRN4llvm15SmallVectorImplINS_20ShapedTypeComponentsEEE
FNDA:304,_ZN4mlir3hlo20inferBatchNormGradOpESt8optionalINS_8LocationEENS_5ValueES4_S4_S4_S4_lRN4llvm15SmallVectorImplINS_20ShapedTypeComponentsEEE
FN:1451,_ZN4mlir3hlo25inferBatchNormInferenceOpESt8optionalINS_8LocationEENS_5ValueES4_S4_S4_S4_lRN4llvm15SmallVectorImplINS_20ShapedTypeComponentsEEE
FNDA:184,_ZN4mlir3hlo25inferBatchNormInferenceOpESt8optionalINS_8LocationEENS_5ValueES4_S4_S4_S4_lRN4llvm15SmallVectorImplINS_20ShapedTypeComponentsEEE
FN:1460,_ZN4mlir3hlo24inferBatchNormTrainingOpESt8optionalINS_8LocationEENS_5ValueES4_S4_lRN4llvm15SmallVectorImplINS_20ShapedTypeComponentsEEE
FNDA:288,_ZN4mlir3hlo24inferBatchNormTrainingOpESt8optionalINS_8LocationEENS_5ValueES4_S4_lRN4llvm15SmallVectorImplINS_20ShapedTypeComponentsEEE
FN:1468,_ZN4mlir3hlo16inferBroadcastOpESt8optionalINS_8LocationEENS_5ValueENS_20DenseIntElementsAttrERN4llvm15SmallVectorImplINS_20ShapedTypeComponentsEEE
FNDA:312,_ZN4mlir3hlo16inferBroadcastOpESt8optionalINS_8LocationEENS_5ValueENS_20DenseIntElementsAttrERN4llvm15SmallVectorImplINS_20ShapedTypeComponentsEEE
FN:1492,_ZN4mlir3hlo11inferCaseOpESt8optionalINS_8LocationEENS_11RegionRangeERN4llvm15SmallVectorImplINS_4TypeEEE
FNDA:360,_ZN4mlir3hlo11inferCaseOpESt8optionalINS_8LocationEENS_11RegionRangeERN4llvm15SmallVectorImplINS_4TypeEEE
FN:1502,_ZN4mlir3hlo15inferCholeskyOpESt8optionalINS_8LocationEENS_5ValueERN4llvm15SmallVectorImplINS_20ShapedTypeComponentsEEE
FNDA:216,_ZN4mlir3hlo15inferCholeskyOpESt8optionalINS_8LocationEENS_5ValueERN4llvm15SmallVectorImplINS_20ShapedTypeComponentsEEE
FN:1530,_ZN4mlir3hlo12inferClampOpESt8optionalINS_8LocationEENS_5ValueES4_S4_RN4llvm15SmallVectorImplINS_20ShapedTypeComponentsEEE
FNDA:248,_ZN4mlir3hlo12inferClampOpESt8optionalINS_8LocationEENS_5ValueES4_S4_RN4llvm15SmallVectorImplINS_20ShapedTypeComponentsEEE
FN:1559,_ZN4mlir3hlo14inferCompareOpEPNS_11MLIRContextESt8optionalINS_8LocationEENS_5ValueERN4llvm15SmallVectorImplINS_20ShapedTypeComponentsEEE
FNDA:1779,_ZN4mlir3hlo14inferCompareOpEPNS_11MLIRContextESt8optionalINS_8LocationEENS_5ValueERN4llvm15SmallVectorImplINS_20ShapedTypeComponentsEEE
FN:1571,_ZN4mlir3hlo14inferComplexOpESt8optionalINS_8LocationEENS_5ValueERN4llvm15SmallVectorImplINS_4TypeEEE
FNDA:216,_ZN4mlir3hlo14inferComplexOpESt8optionalINS_8LocationEENS_5ValueERN4llvm15SmallVectorImplINS_4TypeEEE
FN:1579,_ZN4mlir3hlo18inferConcatenateOpESt8optionalINS_8LocationEENS_9TypeRangeElRN4llvm15SmallVectorImplINS_4TypeEEE
FNDA:728,_ZN4mlir3hlo18inferConcatenateOpESt8optionalINS_8LocationEENS_9TypeRangeElRN4llvm15SmallVectorImplINS_4TypeEEE
FN:1680,_ZN4mlir3hlo15inferConstantOpESt8optionalINS_8LocationEENS_12ElementsAttrERN4llvm15SmallVectorImplINS_4TypeEEE
FNDA:8842,_ZN4mlir3hlo15inferConstantOpESt8optionalINS_8LocationEENS_12ElementsAttrERN4llvm15SmallVectorImplINS_4TypeEEE
FN:1686,_ZN4mlir3hlo14inferConvertOpESt8optionalINS_8LocationEENS_5ValueERN4llvm15SmallVectorImplINS_20ShapedTypeComponentsEEE
FNDA:16,_ZN4mlir3hlo14inferConvertOpESt8optionalINS_8LocationEENS_5ValueERN4llvm15SmallVectorImplINS_20ShapedTypeComponentsEEE
FN:1704,_ZN4mlir3hlo18inferConvolutionOpESt8optionalINS_8LocationEENS_5ValueES4_S1_INS_20DenseIntElementsAttrEES6_S6_S6_S1_INS_17DenseElementsAttrEEllN4llvm8ArrayRefIlEEllSB_llSB_llS1_INS_9ArrayAttrEERNS9_15SmallVectorImplINS_20ShapedTypeComponentsEEE
FNDA:816,_ZN4mlir3hlo18inferConvolutionOpESt8optionalINS_8LocationEENS_5ValueES4_S1_INS_20DenseIntElementsAttrEES6_S6_S6_S1_INS_17DenseElementsAttrEEllN4llvm8ArrayRefIlEEllSB_llSB_llS1_INS_9ArrayAttrEERNS9_15SmallVectorImplINS_20ShapedTypeComponentsEEE
FN:1815,_ZN4mlir3hlo18inferCreateTokenOpEPNS_7DialectESt8optionalINS_8LocationEERN4llvm15SmallVectorImplINS_4TypeEEE
FNDA:264,_ZN4mlir3hlo18inferCreateTokenOpEPNS_7DialectESt8optionalINS_8LocationEERN4llvm15SmallVectorImplINS_4TypeEEE
FN:1823,_ZN4mlir3hlo10inferDotOpESt8optionalINS_8LocationEENS_5ValueES4_S1_INS_9ArrayAttrEERN4llvm15SmallVectorImplINS_20ShapedTypeComponentsEEE
FNDA:801,_ZN4mlir3hlo10inferDotOpESt8optionalINS_8LocationEENS_5ValueES4_S1_INS_9ArrayAttrEERN4llvm15SmallVectorImplINS_20ShapedTypeComponentsEEE
FN:1867,_ZN4mlir3hlo17inferDotGeneralOpESt8optionalINS_8LocationEENS_4TypeES4_N4llvm8ArrayRefIlEES7_S7_S7_S1_INS_9ArrayAttrEERNS5_15SmallVectorImplINS_20ShapedTypeComponentsEEE
FNDA:568,_ZN4mlir3hlo17inferDotGeneralOpESt8optionalINS_8LocationEENS_4TypeES4_N4llvm8ArrayRefIlEES7_S7_S7_S1_INS_9ArrayAttrEERNS5_15SmallVectorImplINS_20ShapedTypeComponentsEEE
FN:1889,_ZZN4mlir3hlo17inferDotGeneralOpESt8optionalINS_8LocationEENS_4TypeES4_N4llvm8ArrayRefIlEES7_S7_S7_S1_INS_9ArrayAttrEERNS5_15SmallVectorImplINS_20ShapedTypeComponentsEEEENK4$_13clES7_S7_RNS5_13SmallDenseSetIlLj4ENS5_12DenseMapInfoIlvEEEENS5_9StringRefESK_
FNDA:1008,_ZZN4mlir3hlo17inferDotGeneralOpESt8optionalINS_8LocationEENS_4TypeES4_N4llvm8ArrayRefIlEES7_S7_S7_S1_INS_9ArrayAttrEERNS5_15SmallVectorImplINS_20ShapedTypeComponentsEEEENK4$_13clES7_S7_RNS5_13SmallDenseSetIlLj4ENS5_12DenseMapInfoIlvEEEENS5_9StringRefESK_
FN:1914,_ZZN4mlir3hlo17inferDotGeneralOpESt8optionalINS_8LocationEENS_4TypeES4_N4llvm8ArrayRefIlEES7_S7_S7_S1_INS_9ArrayAttrEERNS5_15SmallVectorImplINS_20ShapedTypeComponentsEEEENK4$_14clElS7_NS5_9StringRefE
FNDA:1632,_ZZN4mlir3hlo17inferDotGeneralOpESt8optionalINS_8LocationEENS_4TypeES4_N4llvm8ArrayRefIlEES7_S7_S7_S1_INS_9ArrayAttrEERNS5_15SmallVectorImplINS_20ShapedTypeComponentsEEEENK4$_14clElS7_NS5_9StringRefE
FN:1916,_ZZZN4mlir3hlo17inferDotGeneralOpESt8optionalINS_8LocationEENS_4TypeES4_N4llvm8ArrayRefIlEES7_S7_S7_S1_INS_9ArrayAttrEERNS5_15SmallVectorImplINS_20ShapedTypeComponentsEEEENK4$_14clElS7_NS5_9StringRefEENKUllE_clEl
FNDA:1600,_ZZZN4mlir3hlo17inferDotGeneralOpESt8optionalINS_8LocationEENS_4TypeES4_N4llvm8ArrayRefIlEES7_S7_S7_S1_INS_9ArrayAttrEERNS5_15SmallVectorImplINS_20ShapedTypeComponentsEEEENK4$_14clElS7_NS5_9StringRefEENKUllE_clEl
FN:1989,_ZN4mlir3hlo20inferDynamicGatherOpESt8optionalINS_8LocationEENS_5ValueES4_S4_N4llvm8ArrayRefIlEES7_S7_lRNS5_15SmallVectorImplINS_20ShapedTypeComponentsEEE
FNDA:216,_ZN4mlir3hlo20inferDynamicGatherOpESt8optionalINS_8LocationEENS_5ValueES4_S4_N4llvm8ArrayRefIlEES7_S7_lRNS5_15SmallVectorImplINS_20ShapedTypeComponentsEEE
FN:2005,_ZZN4mlir3hlo20inferDynamicGatherOpESt8optionalINS_8LocationEENS_5ValueES4_S4_N4llvm8ArrayRefIlEES7_S7_lRNS5_15SmallVectorImplINS_20ShapedTypeComponentsEEEENK4$_15clEl
FNDA:176,_ZZN4mlir3hlo20inferDynamicGatherOpESt8optionalINS_8LocationEENS_5ValueES4_S4_N4llvm8ArrayRefIlEES7_S7_lRNS5_15SmallVectorImplINS_20ShapedTypeComponentsEEEENK4$_15clEl
FN:2016,_ZN4mlir3hlo19inferDynamicSliceOpESt8optionalINS_8LocationEENS_4TypeENS_9TypeRangeENS_20DenseIntElementsAttrERN4llvm15SmallVectorImplINS_20ShapedTypeComponentsEEE
FNDA:344,_ZN4mlir3hlo19inferDynamicSliceOpESt8optionalINS_8LocationEENS_4TypeENS_9TypeRangeENS_20DenseIntElementsAttrERN4llvm15SmallVectorImplINS_20ShapedTypeComponentsEEE
FN:2061,_ZN4mlir3hlo25inferDynamicUpdateSliceOpESt8optionalINS_8LocationEENS_5ValueES4_NS_10ValueRangeERN4llvm15SmallVectorImplINS_20ShapedTypeComponentsEEE
FNDA:264,_ZN4mlir3hlo25inferDynamicUpdateSliceOpESt8optionalINS_8LocationEENS_5ValueES4_NS_10ValueRangeERN4llvm15SmallVectorImplINS_20ShapedTypeComponentsEEE
FN:2121,_ZN4mlir3hlo10inferFftOpESt8optionalINS_8LocationEENS_5ValueEbbNS_20DenseIntElementsAttrERN4llvm15SmallVectorImplINS_20ShapedTypeComponentsEEE
FNDA:821,_ZN4mlir3hlo10inferFftOpESt8optionalINS_8LocationEENS_5ValueEbbNS_20DenseIntElementsAttrERN4llvm15SmallVectorImplINS_20ShapedTypeComponentsEEE
FN:2224,_ZN4mlir3hlo13inferGatherOpESt8optionalINS_8LocationEENS_5ValueES4_N4llvm8ArrayRefIlEES7_S7_lNS_20DenseIntElementsAttrERNS5_15SmallVectorImplINS_20ShapedTypeComponentsEEE
FNDA:480,_ZN4mlir3hlo13inferGatherOpESt8optionalINS_8LocationEENS_5ValueES4_N4llvm8ArrayRefIlEES7_S7_lNS_20DenseIntElementsAttrERNS5_15SmallVectorImplINS_20ShapedTypeComponentsEEE
FN:2263,_ZZN4mlir3hlo13inferGatherOpESt8optionalINS_8LocationEENS_5ValueES4_N4llvm8ArrayRefIlEES7_S7_lNS_20DenseIntElementsAttrERNS5_15SmallVectorImplINS_20ShapedTypeComponentsEEEENK4$_16clEl
FNDA:328,_ZZN4mlir3hlo13inferGatherOpESt8optionalINS_8LocationEENS_5ValueES4_N4llvm8ArrayRefIlEES7_S7_lNS_20DenseIntElementsAttrERNS5_15SmallVectorImplINS_20ShapedTypeComponentsEEEENK4$_16clEl
FN:2272,_ZN4mlir3hlo23inferGetDimensionSizeOpEPNS_11MLIRContextESt8optionalINS_8LocationEERN4llvm15SmallVectorImplINS_4TypeEEE
FNDA:272,_ZN4mlir3hlo23inferGetDimensionSizeOpEPNS_11MLIRContextESt8optionalINS_8LocationEERN4llvm15SmallVectorImplINS_4TypeEEE
FN:2280,_ZN4mlir3hlo22inferGetTupleElementOpESt8optionalINS_8LocationEENS_5ValueEiRN4llvm15SmallVectorImplINS_4TypeEEE
FNDA:368,_ZN4mlir3hlo22inferGetTupleElementOpESt8optionalINS_8LocationEENS_5ValueEiRN4llvm15SmallVectorImplINS_4TypeEEE
FN:2294,_ZN4mlir3hlo11inferImagOpESt8optionalINS_8LocationEENS_5ValueERN4llvm15SmallVectorImplINS_4TypeEEE
FNDA:184,_ZN4mlir3hlo11inferImagOpESt8optionalINS_8LocationEENS_5ValueERN4llvm15SmallVectorImplINS_4TypeEEE
FN:2301,_ZN4mlir3hlo15inferIsFiniteOpEPNS_11MLIRContextESt8optionalINS_8LocationEENS_5ValueERN4llvm15SmallVectorImplINS_4TypeEEE
FNDA:128,_ZN4mlir3hlo15inferIsFiniteOpEPNS_11MLIRContextESt8optionalINS_8LocationEENS_5ValueERN4llvm15SmallVectorImplINS_4TypeEEE
FN:2310,_ZN4mlir3hlo9inferIfOpESt8optionalINS_8LocationEENS_11RegionRangeERN4llvm15SmallVectorImplINS_4TypeEEE
FNDA:296,_ZN4mlir3hlo9inferIfOpESt8optionalINS_8LocationEENS_11RegionRangeERN4llvm15SmallVectorImplINS_4TypeEEE
FN:2315,_ZN4mlir3hlo10inferMapOpESt8optionalINS_8LocationEENS_10ValueRangeENS_20DenseIntElementsAttrERNS_6RegionERN4llvm15SmallVectorImplINS_20ShapedTypeComponentsEEE
FNDA:432,_ZN4mlir3hlo10inferMapOpESt8optionalINS_8LocationEENS_10ValueRangeENS_20DenseIntElementsAttrERNS_6RegionERN4llvm15SmallVectorImplINS_20ShapedTypeComponentsEEE
FN:2408,_ZN4mlir3hlo26inferOptimizationBarrierOpESt8optionalINS_8LocationEENS_10ValueRangeERN4llvm15SmallVectorImplINS_4TypeEEE
FNDA:312,_ZN4mlir3hlo26inferOptimizationBarrierOpESt8optionalINS_8LocationEENS_10ValueRangeERN4llvm15SmallVectorImplINS_4TypeEEE
FN:2416,_ZN4mlir3hlo14inferOutfeedOpEPNS_7DialectESt8optionalINS_8LocationEERN4llvm15SmallVectorImplINS_4TypeEEE
FNDA:422,_ZN4mlir3hlo14inferOutfeedOpEPNS_7DialectESt8optionalINS_8LocationEERN4llvm15SmallVectorImplINS_4TypeEEE
FN:2423,_ZN4mlir3hlo10inferPadOpESt8optionalINS_8LocationEENS_5ValueES4_NS_20DenseIntElementsAttrES5_S5_RN4llvm15SmallVectorImplINS_4TypeEEE
FNDA:408,_ZN4mlir3hlo10inferPadOpESt8optionalINS_8LocationEENS_5ValueES4_NS_20DenseIntElementsAttrES5_S5_RN4llvm15SmallVectorImplINS_4TypeEEE
FN:2496,_ZN4mlir3hlo18inferPartitionIdOpEPNS_11MLIRContextESt8optionalINS_8LocationEERN4llvm15SmallVectorImplINS_4TypeEEE
FNDA:136,_ZN4mlir3hlo18inferPartitionIdOpEPNS_11MLIRContextESt8optionalINS_8LocationEERN4llvm15SmallVectorImplINS_4TypeEEE
FN:2503,_ZN4mlir3hlo11inferRealOpESt8optionalINS_8LocationEENS_5ValueERN4llvm15SmallVectorImplINS_4TypeEEE
FNDA:184,_ZN4mlir3hlo11inferRealOpESt8optionalINS_8LocationEENS_5ValueERN4llvm15SmallVectorImplINS_4TypeEEE
FN:2510,_ZN4mlir3hlo13inferReduceOpESt8optionalINS_8LocationEENS_9TypeRangeES4_NS_20DenseIntElementsAttrERN4llvm15SmallVectorImplINS_20ShapedTypeComponentsEEE
FNDA:1191,_ZN4mlir3hlo13inferReduceOpESt8optionalINS_8LocationEENS_9TypeRangeES4_NS_20DenseIntElementsAttrERN4llvm15SmallVectorImplINS_20ShapedTypeComponentsEEE
FN:2515,_ZZN4mlir3hlo13inferReduceOpESt8optionalINS_8LocationEENS_9TypeRangeES4_NS_20DenseIntElementsAttrERN4llvm15SmallVectorImplINS_20ShapedTypeComponentsEEEENK3$_0clENS_4TypeE
FNDA:1501,_ZZN4mlir3hlo13inferReduceOpESt8optionalINS_8LocationEENS_9TypeRangeES4_NS_20DenseIntElementsAttrERN4llvm15SmallVectorImplINS_20ShapedTypeComponentsEEEENK3$_0clENS_4TypeE
FN:2518,_ZZN4mlir3hlo13inferReduceOpESt8optionalINS_8LocationEENS_9TypeRangeES4_NS_20DenseIntElementsAttrERN4llvm15SmallVectorImplINS_20ShapedTypeComponentsEEEENK3$_1clENS_4TypeE
FNDA:1503,_ZZN4mlir3hlo13inferReduceOpESt8optionalINS_8LocationEENS_9TypeRangeES4_NS_20DenseIntElementsAttrERN4llvm15SmallVectorImplINS_20ShapedTypeComponentsEEEENK3$_1clENS_4TypeE
FN:2539,_ZN4mlir3hlo19inferReduceWindowOpESt8optionalINS_8LocationEENS_10ValueRangeES4_NS_20DenseIntElementsAttrES1_IS5_ES6_S6_S6_RN4llvm15SmallVectorImplINS_20ShapedTypeComponentsEEE
FNDA:440,_ZN4mlir3hlo19inferReduceWindowOpESt8optionalINS_8LocationEENS_10ValueRangeES4_NS_20DenseIntElementsAttrES1_IS5_ES6_S6_S6_RN4llvm15SmallVectorImplINS_20ShapedTypeComponentsEEE
FN:2549,_ZZN4mlir3hlo19inferReduceWindowOpESt8optionalINS_8LocationEENS_10ValueRangeES4_NS_20DenseIntElementsAttrES1_IS5_ES6_S6_S6_RN4llvm15SmallVectorImplINS_20ShapedTypeComponentsEEEENK3$_2clENS_4TypeE
FNDA:632,_ZZN4mlir3hlo19inferReduceWindowOpESt8optionalINS_8LocationEENS_10ValueRangeES4_NS_20DenseIntElementsAttrES1_IS5_ES6_S6_S6_RN4llvm15SmallVectorImplINS_20ShapedTypeComponentsEEEENK3$_2clENS_4TypeE
FN:2552,_ZZN4mlir3hlo19inferReduceWindowOpESt8optionalINS_8LocationEENS_10ValueRangeES4_NS_20DenseIntElementsAttrES1_IS5_ES6_S6_S6_RN4llvm15SmallVectorImplINS_20ShapedTypeComponentsEEEENK3$_3clENS_4TypeE
FNDA:632,_ZZN4mlir3hlo19inferReduceWindowOpESt8optionalINS_8LocationEENS_10ValueRangeES4_NS_20DenseIntElementsAttrES1_IS5_ES6_S6_S6_RN4llvm15SmallVectorImplINS_20ShapedTypeComponentsEEEENK3$_3clENS_4TypeE
FN:2585,_ZN4mlir3hlo16inferReplicaIdOpEPNS_11MLIRContextESt8optionalINS_8LocationEERN4llvm15SmallVectorImplINS_4TypeEEE
FNDA:128,_ZN4mlir3hlo16inferReplicaIdOpEPNS_11MLIRContextESt8optionalINS_8LocationEERN4llvm15SmallVectorImplINS_4TypeEEE
FN:2592,_ZN4mlir3hlo10inferRngOpESt8optionalINS_8LocationEENS_5ValueES4_S4_bRN4llvm15SmallVectorImplINS_20ShapedTypeComponentsEEE
FNDA:656,_ZN4mlir3hlo10inferRngOpESt8optionalINS_8LocationEENS_5ValueES4_S4_bRN4llvm15SmallVectorImplINS_20ShapedTypeComponentsEEE
FN:2633,_ZN4mlir3hlo14inferScatterOpESt8optionalINS_8LocationEENS_10ValueRangeERN4llvm15SmallVectorImplINS_4TypeEEE
FNDA:408,_ZN4mlir3hlo14inferScatterOpESt8optionalINS_8LocationEENS_10ValueRangeERN4llvm15SmallVectorImplINS_4TypeEEE
FN:2639,_ZN4mlir3hlo13inferSelectOpESt8optionalINS_8LocationEENS_5ValueES4_S4_RN4llvm15SmallVectorImplINS_20ShapedTypeComponentsEEE
FNDA:528,_ZN4mlir3hlo13inferSelectOpESt8optionalINS_8LocationEENS_5ValueES4_S4_RN4llvm15SmallVectorImplINS_20ShapedTypeComponentsEEE
FN:2669,_ZN4mlir3hlo23inferSelectAndScatterOpENS_5ValueERN4llvm15SmallVectorImplINS_4TypeEEE
FNDA:280,_ZN4mlir3hlo23inferSelectAndScatterOpENS_5ValueERN4llvm15SmallVectorImplINS_4TypeEEE
FN:2675,_ZN4mlir3hlo11inferSendOpEPNS_7DialectESt8optionalINS_8LocationEERN4llvm15SmallVectorImplINS_4TypeEEE
FNDA:579,_ZN4mlir3hlo11inferSendOpEPNS_7DialectESt8optionalINS_8LocationEERN4llvm15SmallVectorImplINS_4TypeEEE
FN:2682,_ZN4mlir3hlo12inferSliceOpESt8optionalINS_8LocationEENS_4TypeENS_20DenseIntElementsAttrES5_S5_RN4llvm15SmallVectorImplIS4_EE
FNDA:432,_ZN4mlir3hlo12inferSliceOpESt8optionalINS_8LocationEENS_4TypeENS_20DenseIntElementsAttrES5_S5_RN4llvm15SmallVectorImplIS4_EE
FN:2760,_ZN4mlir3hlo11inferSortOpESt8optionalINS_8LocationEENS_10ValueRangeERN4llvm15SmallVectorImplINS_20ShapedTypeComponentsEEE
FNDA:399,_ZN4mlir3hlo11inferSortOpESt8optionalINS_8LocationEENS_10ValueRangeERN4llvm15SmallVectorImplINS_20ShapedTypeComponentsEEE
FN:2775,_ZN4mlir3hlo16inferTransposeOpESt8optionalINS_8LocationEENS_5ValueENS_20DenseIntElementsAttrERN4llvm15SmallVectorImplINS_4TypeEEE
FNDA:456,_ZN4mlir3hlo16inferTransposeOpESt8optionalINS_8LocationEENS_5ValueENS_20DenseIntElementsAttrERN4llvm15SmallVectorImplINS_4TypeEEE
FN:2818,_ZN4mlir3hlo22inferTriangularSolveOpESt8optionalINS_8LocationEENS_5ValueES4_bbRN4llvm15SmallVectorImplINS_20ShapedTypeComponentsEEE
FNDA:694,_ZN4mlir3hlo22inferTriangularSolveOpESt8optionalINS_8LocationEENS_5ValueES4_bbRN4llvm15SmallVectorImplINS_20ShapedTypeComponentsEEE
FN:2874,_ZN4mlir3hlo12inferTupleOpEPNS_11MLIRContextESt8optionalINS_8LocationEENS_10ValueRangeERN4llvm15SmallVectorImplINS_4TypeEEE
FNDA:1326,_ZN4mlir3hlo12inferTupleOpEPNS_11MLIRContextESt8optionalINS_8LocationEENS_10ValueRangeERN4llvm15SmallVectorImplINS_4TypeEEE
FN:2881,_ZN4mlir3hlo24inferUniformDequantizeOpESt8optionalINS_8LocationEENS_5ValueERN4llvm15SmallVectorImplINS_20ShapedTypeComponentsEEE
FNDA:176,_ZN4mlir3hlo24inferUniformDequantizeOpESt8optionalINS_8LocationEENS_5ValueERN4llvm15SmallVectorImplINS_20ShapedTypeComponentsEEE
FN:2892,_ZN4mlir3hlo22inferUniformQuantizeOpESt8optionalINS_8LocationEENS_5ValueERN4llvm15SmallVectorImplINS_20ShapedTypeComponentsEEE
FNDA:16,_ZN4mlir3hlo22inferUniformQuantizeOpESt8optionalINS_8LocationEENS_5ValueERN4llvm15SmallVectorImplINS_20ShapedTypeComponentsEEE
FN:2901,_ZN4mlir3hlo12inferWhileOpESt8optionalINS_8LocationEENS_10ValueRangeERN4llvm15SmallVectorImplINS_4TypeEEE
FNDA:352,_ZN4mlir3hlo12inferWhileOpESt8optionalINS_8LocationEENS_10ValueRangeERN4llvm15SmallVectorImplINS_4TypeEEE
FN:2912,_ZN4mlir3hlo17verifyAllGatherOpESt8optionalINS_8LocationEENS_5ValueElNS_20DenseIntElementsAttrEbS4_
FNDA:304,_ZN4mlir3hlo17verifyAllGatherOpESt8optionalINS_8LocationEENS_5ValueElNS_20DenseIntElementsAttrEbS4_
FN:2970,_ZN4mlir3hlo17verifyAllReduceOpESt8optionalINS_8LocationEENS_5ValueENS_20DenseIntElementsAttrEbRNS_6RegionE
FNDA:488,_ZN4mlir3hlo17verifyAllReduceOpESt8optionalINS_8LocationEENS_5ValueENS_20DenseIntElementsAttrEbRNS_6RegionE
FN:3001,_ZN4mlir3hlo22verifyBitcastConvertOpESt8optionalINS_8LocationEENS_5ValueES4_
FNDA:408,_ZN4mlir3hlo22verifyBitcastConvertOpESt8optionalINS_8LocationEENS_5ValueES4_
FN:3074,_ZN4mlir3hlo22verifyBroadcastInDimOpESt8optionalINS_8LocationEENS_5ValueENS_20DenseIntElementsAttrES4_
FNDA:392,_ZN4mlir3hlo22verifyBroadcastInDimOpESt8optionalINS_8LocationEENS_5ValueENS_20DenseIntElementsAttrES4_
FN:3130,_ZN4mlir3hlo25verifyCollectivePermuteOpESt8optionalINS_8LocationEENS_20DenseIntElementsAttrE
FNDA:344,_ZN4mlir3hlo25verifyCollectivePermuteOpESt8optionalINS_8LocationEENS_20DenseIntElementsAttrE
FN:3167,_ZN4mlir3hlo19verifyConvolutionOpESt8optionalINS_8LocationEENS_5ValueES4_S1_INS_20DenseIntElementsAttrEES6_S6_S6_S1_INS_17DenseElementsAttrEEllN4llvm8ArrayRefIlEEllSB_llSB_llS1_INS_9ArrayAttrEES4_
FNDA:784,_ZN4mlir3hlo19verifyConvolutionOpESt8optionalINS_8LocationEENS_5ValueES4_S1_INS_20DenseIntElementsAttrEES6_S6_S6_S1_INS_17DenseElementsAttrEEllN4llvm8ArrayRefIlEEllSB_llSB_llS1_INS_9ArrayAttrEES4_
FN:3204,_ZN4mlir3hlo11verifyDotOpESt8optionalINS_8LocationEENS_5ValueES4_S1_INS_9ArrayAttrEES4_
FNDA:805,_ZN4mlir3hlo11verifyDotOpESt8optionalINS_8LocationEENS_5ValueES4_S1_INS_9ArrayAttrEES4_
FN:3223,_ZN4mlir3hlo18verifyDotGeneralOpESt8optionalINS_8LocationEENS_5ValueES4_N4llvm8ArrayRefIlEES7_S7_S7_S1_INS_9ArrayAttrEES4_
FNDA:552,_ZN4mlir3hlo18verifyDotGeneralOpESt8optionalINS_8LocationEENS_5ValueES4_N4llvm8ArrayRefIlEES7_S7_S7_S1_INS_9ArrayAttrEES4_
FN:3249,_ZN4mlir3hlo29verifyDynamicBroadcastInDimOpESt8optionalINS_8LocationEENS_5ValueES4_NS_20DenseIntElementsAttrES1_IS5_ES6_S4_
FNDA:144,_ZN4mlir3hlo29verifyDynamicBroadcastInDimOpESt8optionalINS_8LocationEENS_5ValueES4_NS_20DenseIntElementsAttrES1_IS5_ES6_S4_
FN:3316,_ZZN4mlir3hlo29verifyDynamicBroadcastInDimOpESt8optionalINS_8LocationEENS_5ValueES4_NS_20DenseIntElementsAttrES1_IS5_ES6_S4_ENK4$_17clERKS6_
FNDA:256,_ZZN4mlir3hlo29verifyDynamicBroadcastInDimOpESt8optionalINS_8LocationEENS_5ValueES4_NS_20DenseIntElementsAttrES1_IS5_ES6_S4_ENK4$_17clERKS6_
FN:3338,_ZN4mlir3hlo18verifyDynamicPadOpESt8optionalINS_8LocationEENS_5ValueES4_S4_S4_S4_S4_
FNDA:96,_ZN4mlir3hlo18verifyDynamicPadOpESt8optionalINS_8LocationEENS_5ValueES4_S4_S4_S4_S4_
FN:3380,_ZN4mlir3hlo22verifyDynamicReshapeOpESt8optionalINS_8LocationEENS_5ValueES4_
FNDA:112,_ZN4mlir3hlo22verifyDynamicReshapeOpESt8optionalINS_8LocationEENS_5ValueES4_
FN:3394,_ZN4mlir3hlo14verifyInfeedOpEPNS_7DialectESt8optionalINS_8LocationEES3_INS_9ArrayAttrEENS_10ValueRangeE
FNDA:410,_ZN4mlir3hlo14verifyInfeedOpEPNS_7DialectESt8optionalINS_8LocationEES3_INS_9ArrayAttrEENS_10ValueRangeE
FN:3443,_ZN4mlir3hlo12verifyIotaOpESt8optionalINS_8LocationEElNS_5ValueE
FNDA:632,_ZN4mlir3hlo12verifyIotaOpESt8optionalINS_8LocationEElNS_5ValueE
FN:3458,_ZN4mlir3hlo24verifyRealDynamicSliceOpESt8optionalINS_8LocationEENS_5ValueES4_S4_S4_
FNDA:144,_ZN4mlir3hlo24verifyRealDynamicSliceOpESt8optionalINS_8LocationEENS_5ValueES4_S4_S4_
FN:3489,_ZN4mlir3hlo12verifyRecvOpEPNS_7DialectESt8optionalINS_8LocationEENS_10ValueRangeE
FNDA:481,_ZN4mlir3hlo12verifyRecvOpEPNS_7DialectESt8optionalINS_8LocationEENS_10ValueRangeE
FN:3512,_ZN4mlir3hlo14verifyReduceOpESt8optionalINS_8LocationEENS_10ValueRangeES4_NS_20DenseIntElementsAttrERNS_6RegionE
FNDA:1288,_ZN4mlir3hlo14verifyReduceOpESt8optionalINS_8LocationEENS_10ValueRangeES4_NS_20DenseIntElementsAttrERNS_6RegionE
FN:3517,_ZZN4mlir3hlo14verifyReduceOpESt8optionalINS_8LocationEENS_10ValueRangeES4_NS_20DenseIntElementsAttrERNS_6RegionEENK3$_4clENS_4TypeE
FNDA:1679,_ZZN4mlir3hlo14verifyReduceOpESt8optionalINS_8LocationEENS_10ValueRangeES4_NS_20DenseIntElementsAttrERNS_6RegionEENK3$_4clENS_4TypeE
FN:3520,_ZZN4mlir3hlo14verifyReduceOpESt8optionalINS_8LocationEENS_10ValueRangeES4_NS_20DenseIntElementsAttrERNS_6RegionEENK3$_5clENS_4TypeE
FNDA:1677,_ZZN4mlir3hlo14verifyReduceOpESt8optionalINS_8LocationEENS_10ValueRangeES4_NS_20DenseIntElementsAttrERNS_6RegionEENK3$_5clENS_4TypeE
FN:3548,_ZN4mlir3hlo23verifyReducePrecisionOpESt8optionalINS_8LocationEEii
FNDA:248,_ZN4mlir3hlo23verifyReducePrecisionOpESt8optionalINS_8LocationEEii
FN:3560,_ZN4mlir3hlo21verifyReduceScatterOpESt8optionalINS_8LocationEENS_5ValueElNS_20DenseIntElementsAttrEbRNS_6RegionES4_
FNDA:395,_ZN4mlir3hlo21verifyReduceScatterOpESt8optionalINS_8LocationEENS_5ValueElNS_20DenseIntElementsAttrEbRNS_6RegionES4_
FN:3632,_ZN4mlir3hlo20verifyReduceWindowOpESt8optionalINS_8LocationEENS_10ValueRangeES4_NS_20DenseIntElementsAttrES1_IS5_ES6_S6_S6_RNS_6RegionE
FNDA:647,_ZN4mlir3hlo20verifyReduceWindowOpESt8optionalINS_8LocationEENS_10ValueRangeES4_NS_20DenseIntElementsAttrES1_IS5_ES6_S6_S6_RNS_6RegionE
FN:3641,_ZZN4mlir3hlo20verifyReduceWindowOpESt8optionalINS_8LocationEENS_10ValueRangeES4_NS_20DenseIntElementsAttrES1_IS5_ES6_S6_S6_RNS_6RegionEENK3$_6clENS_4TypeE
FNDA:1038,_ZZN4mlir3hlo20verifyReduceWindowOpESt8optionalINS_8LocationEENS_10ValueRangeES4_NS_20DenseIntElementsAttrES1_IS5_ES6_S6_S6_RNS_6RegionEENK3$_6clENS_4TypeE
FN:3644,_ZZN4mlir3hlo20verifyReduceWindowOpESt8optionalINS_8LocationEENS_10ValueRangeES4_NS_20DenseIntElementsAttrES1_IS5_ES6_S6_S6_RNS_6RegionEENK3$_7clENS_4TypeE
FNDA:1039,_ZZN4mlir3hlo20verifyReduceWindowOpESt8optionalINS_8LocationEENS_10ValueRangeES4_NS_20DenseIntElementsAttrES1_IS5_ES6_S6_S6_RNS_6RegionEENK3$_7clENS_4TypeE
FN:3674,_ZN4mlir3hlo15verifyReshapeOpESt8optionalINS_8LocationEENS_5ValueES4_
FNDA:416,_ZN4mlir3hlo15verifyReshapeOpESt8optionalINS_8LocationEENS_5ValueES4_
FN:3696,_ZN4mlir3hlo15verifyReverseOpESt8optionalINS_8LocationEENS_5ValueENS_20DenseIntElementsAttrE
FNDA:288,_ZN4mlir3hlo15verifyReverseOpESt8optionalINS_8LocationEENS_5ValueENS_20DenseIntElementsAttrE
FN:3724,_ZN4mlir3hlo23verifyRngBitGeneratorOpESt8optionalINS_8LocationEENS_5ValueES4_
FNDA:444,_ZN4mlir3hlo23verifyRngBitGeneratorOpESt8optionalINS_8LocationEENS_5ValueES4_
FN:3750,_ZN4mlir3hlo15verifyScatterOpESt8optionalINS_8LocationEENS_10ValueRangeENS_5ValueES4_N4llvm8ArrayRefIlEES8_S8_lRNS_6RegionE
FNDA:592,_ZN4mlir3hlo15verifyScatterOpESt8optionalINS_8LocationEENS_10ValueRangeENS_5ValueES4_N4llvm8ArrayRefIlEES8_S8_lRNS_6RegionE
FN:3764,_ZZN4mlir3hlo15verifyScatterOpESt8optionalINS_8LocationEENS_10ValueRangeENS_5ValueES4_N4llvm8ArrayRefIlEES8_S8_lRNS_6RegionEENK3$_8clENS_4TypeE
FNDA:712,_ZZN4mlir3hlo15verifyScatterOpESt8optionalINS_8LocationEENS_10ValueRangeENS_5ValueES4_N4llvm8ArrayRefIlEES8_S8_lRNS_6RegionEENK3$_8clENS_4TypeE
FN:3766,_ZZN4mlir3hlo15verifyScatterOpESt8optionalINS_8LocationEENS_10ValueRangeENS_5ValueES4_N4llvm8ArrayRefIlEES8_S8_lRNS_6RegionEENK3$_9clENS_4TypeE
FNDA:712,_ZZN4mlir3hlo15verifyScatterOpESt8optionalINS_8LocationEENS_10ValueRangeENS_5ValueES4_N4llvm8ArrayRefIlEES8_S8_lRNS_6RegionEENK3$_9clENS_4TypeE
FN:3767,_ZZN4mlir3hlo15verifyScatterOpESt8optionalINS_8LocationEENS_10ValueRangeENS_5ValueES4_N4llvm8ArrayRefIlEES8_S8_lRNS_6RegionEENK4$_18clENS_4TypeE
FNDA:712,_ZZN4mlir3hlo15verifyScatterOpESt8optionalINS_8LocationEENS_10ValueRangeENS_5ValueES4_N4llvm8ArrayRefIlEES8_S8_lRNS_6RegionEENK4$_18clENS_4TypeE
FN:3914,_ZN4mlir3hlo24verifySelectAndScatterOpESt8optionalINS_8LocationEENS_5ValueES4_S4_S1_INS_20DenseIntElementsAttrEES6_S6_RNS_6RegionES8_
FNDA:456,_ZN4mlir3hlo24verifySelectAndScatterOpESt8optionalINS_8LocationEENS_5ValueES4_S4_S1_INS_20DenseIntElementsAttrEES6_S6_RNS_6RegionES8_
FN:4013,_ZN4mlir3hlo12verifySortOpESt8optionalINS_8LocationEENS_10ValueRangeElRNS_6RegionE
FNDA:446,_ZN4mlir3hlo12verifySortOpESt8optionalINS_8LocationEENS_10ValueRangeElRNS_6RegionE
FN:4065,_ZN4mlir3hlo13verifyWhileOpESt8optionalINS_8LocationEENS_10ValueRangeERNS_6RegionES6_
FNDA:400,_ZN4mlir3hlo13verifyWhileOpESt8optionalINS_8LocationEENS_10ValueRangeERNS_6RegionES6_
DA:71,6288
DA:72,6288
DA:73,6288
DA:74,6288
DA:76,17885
DA:77,17885
DA:78,17885
DA:79,17885
DA:80,35702
DA:81,17817
DA:82,17817
DA:83,17817
DA:84,10810
DA:85,10720
DA:86,7097
DA:87,17817
DA:88,17885
DA:89,17669
DA:90,17885
DA:95,17263
DA:96,17263
DA:97,17263
DA:103,13575
DA:104,13575
DA:105,13575
DA:106,27086
DA:107,13543
DA:108,13575
DA:110,6069
DA:111,6069
DA:112,5392
DA:116,6813
DA:118,6813
DA:119,6813
DA:121,5533
DA:122,5533
DA:123,5533
DA:124,80
DA:126,40
DA:127,5493
DA:128,5493
DA:129,6813
DA:132,2037
DA:134,2037
DA:135,2037
DA:136,184
DA:138,1853
DA:139,1853
DA:140,1853
DA:141,16
DA:142,16
DA:143,16
DA:145,1837
DA:146,1837
DA:147,6516
DA:148,4679
DA:149,4679
DA:150,4679
DA:151,4679
DA:152,4679
DA:153,4679
DA:154,1837
DA:155,2037
DA:158,1687
DA:160,1687
DA:161,1687
DA:163,192
DA:164,192
DA:165,192
DA:166,0
DA:168,0
DA:169,192
DA:170,192
DA:171,1687
DA:180,7597
DA:181,7597
DA:182,7595
DA:188,7595
DA:189,7595
DA:199,3799
DA:200,3799
DA:201,3799
DA:203,3799
DA:210,3799
DA:211,3799
DA:213,1542
DA:214,4795
DA:215,11596
DA:216,11596
DA:217,1525
DA:218,1542
DA:220,774
DA:223,774
DA:224,774
DA:225,8
DA:226,8
DA:229,766
DA:230,8
DA:231,8
DA:234,758
DA:235,758
DA:236,24
DA:237,24
DA:240,24
DA:242,734
DA:243,24
DA:248,710
DA:249,1420
DA:250,710
DA:252,710
DA:253,24
DA:254,24
DA:257,24
DA:258,24
DA:260,686
DA:261,774
DA:263,775
DA:267,775
DA:268,1550
DA:269,775
DA:270,88
DA:273,687
DA:274,1374
DA:275,687
DA:276,687
DA:278,687
DA:280,527
DA:282,527
DA:283,527
DA:284,527
DA:285,527
DA:286,64
DA:288,1054
DA:289,527
DA:290,527
DA:291,463
DA:292,64
DA:294,527
DA:295,527
DA:296,527
DA:297,775
DA:303,1997
DA:307,1997
DA:308,11771
DA:309,9774
DA:310,9774
DA:311,96
DA:312,96
DA:314,96
DA:315,9774
DA:317,1997
DA:318,24
DA:319,1973
DA:320,16
DA:321,1957
DA:322,16
DA:323,1941
DA:324,1909
DA:325,8
DA:327,1901
DA:328,6971
DA:329,5070
DA:331,5070
DA:332,5070
DA:333,48
DA:335,24
DA:337,5046
DA:338,5046
DA:339,24
DA:340,24
DA:341,24
DA:343,5022
DA:344,5022
DA:345,16
DA:346,16
DA:347,16
DA:349,5006
DA:350,5006
DA:351,16
DA:352,16
DA:353,16
DA:355,4990
DA:356,4316
DA:357,4316
DA:358,4316
DA:359,5070
DA:361,1823
DA:362,1997
DA:371,1512
DA:372,1512
DA:373,1512
DA:376,1512
DA:377,5525
DA:378,4013
DA:379,216
DA:380,216
DA:381,3797
DA:383,3797
DA:384,7594
DA:385,3797
DA:386,3797
DA:388,3797
DA:389,3797
DA:390,3797
DA:391,4013
DA:393,1512
DA:394,1512
DA:396,800
DA:397,800
DA:398,800
DA:399,768
DA:400,800
DA:410,1476
DA:414,1476
DA:415,1476
DA:417,1476
DA:418,32
DA:422,1444
DA:423,336
DA:424,16
DA:428,1428
DA:429,1428
DA:430,9125
DA:433,7697
DA:434,136
DA:435,8
DA:438,7561
DA:439,32
DA:441,7697
DA:443,8690
DA:444,7303
DA:445,48
DA:448,1340
DA:449,512
DA:450,256
DA:451,16
DA:452,8
DA:454,1332
DA:455,1476
DA:457,2472
DA:460,2472
DA:462,2472
DA:463,2472
DA:464,4944
DA:465,2472
DA:466,2384
DA:467,2384
DA:469,88
DA:470,2472
DA:472,2472
DA:473,5476
DA:474,6180
DA:475,3090
DA:476,16
DA:477,16
DA:480,2370
DA:482,2456
DA:483,4920
DA:484,7204
DA:485,2374
DA:486,2456
DA:487,8
DA:488,8
DA:489,8
DA:491,2456
DA:492,8
DA:494,2464
DA:496,2437
DA:497,2349
DA:499,2349
DA:500,2349
DA:501,6875
DA:502,4526
DA:503,2184
DA:504,2184
DA:505,2184
DA:506,4526
DA:509,2349
DA:510,2349
DA:511,56
DA:512,2349
DA:513,2437
DA:514,2472
DA:517,3579
DA:522,3579
DA:525,3579
DA:526,96
DA:528,48
DA:531,3531
DA:532,48
DA:533,48
DA:537,6966
DA:538,3483
DA:539,80
DA:541,40
DA:544,3443
DA:545,7572
DA:546,4129
DA:547,4129
DA:548,128
DA:552,64
DA:554,4065
DA:555,4129
DA:587,7383
DA:589,8024
DA:590,4012
DA:591,56
DA:592,56
DA:594,56
DA:595,56
DA:598,3956
DA:599,3956
DA:600,3956
DA:602,40
DA:603,40
DA:604,40
DA:606,40
DA:607,40
DA:610,7832
DA:611,3916
DA:613,48
DA:614,48
DA:616,48
DA:619,3868
DA:620,3868
DA:621,3868
DA:622,32
DA:623,32
DA:624,32
DA:625,32
DA:626,32
DA:629,3836
DA:630,3836
DA:632,3836
DA:634,3708
DA:635,3708
DA:636,24
DA:637,24
DA:638,24
DA:639,24
DA:640,24
DA:642,3684
DA:643,7944
DA:644,3972
DA:645,2020
DA:646,288
DA:647,576
DA:648,536
DA:649,248
DA:651,3684
DA:652,16
DA:653,16
DA:654,16
DA:658,3836
DA:660,3035
DA:661,3579
DA:663,1089
DA:673,1089
DA:675,1089
DA:676,1089
DA:677,2225
DA:678,1136
DA:679,1088
DA:680,1088
DA:682,48
DA:683,1089
DA:686,1089
DA:687,2760
DA:688,3344
DA:689,1672
DA:690,8
DA:691,8
DA:694,1080
DA:697,1081
DA:698,1081
DA:699,1081
DA:700,2677
DA:701,1614
DA:702,1566
DA:703,8
DA:704,8
DA:705,8
DA:706,8
DA:707,1614
DA:710,1055
DA:711,1055
DA:713,1047
DA:714,1047
DA:715,1047
DA:716,1039
DA:717,1039
DA:718,1039
DA:719,1031
DA:720,1031
DA:721,1031
DA:722,2046
DA:723,1023
DA:724,1023
DA:726,2046
DA:727,1023
DA:728,1023
DA:729,1023
DA:730,1023
DA:732,959
DA:733,959
DA:734,959
DA:735,1087
DA:741,1624
DA:742,1624
DA:743,1624
DA:744,0
DA:745,1624
DA:746,1624
DA:757,794
DA:763,794
DA:764,794
DA:766,794
DA:767,783
DA:768,48
DA:772,24
DA:773,24
DA:776,770
DA:777,770
DA:778,770
DA:779,1540
DA:780,770
DA:782,770
DA:783,770
DA:784,770
DA:785,1540
DA:786,770
DA:788,770
DA:789,770
DA:790,770
DA:791,1540
DA:792,770
DA:794,770
DA:795,9792
DA:797,2306
DA:798,765
DA:799,767
DA:800,8
DA:805,768
DA:806,8
DA:807,8
DA:810,760
DA:811,8
DA:812,8
DA:815,752
DA:816,8
DA:817,8
DA:820,744
DA:821,800
DA:824,2634
DA:825,2634
DA:826,2634
DA:827,1150
DA:828,1150
DA:829,1150
DA:830,1134
DA:831,16
DA:834,2634
DA:857,798
DA:865,798
DA:867,798
DA:868,798
DA:869,798
DA:870,798
DA:871,798
DA:872,798
DA:873,56
DA:876,742
DA:877,8
DA:878,8
DA:881,734
DA:882,8
DA:883,8
DA:886,726
DA:887,8
DA:888,8
DA:893,718
DA:894,718
DA:895,718
DA:897,718
DA:898,1436
DA:899,718
DA:900,1436
DA:901,718
DA:903,718
DA:904,711
DA:905,8
DA:906,8
DA:911,703
DA:912,8
DA:918,695
DA:920,702
DA:921,696
DA:922,8
DA:928,688
DA:929,680
DA:930,8
DA:931,8
DA:936,680
DA:938,686
DA:939,8
DA:946,678
DA:947,8
DA:949,670
DA:950,798
DA:962,608
DA:968,608
DA:970,608
DA:971,8
DA:975,600
DA:976,8
DA:980,592
DA:981,1064
DA:982,520
DA:983,8
DA:984,8
DA:988,8
DA:989,520
DA:990,536
DA:993,584
DA:994,8
DA:995,8
DA:998,576
DA:999,8
DA:1000,8
DA:1003,568
DA:1004,1592
DA:1005,1048
DA:1006,8
DA:1007,8
DA:1010,1048
DA:1011,536
DA:1014,560
DA:1015,536
DA:1016,536
DA:1017,16
DA:1021,8
DA:1023,536
DA:1026,552
DA:1027,528
DA:1028,1056
DA:1029,528
DA:1030,16
DA:1031,8
DA:1035,8
DA:1037,520
DA:1039,544
DA:1040,1536
DA:1041,1528
DA:1042,1008
DA:1043,1008
DA:1044,1008
DA:1045,8
DA:1046,8
DA:1047,8
DA:1049,1008
DA:1050,520
DA:1052,536
DA:1053,8
DA:1054,8
DA:1057,528
DA:1058,608
DA:1071,696
DA:1075,696
DA:1078,696
DA:1079,8
DA:1084,2008
DA:1085,1320
DA:1086,1312
DA:1087,16
DA:1088,16
DA:1089,16
DA:1091,672
DA:1095,552
DA:1096,32
DA:1098,16
DA:1100,536
DA:1101,536
DA:1102,480
DA:1103,480
DA:1104,0
DA:1106,480
DA:1108,480
DA:1109,16
DA:1110,16
DA:1113,480
DA:1114,536
DA:1117,640
DA:1118,8
DA:1119,8
DA:1120,632
DA:1121,8
DA:1122,8
DA:1125,624
DA:1126,8
DA:1127,8
DA:1129,616
DA:1130,8
DA:1131,8
DA:1135,608
DA:1136,608
DA:1137,16
DA:1138,16
DA:1139,16
DA:1140,16
DA:1145,592
DA:1146,16
DA:1147,576
DA:1148,528
DA:1151,528
DA:1152,24
DA:1157,1440
DA:1158,936
DA:1159,16
DA:1161,936
DA:1162,528
DA:1164,536
DA:1165,696
DA:1168,440
DA:1173,440
DA:1178,880
DA:1179,440
DA:1180,440
DA:1181,440
DA:1182,408
DA:1184,440
DA:1185,1256
DA:1186,816
DA:1187,8
DA:1188,8
DA:1189,960
DA:1190,520
DA:1191,8
DA:1192,512
DA:1193,520
DA:1197,440
DA:1198,1672
DA:1199,1232
DA:1201,1672
DA:1202,2464
DA:1203,1232
DA:1204,1232
DA:1205,520
DA:1206,520
DA:1208,520
DA:1209,712
DA:1210,712
DA:1211,712
DA:1217,712
DA:1218,712
DA:1219,1232
DA:1220,440
DA:1222,8
DA:1229,8
DA:1230,16
DA:1231,8
DA:1232,8
DA:1233,8
DA:1238,512
DA:1243,512
DA:1244,512
DA:1245,512
DA:1249,512
DA:1250,64
DA:1251,64
DA:1254,448
DA:1257,448
DA:1258,448
DA:1260,968
DA:1261,520
DA:1262,32
DA:1263,16
DA:1266,1128
DA:1267,696
DA:1270,432
DA:1271,864
DA:1272,432
DA:1273,432
DA:1281,432
DA:1282,432
DA:1283,432
DA:1284,432
DA:1285,432
DA:1286,32
DA:1287,64
DA:1289,32
DA:1290,128
DA:1291,96
DA:1293,64
DA:1294,64
DA:1295,64
DA:1296,32
DA:1298,864
DA:1299,432
DA:1300,432
DA:1301,512
DA:1304,656
DA:1306,656
DA:1307,656
DA:1308,8
DA:1309,1840
DA:1310,1192
DA:1312,648
DA:1313,648
DA:1314,1824
DA:1315,1176
DA:1316,1176
DA:1317,1176
DA:1318,48
DA:1320,24
DA:1322,1152
DA:1323,2304
DA:1324,1152
DA:1325,24
DA:1328,1176
DA:1330,1200
DA:1331,600
DA:1332,1688
DA:1333,2176
DA:1334,2176
DA:1335,600
DA:1336,600
DA:1337,600
DA:1338,600
DA:1339,600
DA:1340,656
DA:1346,1000
DA:1347,1000
DA:1348,1000
DA:1349,1000
DA:1350,1000
DA:1351,232
DA:1353,1000
DA:1354,1080
DA:1355,1840
DA:1356,920
DA:1357,1000
DA:1358,0
DA:1359,0
DA:1360,80
DA:1362,1000
DA:1363,1000
DA:1364,1000
DA:1366,328
DA:1368,328
DA:1369,328
DA:1370,328
DA:1371,328
DA:1372,328
DA:1374,296
DA:1378,296
DA:1379,296
DA:1380,8
DA:1382,576
DA:1384,288
DA:1385,40
DA:1387,248
DA:1388,8
DA:1391,240
DA:1392,8
DA:1395,232
DA:1396,232
DA:1397,232
DA:1398,32
DA:1399,16
DA:1400,16
DA:1403,216
DA:1404,216
DA:1405,8
DA:1408,208
DA:1409,8
DA:1415,400
DA:1416,200
DA:1417,200
DA:1418,184
DA:1419,8
DA:1420,8
DA:1422,192
DA:1423,176
DA:1424,192
DA:1425,144
DA:1427,192
DA:1428,192
DA:1429,192
DA:1430,32
DA:1431,0
DA:1432,32
DA:1433,32
DA:1434,32
DA:1436,384
DA:1437,192
DA:1438,192
DA:1439,192
DA:1440,296
DA:1442,304
DA:1445,304
DA:1446,608
DA:1447,304
DA:1448,304
DA:1451,184
DA:1454,184
DA:1455,368
DA:1456,184
DA:1460,288
DA:1463,288
DA:1464,576
DA:1465,288
DA:1468,312
DA:1471,312
DA:1472,312
DA:1473,312
DA:1476,312
DA:1477,312
DA:1478,8
DA:1481,928
DA:1482,624
DA:1483,8
DA:1484,624
DA:1485,296
DA:1486,296
DA:1488,296
DA:1489,296
DA:1490,312
DA:1492,360
DA:1493,360
DA:1494,360
DA:1502,216
DA:1504,216
DA:1505,216
DA:1506,216
DA:1507,216
DA:1508,0
DA:1509,0
DA:1510,0
DA:1513,216
DA:1514,216
DA:1515,8
DA:1516,8
DA:1518,416
DA:1519,208
DA:1520,8
DA:1521,8
DA:1524,400
DA:1525,200
DA:1526,200
DA:1527,200
DA:1528,216
DA:1530,248
DA:1532,248
DA:1533,248
DA:1534,248
DA:1535,248
DA:1536,248
DA:1537,248
DA:1538,56
DA:1539,8
DA:1540,8
DA:1541,8
DA:1543,8
DA:1545,240
DA:1546,240
DA:1547,240
DA:1548,24
DA:1549,8
DA:1550,8
DA:1551,8
DA:1553,8
DA:1555,232
DA:1556,232
DA:1557,248
DA:1559,1779
DA:1561,1779
DA:1562,3558
DA:1563,1779
DA:1564,1779
DA:1565,1779
DA:1566,1761
DA:1567,1761
DA:1568,1779
DA:1569,1779
DA:1571,216
DA:1572,216
DA:1573,216
DA:1574,216
DA:1575,216
DA:1576,216
DA:1577,216
DA:1579,728
DA:1581,728
DA:1582,728
DA:1583,16
DA:1584,712
DA:1585,712
DA:1586,2232
DA:1587,1520
DA:1588,1520
DA:1590,1424
DA:1591,712
DA:1592,712
DA:1593,712
DA:1594,8
DA:1596,704
DA:1597,16
DA:1599,8
DA:1600,696
DA:1602,712
DA:1603,8
DA:1606,704
DA:1607,704
DA:1608,1984
DA:1609,1280
DA:1610,576
DA:1611,8
DA:1612,8
DA:1615,8
DA:1616,8
DA:1618,1272
DA:1619,1520
DA:1621,680
DA:1622,680
DA:1623,0
DA:1624,0
DA:1628,680
DA:1629,680
DA:1630,680
DA:1633,680
DA:1634,680
DA:1640,2152
DA:1641,1472
DA:1642,1472
DA:1643,1472
DA:1644,1376
DA:1645,1472
DA:1647,4096
DA:1648,2624
DA:1650,2624
DA:1651,5248
DA:1652,2624
DA:1653,2624
DA:1654,2624
DA:1655,2624
DA:1656,2944
DA:1657,1472
DA:1658,1472
DA:1659,2304
DA:1660,1152
DA:1661,1152
DA:1662,1152
DA:1663,1152
DA:1664,2624
DA:1665,2624
DA:1666,2624
DA:1667,1472
DA:1669,1360
DA:1670,680
DA:1671,680
DA:1672,680
DA:1676,680
DA:1677,680
DA:1678,728
DA:1680,8842
DA:1681,8842
DA:1682,8842
DA:1683,8842
DA:1686,16
DA:1688,16
DA:1689,16
DA:1690,32
DA:1691,16
DA:1692,16
DA:1693,16
DA:1704,816
DA:1718,816
DA:1719,816
DA:1720,816
DA:1721,816
DA:1722,4
DA:1723,4
DA:1727,816
DA:1728,816
DA:1729,8
DA:1734,808
DA:1735,8
DA:1736,8
DA:1741,800
DA:1742,800
DA:1743,800
DA:1744,800
DA:1745,800
DA:1746,800
DA:1747,128
DA:1749,672
DA:1750,16
DA:1751,8
DA:1755,664
DA:1756,1957
DA:1757,1293
DA:1759,664
DA:1760,664
DA:1763,664
DA:1764,664
DA:1765,664
DA:1766,664
DA:1767,664
DA:1768,664
DA:1769,664
DA:1770,664
DA:1771,664
DA:1772,1328
DA:1773,664
DA:1774,664
DA:1776,1328
DA:1777,664
DA:1778,664
DA:1779,664
DA:1782,584
DA:1783,0
DA:1786,584
DA:1790,584
DA:1791,584
DA:1792,1720
DA:1793,1136
DA:1795,584
DA:1796,584
DA:1798,1720
DA:1799,1136
DA:1802,584
DA:1803,1168
DA:1804,584
DA:1806,584
DA:1808,576
DA:1809,584
DA:1811,584
DA:1812,584
DA:1813,816
DA:1815,264
DA:1817,264
DA:1818,264
DA:1819,264
DA:1820,264
DA:1821,264
DA:1823,801
DA:1826,801
DA:1827,801
DA:1828,0
DA:1830,801
DA:1831,801
DA:1832,801
DA:1833,16
DA:1834,16
DA:1837,785
DA:1838,785
DA:1840,264
DA:1841,785
DA:1842,80
DA:1843,40
DA:1845,40
DA:1846,521
DA:1847,32
DA:1848,16
DA:1850,16
DA:1851,481
DA:1852,916
DA:1853,458
DA:1855,459
DA:1856,459
DA:1857,459
DA:1858,8
DA:1863,779
DA:1864,779
DA:1865,803
DA:1867,568
DA:1874,568
DA:1875,568
DA:1876,8
DA:1878,560
DA:1879,16
DA:1882,544
DA:1883,16
DA:1887,528
DA:1888,528
DA:1889,1536
DA:1891,1008
DA:1892,1008
DA:1893,3008
DA:1894,2000
DA:1895,2000
DA:1896,64
DA:1898,2000
DA:1899,944
DA:1900,1008
DA:1902,1056
DA:1903,528
DA:1904,528
DA:1905,48
DA:1907,480
DA:1909,960
DA:1910,480
DA:1911,480
DA:1912,16
DA:1914,2096
DA:1915,1632
DA:1916,3232
DA:1917,3264
DA:1918,1632
DA:1919,1632
DA:1920,64
DA:1922,1568
DA:1923,1632
DA:1924,464
DA:1925,464
DA:1927,464
DA:1928,896
DA:1929,896
DA:1930,864
DA:1931,432
DA:1932,432
DA:1933,32
DA:1934,416
DA:1935,432
DA:1936,768
DA:1937,768
DA:1938,736
DA:1939,368
DA:1940,368
DA:1941,32
DA:1942,352
DA:1943,400
DA:1945,352
DA:1946,352
DA:1948,672
DA:1949,352
DA:1950,640
DA:1951,8
DA:1954,320
DA:1956,704
DA:1957,344
DA:1958,720
DA:1959,8
DA:1962,360
DA:1963,352
DA:1965,384
DA:1966,48
DA:1967,48
DA:1971,336
DA:1972,336
DA:1973,336
DA:1974,640
DA:1975,304
DA:1976,1264
DA:1977,928
DA:1978,1200
DA:1979,272
DA:1980,1280
DA:1981,944
DA:1982,1232
DA:1983,288
DA:1985,336
DA:1986,336
DA:1987,568
DA:1989,216
DA:1994,216
DA:1995,216
DA:1996,216
DA:1997,216
DA:1999,432
DA:2000,216
DA:2001,216
DA:2002,216
DA:2003,40
DA:2005,352
DA:2006,176
DA:2007,176
DA:2008,112
DA:2009,64
DA:2010,176
DA:2011,176
DA:2012,176
DA:2013,176
DA:2014,216
DA:2016,344
DA:2019,344
DA:2021,344
DA:2022,344
DA:2023,344
DA:2024,8
DA:2027,336
DA:2028,336
DA:2030,336
DA:2031,8
DA:2032,8
DA:2033,8
DA:2036,328
DA:2037,8
DA:2041,872
DA:2042,552
DA:2043,552
DA:2044,8
DA:2045,8
DA:2046,544
DA:2047,528
DA:2048,528
DA:2049,8
DA:2052,528
DA:2053,552
DA:2056,608
DA:2057,304
DA:2058,304
DA:2059,344
DA:2061,264
DA:2064,264
DA:2065,264
DA:2066,264
DA:2069,264
DA:2070,232
DA:2071,8
DA:2072,8
DA:2073,8
DA:2074,8
DA:2077,256
DA:2078,240
DA:2079,8
DA:2080,8
DA:2081,8
DA:2084,248
DA:2085,8
DA:2089,240
DA:2090,808
DA:2091,208
DA:2092,768
DA:2093,384
DA:2094,368
DA:2095,272
DA:2096,16
DA:2099,264
DA:2100,96
DA:2101,0
DA:2102,0
DA:2105,584
DA:2108,232
DA:2109,432
DA:2110,216
DA:2111,216
DA:2113,16
DA:2114,232
DA:2115,264
DA:2121,821
DA:2124,821
DA:2125,821
DA:2126,821
DA:2129,821
DA:2130,8
DA:2138,813
DA:2139,813
DA:2141,813
DA:2142,288
DA:2143,8
DA:2144,8
DA:2146,280
DA:2147,525
DA:2148,8
DA:2153,797
DA:2154,797
DA:2155,279
DA:2156,518
DA:2157,184
DA:2160,797
DA:2161,797
DA:2162,16
DA:2163,16
DA:2165,781
DA:2166,781
DA:2167,8
DA:2168,8
DA:2171,773
DA:2173,773
DA:2174,256
DA:2175,512
DA:2176,512
DA:2177,16
DA:2182,256
DA:2183,240
DA:2184,240
DA:2185,240
DA:2186,256
DA:2187,757
DA:2188,184
DA:2189,200
DA:2190,32
DA:2191,32
DA:2196,16
DA:2197,296
DA:2198,64
DA:2199,336
DA:2200,168
DA:2201,32
DA:2204,16
DA:2206,152
DA:2207,184
DA:2208,725
DA:2209,725
DA:2210,64
DA:2211,1450
DA:2213,725
DA:2214,725
DA:2215,821
DA:2224,480
DA:2229,480
DA:2230,480
DA:2231,480
DA:2235,960
DA:2236,480
DA:2237,480
DA:2238,480
DA:2239,480
DA:2240,120
DA:2243,1080
DA:2244,720
DA:2245,720
DA:2246,8
DA:2248,720
DA:2251,352
DA:2252,1248
DA:2253,936
DA:2254,808
DA:2255,808
DA:2256,808
DA:2257,32
DA:2259,16
DA:2260,936
DA:2261,296
DA:2263,664
DA:2264,328
DA:2267,336
DA:2268,336
DA:2269,336
DA:2270,480
DA:2272,272
DA:2274,272
DA:2275,544
DA:2276,272
DA:2277,272
DA:2280,368
DA:2282,368
DA:2283,368
DA:2284,368
DA:2285,368
DA:2286,16
DA:2288,8
DA:2290,360
DA:2291,360
DA:2292,368
DA:2294,184
DA:2295,184
DA:2296,368
DA:2297,184
DA:2298,184
DA:2301,128
DA:2303,128
DA:2304,128
DA:2305,128
DA:2306,128
DA:2307,128
DA:2308,128
DA:2310,296
DA:2311,296
DA:2312,296
DA:2315,432
DA:2318,432
DA:2319,432
DA:2323,432
DA:2324,432
DA:2325,432
DA:2326,16
DA:2329,8
DA:2333,1200
DA:2334,776
DA:2335,776
DA:2336,8
DA:2337,8
DA:2339,8
DA:2340,1536
DA:2341,768
DA:2342,768
DA:2343,768
DA:2344,768
DA:2345,16
DA:2349,8
DA:2350,776
DA:2353,408
DA:2354,408
DA:2355,16
DA:2357,8
DA:2361,400
DA:2362,400
DA:2363,400
DA:2364,16
DA:2366,8
DA:2370,840
DA:2371,392
DA:2372,448
DA:2373,8
DA:2374,8
DA:2377,448
DA:2382,384
DA:2383,384
DA:2384,1080
DA:2385,696
DA:2386,696
DA:2387,1328
DA:2388,664
DA:2389,8
DA:2390,8
DA:2393,8
DA:2394,8
DA:2395,656
DA:2396,656
DA:2397,656
DA:2398,696
DA:2400,376
DA:2401,16
DA:2403,720
DA:2404,360
DA:2405,376
DA:2406,432
DA:2408,312
DA:2410,312
DA:2411,728
DA:2412,416
DA:2413,312
DA:2416,422
DA:2417,422
DA:2418,422
DA:2419,422
DA:2420,422
DA:2421,422
DA:2423,408
DA:2428,408
DA:2429,408
DA:2430,408
DA:2433,408
DA:2434,16
DA:2437,8
DA:2440,400
DA:2441,16
DA:2442,8
DA:2445,392
DA:2447,392
DA:2448,16
DA:2449,8
DA:2452,384
DA:2453,384
DA:2454,384
DA:2455,384
DA:2457,1176
DA:2458,792
DA:2459,1584
DA:2460,792
DA:2461,1584
DA:2462,792
DA:2464,792
DA:2465,8
DA:2466,8
DA:2469,784
DA:2470,896
DA:2471,784
DA:2472,784
DA:2473,728
DA:2474,1456
DA:2475,1456
DA:2476,728
DA:2479,728
DA:2480,16
DA:2481,16
DA:2483,16
DA:2484,712
DA:2485,728
DA:2486,792
DA:2489,720
DA:2490,360
DA:2491,360
DA:2493,360
DA:2494,408
DA:2496,136
DA:2497,136
DA:2498,272
DA:2499,136
DA:2500,136
DA:2503,184
DA:2504,184
DA:2505,368
DA:2506,184
DA:2507,184
DA:2510,1191
DA:2513,1191
DA:2514,1191
DA:2515,1501
DA:2516,1191
DA:2518,1503
DA:2520,1191
DA:2521,1191
DA:2522,2382
DA:2523,1191
DA:2525,0
DA:2527,2692
DA:2528,1501
DA:2529,1501
DA:2530,1501
DA:2531,1437
DA:2533,64
DA:2534,1501
DA:2536,1191
DA:2537,1191
DA:2539,440
DA:2546,440
DA:2547,880
DA:2548,440
DA:2549,632
DA:2550,880
DA:2551,440
DA:2552,632
DA:2554,440
DA:2555,440
DA:2556,440
DA:2557,440
DA:2558,440
DA:2559,440
DA:2560,0
DA:2562,1072
DA:2563,632
DA:2564,632
DA:2565,16
DA:2566,16
DA:2567,616
DA:2568,616
DA:2569,616
DA:2570,616
DA:2571,1168
DA:2572,584
DA:2573,584
DA:2574,32
DA:2575,64
DA:2576,32
DA:2577,32
DA:2578,32
DA:2579,616
DA:2580,632
DA:2582,440
DA:2583,440
DA:2585,128
DA:2586,128
DA:2587,256
DA:2588,128
DA:2589,128
DA:2592,656
DA:2595,656
DA:2596,656
DA:2597,400
DA:2598,400
DA:2599,400
DA:2600,0
DA:2601,400
DA:2603,656
DA:2604,656
DA:2605,656
DA:2613,656
DA:2614,656
DA:2615,312
DA:2616,312
DA:2617,0
DA:2618,0
DA:2620,312
DA:2621,312
DA:2622,312
DA:2623,312
DA:2626,344
DA:2627,1232
DA:2628,888
DA:2629,344
DA:2630,344
DA:2631,656
DA:2633,408
DA:2634,408
DA:2635,408
DA:2636,408
DA:2639,528
DA:2641,528
DA:2642,528
DA:2643,528
DA:2644,528
DA:2650,528
DA:2651,24
DA:2652,24
DA:2656,504
DA:2657,504
DA:2658,144
DA:2659,8
DA:2664,496
DA:2665,992
DA:2666,496
DA:2667,528
DA:2669,280
DA:2670,280
DA:2671,280
DA:2672,280
DA:2675,579
DA:2676,579
DA:2677,579
DA:2678,579
DA:2679,579
DA:2680,579
DA:2682,432
DA:2686,432
DA:2687,432
DA:2688,432
DA:2692,16
DA:2693,16
DA:2697,416
DA:2698,416
DA:2699,16
DA:2700,8
DA:2703,408
DA:2704,408
DA:2705,8
DA:2706,8
DA:2707,8
DA:2710,400
DA:2711,400
DA:2712,400
DA:2714,400
DA:2715,400
DA:2716,400
DA:2718,1072
DA:2720,672
DA:2721,8
DA:2724,664
DA:2725,776
DA:2726,664
DA:2727,664
DA:2728,1232
DA:2729,616
DA:2730,616
DA:2732,616
DA:2733,16
DA:2736,616
DA:2739,648
DA:2740,16
DA:2741,8
DA:2744,640
DA:2745,16
DA:2746,8
DA:2749,632
DA:2750,632
DA:2751,664
DA:2754,720
DA:2755,360
DA:2756,360
DA:2757,360
DA:2758,432
DA:2760,399
DA:2762,399
DA:2763,1026
DA:2764,627
DA:2765,627
DA:2766,1158
DA:2767,579
DA:2768,579
DA:2770,48
DA:2771,627
DA:2772,399
DA:2775,456
DA:2777,456
DA:2778,456
DA:2779,456
DA:2780,456
DA:2781,16
DA:2782,16
DA:2784,440
DA:2785,440
DA:2786,16
DA:2787,8
DA:2790,432
DA:2791,16
DA:2793,8
DA:2795,424
DA:2796,424
DA:2797,424
DA:2798,8
DA:2803,416
DA:2804,416
DA:2805,416
DA:2806,416
DA:2807,1760
DA:2808,1344
DA:2809,1344
DA:2810,1344
DA:2812,832
DA:2813,416
DA:2814,416
DA:2815,416
DA:2816,456
DA:2818,694
DA:2821,694
DA:2823,694
DA:2824,694
DA:2825,694
DA:2826,32
DA:2827,32
DA:2830,662
DA:2831,662
DA:2832,8
DA:2833,8
DA:2835,1308
DA:2836,654
DA:2837,8
DA:2841,646
DA:2842,646
DA:2843,16
DA:2844,16
DA:2847,630
DA:2848,630
DA:2849,8
DA:2853,1244
DA:2854,622
DA:2855,8
DA:2859,614
DA:2860,614
DA:2861,614
DA:2862,8
DA:2865,606
DA:2866,8
DA:2867,8
DA:2869,1196
DA:2870,598
DA:2871,598
DA:2872,694
DA:2874,1326
DA:2876,1326
DA:2877,1326
DA:2878,1326
DA:2881,176
DA:2883,176
DA:2884,176
DA:2886,176
DA:2887,176
DA:2888,176
DA:2889,176
DA:2890,176
DA:2892,16
DA:2894,16
DA:2895,16
DA:2896,32
DA:2897,16
DA:2898,16
DA:2899,16
DA:2901,352
DA:2902,352
DA:2903,1064
DA:2904,712
DA:2905,352
DA:2912,304
DA:2915,304
DA:2916,608
DA:2918,304
DA:2919,304
DA:2920,40
DA:2922,264
DA:2923,264
DA:2925,264
DA:2926,8
DA:2928,256
DA:2929,256
DA:2930,8
DA:2931,8
DA:2933,248
DA:2934,8
DA:2935,8
DA:2937,240
DA:2939,240
DA:2940,240
DA:2941,8
DA:2944,688
DA:2945,456
DA:2946,464
DA:2947,232
DA:2948,8
DA:2949,8
DA:2952,224
DA:2954,224
DA:2955,224
DA:2956,16
DA:2958,624
DA:2959,416
DA:2960,8
DA:2961,8
DA:2962,8
DA:2964,8
DA:2965,200
DA:2967,200
DA:2968,304
DA:2970,488
DA:2972,488
DA:2973,976
DA:2975,488
DA:2976,488
DA:2977,32
DA:2979,456
DA:2980,456
DA:2981,456
DA:2982,456
DA:2983,456
DA:2984,456
DA:2985,456
DA:2986,456
DA:2987,64
DA:2989,392
DA:2990,488
DA:3001,408
DA:3002,408
DA:3003,408
DA:3004,408
DA:3007,408
DA:3008,408
DA:3009,408
DA:3010,8
DA:3011,8
DA:3014,400
DA:3015,400
DA:3018,400
DA:3019,400
DA:3020,400
DA:3022,352
DA:3023,352
DA:3024,352
DA:3025,352
DA:3026,352
DA:3027,40
DA:3028,40
DA:3029,40
DA:3030,40
DA:3031,40
DA:3032,312
DA:3033,312
DA:3034,312
DA:3035,312
DA:3038,352
DA:3039,352
DA:3040,352
DA:3041,352
DA:3042,96
DA:3043,32
DA:3048,64
DA:3049,64
DA:3050,64
DA:3051,16
DA:3052,16
DA:3054,16
DA:3056,48
DA:3057,256
DA:3060,512
DA:3061,208
DA:3062,208
DA:3063,208
DA:3064,8
DA:3069,208
DA:3071,296
DA:3072,408
DA:3074,392
DA:3077,392
DA:3078,392
DA:3079,392
DA:3082,16
DA:3085,376
DA:3086,376
DA:3088,376
DA:3089,8
DA:3092,368
DA:3093,368
DA:3094,368
DA:3095,8
DA:3099,360
DA:3101,360
DA:3102,8
DA:3105,352
DA:3106,352
DA:3107,784
DA:3108,432
DA:3110,432
DA:3111,16
DA:3115,416
DA:3116,400
DA:3117,400
DA:3119,400
DA:3120,8
DA:3121,8
DA:3124,400
DA:3125,432
DA:3127,328
DA:3128,392
DA:3130,344
DA:3131,344
DA:3133,344
DA:3134,344
DA:3135,16
DA:3138,8
DA:3139,336
DA:3140,8
DA:3141,8
DA:3143,8
DA:3145,328
DA:3146,328
DA:3147,2243
DA:3148,1891
DA:3149,1915
DA:3150,1915
DA:3151,8
DA:3152,8
DA:3154,1907
DA:3155,958
DA:3156,958
DA:3157,8
DA:3158,958
DA:3159,949
DA:3160,949
DA:3161,8
DA:3162,949
DA:3163,1915
DA:3164,304
DA:3165,344
DA:3167,784
DA:3180,784
DA:3181,784
DA:3182,784
DA:3183,784
DA:3184,784
DA:3185,784
DA:3186,784
DA:3187,784
DA:3188,784
DA:3189,784
DA:3190,232
DA:3192,552
DA:3193,552
DA:3194,552
DA:3195,1086
DA:3196,543
DA:3197,72
DA:3198,72
DA:3201,480
DA:3202,784
DA:3204,805
DA:3206,805
DA:3207,805
DA:3208,1610
DA:3209,805
DA:3210,8
DA:3212,797
DA:3213,797
DA:3214,797
DA:3215,1528
DA:3216,764
DA:3217,8
DA:3218,8
DA:3220,789
DA:3221,805
DA:3223,552
DA:3230,552
DA:3231,552
DA:3232,552
DA:3233,552
DA:3234,552
DA:3235,552
DA:3236,184
DA:3238,368
DA:3239,368
DA:3240,368
DA:3241,624
DA:3242,312
DA:3243,8
DA:3244,8
DA:3246,360
DA:3247,552
DA:3249,144
DA:3254,144
DA:3255,144
DA:3256,144
DA:3260,144
DA:3262,136
DA:3263,136
DA:3264,136
DA:3265,136
DA:3266,136
DA:3269,136
DA:3270,136
DA:3271,136
DA:3273,136
DA:3274,0
DA:3277,136
DA:3278,136
DA:3279,0
DA:3280,0
DA:3283,136
DA:3284,0
DA:3287,288
DA:3288,152
DA:3289,152
DA:3290,0
DA:3294,152
DA:3295,152
DA:3298,152
DA:3299,8
DA:3304,152
DA:3306,128
DA:3307,0
DA:3313,128
DA:3314,128
DA:3315,128
DA:3316,384
DA:3317,256
DA:3318,192
DA:3319,64
DA:3320,64
DA:3321,64
DA:3322,256
DA:3323,128
DA:3324,128
DA:3325,128
DA:3326,0
DA:3327,0
DA:3329,192
DA:3330,64
DA:3331,0
DA:3333,64
DA:3335,128
DA:3336,144
DA:3338,96
DA:3341,96
DA:3342,96
DA:3344,96
DA:3345,96
DA:3347,96
DA:3348,96
DA:3349,0
DA:3351,96
DA:3352,96
DA:3353,0
DA:3354,0
DA:3357,96
DA:3358,96
DA:3359,0
DA:3360,0
DA:3363,96
DA:3364,96
DA:3365,0
DA:3366,0
DA:3369,96
DA:3371,96
DA:3372,88
DA:3373,88
DA:3374,0
DA:3377,88
DA:3378,96
DA:3380,112
DA:3381,112
DA:3382,112
DA:3383,112
DA:3384,112
DA:3385,40
DA:3386,8
DA:3389,104
DA:3390,112
DA:3394,410
DA:3396,410
DA:3397,410
DA:3398,410
DA:3399,0
DA:3400,0
DA:3401,0
DA:3403,410
DA:3404,410
DA:3405,16
DA:3408,8
DA:3410,402
DA:3411,402
DA:3412,0
DA:3415,402
DA:3416,32
DA:3417,16
DA:3420,16
DA:3422,777
DA:3423,391
DA:3424,391
DA:3425,8
DA:3430,918
DA:3431,535
DA:3432,535
DA:3433,8
DA:3437,535
DA:3438,391
DA:3440,376
DA:3441,410
DA:3443,632
DA:3444,632
DA:3445,632
DA:3446,632
DA:3447,632
DA:3448,8
DA:3450,624
DA:3451,8
DA:3452,8
DA:3454,616
DA:3455,632
DA:3458,144
DA:3460,144
DA:3461,144
DA:3463,144
DA:3464,144
DA:3466,144
DA:3467,144
DA:3468,144
DA:3470,144
DA:3471,0
DA:3472,0
DA:3473,0
DA:3475,144
DA:3476,0
DA:3477,0
DA:3478,0
DA:3480,144
DA:3481,0
DA:3482,0
DA:3483,0
DA:3484,144
DA:3485,144
DA:3489,481
DA:3490,481
DA:3491,481
DA:3492,481
DA:3493,0
DA:3494,0
DA:3495,0
DA:3497,481
DA:3498,481
DA:3499,16
DA:3502,8
DA:3503,473
DA:3504,481
DA:3512,1288
DA:3514,1288
DA:3515,2576
DA:3516,1288
DA:3517,1679
DA:3518,2576
DA:3519,1288
DA:3520,1677
DA:3523,1288
DA:3524,1288
DA:3525,2576
DA:3526,1288
DA:3528,32
DA:3531,1256
DA:3532,1256
DA:3533,2505
DA:3534,1249
DA:3535,1209
DA:3536,1209
DA:3538,40
DA:3539,1256
DA:3541,1256
DA:3542,2512
DA:3543,1256
DA:3544,96
DA:3545,1160
DA:3546,1288
DA:3548,248
DA:3550,248
DA:3552,248
DA:3553,8
DA:3555,240
DA:3556,8
DA:3557,232
DA:3558,248
DA:3560,395
DA:3564,395
DA:3565,790
DA:3567,395
DA:3568,395
DA:3569,32
DA:3570,363
DA:3571,363
DA:3572,363
DA:3573,363
DA:3574,363
DA:3575,363
DA:3576,363
DA:3577,363
DA:3578,8
DA:3580,355
DA:3581,355
DA:3582,355
DA:3583,8
DA:3585,347
DA:3586,8
DA:3587,339
DA:3588,8
DA:3589,8
DA:3590,331
DA:3591,318
DA:3592,16
DA:3593,321
DA:3594,321
DA:3595,321
DA:3596,8
DA:3598,313
DA:3599,8
DA:3605,911
DA:3606,304
DA:3607,303
DA:3608,8
DA:3609,8
DA:3614,608
DA:3615,311
DA:3616,48
DA:3617,24
DA:3618,8
DA:3619,8
DA:3620,8
DA:3621,8
DA:3622,311
DA:3623,287
DA:3624,399
DA:3632,647
DA:3638,647
DA:3639,1294
DA:3640,647
DA:3641,1038
DA:3642,1294
DA:3643,647
DA:3644,1039
DA:3645,647
DA:3648,647
DA:3649,647
DA:3650,647
DA:3651,647
DA:3652,647
DA:3653,647
DA:3654,128
DA:3658,519
DA:3659,1054
DA:3660,535
DA:3661,519
DA:3662,519
DA:3664,16
DA:3665,519
DA:3666,519
DA:3667,1038
DA:3668,519
DA:3669,96
DA:3671,423
DA:3672,647
DA:3674,416
DA:3675,416
DA:3677,416
DA:3678,416
DA:3682,416
DA:3683,416
DA:3685,416
DA:3686,416
DA:3687,416
DA:3688,8
DA:3693,408
DA:3694,416
DA:3696,288
DA:3697,288
DA:3699,288
DA:3700,16
DA:3701,8
DA:3703,280
DA:3704,280
DA:3706,280
DA:3707,8
DA:3709,272
DA:3710,728
DA:3712,456
DA:3713,16
DA:3714,16
DA:3716,440
DA:3717,8
DA:3718,8
DA:3719,8
DA:3720,456
DA:3721,248
DA:3722,288
DA:3724,444
DA:3725,444
DA:3726,444
DA:3727,444
DA:3728,888
DA:3729,444
DA:3730,8
DA:3731,8
DA:3734,436
DA:3735,444
DA:3750,592
DA:3757,592
DA:3760,592
DA:3761,592
DA:3763,1184
DA:3764,1304
DA:3765,1184
DA:3766,1304
DA:3767,1304
DA:3768,712
DA:3770,592
DA:3773,592
DA:3774,552
DA:3775,16
DA:3776,16
DA:3779,16
DA:3781,536
DA:3783,576
DA:3784,576
DA:3785,1272
DA:3786,696
DA:3787,1392
DA:3788,696
DA:3789,696
DA:3790,1152
DA:3791,576
DA:3792,576
DA:3793,576
DA:3794,72
DA:3797,504
DA:3798,504
DA:3799,464
DA:3800,464
DA:3801,928
DA:3802,464
DA:3803,8
DA:3804,464
DA:3806,1128
DA:3807,624
DA:3808,1152
DA:3809,576
DA:3810,576
DA:3811,16
DA:3812,16
DA:3818,16
DA:3819,576
DA:3820,608
DA:3823,1096
DA:3824,608
DA:3825,608
DA:3826,608
DA:3827,608
DA:3828,608
DA:3829,608
DA:3830,80
DA:3831,528
DA:3834,936
DA:3835,528
DA:3836,512
DA:3837,512
DA:3838,512
DA:3840,512
DA:3841,512
DA:3842,512
DA:3843,512
DA:3844,1952
DA:3845,2880
DA:3846,2880
DA:3847,976
DA:3848,976
DA:3850,464
DA:3851,1440
DA:3853,976
DA:3854,456
DA:3855,464
DA:3857,464
DA:3858,464
DA:3859,24
DA:3861,440
DA:3862,8
DA:3863,8
DA:3868,8
DA:3869,8
DA:3871,464
DA:3872,512
DA:3875,504
DA:3876,504
DA:3877,1456
DA:3878,944
DA:3879,1904
DA:3880,952
DA:3882,952
DA:3883,504
DA:3885,504
DA:3886,504
DA:3887,504
DA:3888,8
DA:3889,8
DA:3893,8
DA:3895,8
DA:3897,496
DA:3898,952
DA:3899,504
DA:3900,512
DA:3901,512
DA:3903,392
DA:3904,592
DA:3914,456
DA:3919,456
DA:3920,456
DA:3921,456
DA:3922,456
DA:3925,456
DA:3927,456
DA:3928,8
DA:3929,8
DA:3930,8
DA:3932,448
DA:3933,448
DA:3934,1328
DA:3935,1760
DA:3936,880
DA:3938,16
DA:3939,16
DA:3940,16
DA:3941,880
DA:3943,432
DA:3944,432
DA:3945,8
DA:3946,8
DA:3947,8
DA:3949,424
DA:3950,824
DA:3951,416
DA:3952,400
DA:3953,16
DA:3954,16
DA:3956,16
DA:3959,408
DA:3960,408
DA:3961,408
DA:3962,408
DA:3963,408
DA:3964,408
DA:3966,80
DA:3970,328
DA:3971,328
DA:3972,328
DA:3973,328
DA:3974,656
DA:3975,328
DA:3976,8
DA:3977,8
DA:3980,8
DA:3981,8
DA:3982,320
DA:3984,320
DA:3985,320
DA:3988,312
DA:3989,312
DA:3990,312
DA:3991,624
DA:3992,312
DA:3993,312
DA:3994,312
DA:3997,280
DA:3998,280
DA:3999,0
DA:4001,560
DA:4002,280
DA:4003,280
DA:4005,280
DA:4007,16
DA:4010,264
DA:4011,456
DA:4013,446
DA:4014,446
DA:4015,446
DA:4016,938
DA:4017,492
DA:4018,492
DA:4019,444
DA:4020,444
DA:4021,444
DA:4022,16
DA:4023,16
DA:4026,428
DA:4027,444
DA:4028,492
DA:4031,430
DA:4032,430
DA:4033,430
DA:4034,16
DA:4035,8
DA:4036,1088
DA:4037,666
DA:4038,666
DA:4039,666
DA:4040,666
DA:4041,1995
DA:4042,1329
DA:4043,1329
DA:4044,16
DA:4047,1329
DA:4048,666
DA:4051,408
DA:4052,408
DA:4053,16
DA:4055,8
DA:4056,400
DA:4057,400
DA:4058,392
DA:4059,32
DA:4061,16
DA:4062,384
DA:4063,446
DA:4065,400
DA:4066,400
DA:4067,400
DA:4068,400
DA:4069,400
DA:4070,400
DA:4071,16
DA:4075,384
DA:4076,16
DA:4077,16
DA:4081,368
DA:4082,368
DA:4083,16
DA:4084,16
DA:4088,352
DA:4089,352
DA:4090,8
DA:4091,8
DA:4092,8
DA:4093,344
DA:4094,344
DA:4095,336
DA:4096,24
DA:4097,24
DA:4099,24
DA:4101,320
DA:4102,400
end_of_record
TN:
SF:/usr/local/google/home/gleasonk/Coding/openxla/stablehlo/stablehlo/dialect/VhloOps.h
FN:35,_ZN4mlir4vhlo11VhloDialect19getDialectNamespaceEv
FNDA:840,_ZN4mlir4vhlo11VhloDialect19getDialectNamespaceEv
DA:35,840
end_of_record
SF:/usr/local/google/home/gleasonk/Coding/openxla/stablehlo/stablehlo/dialect/StablehloOps.h
FN:55,_ZN4mlir9stablehlo16StablehloDialect19getDialectNamespaceEv
FNDA:8024,_ZN4mlir9stablehlo16StablehloDialect19getDialectNamespaceEv
DA:55,8024
end_of_record
SF:/usr/local/google/home/gleasonk/Coding/openxla/stablehlo/stablehlo/dialect/Register.cpp
FN:30,_ZN4mlir9stablehlo19registerAllDialectsERNS_15DialectRegistryE
FNDA:464,_ZN4mlir9stablehlo19registerAllDialectsERNS_15DialectRegistryE
DA:30,464
DA:32,464
DA:33,464
DA:37,464
end_of_record
SF:/usr/local/google/home/gleasonk/Coding/openxla/stablehlo/stablehlo/dialect/ChloOps.h
FN:51,_ZN4mlir4chlo11ChloDialect19getDialectNamespaceEv
FNDA:792,_ZN4mlir4chlo11ChloDialect19getDialectNamespaceEv
DA:51,792
end_of_record
TN:
SF:/usr/local/google/home/gleasonk/Coding/openxla/stablehlo/stablehlo/dialect/Base.h
FN:166,_ZN4mlir3hlo8bytecode17readEnumAttributeINS_4chlo23ComparisonDirectionAttrEZNKS3_12_GLOBAL__N_121ChloBytecodeInterface27readComparisonDirectionAttrERNS_21DialectBytecodeReaderEE3$_0EET_S8_PNS_11MLIRContextET0_
FNDA:16,_ZN4mlir3hlo8bytecode17readEnumAttributeINS_4chlo23ComparisonDirectionAttrEZNKS3_12_GLOBAL__N_121ChloBytecodeInterface27readComparisonDirectionAttrERNS_21DialectBytecodeReaderEE3$_0EET_S8_PNS_11MLIRContextET0_
FN:166,_ZN4mlir3hlo8bytecode17readEnumAttributeINS_4chlo18ComparisonTypeAttrEZNKS3_12_GLOBAL__N_121ChloBytecodeInterface22readComparisonTypeAttrERNS_21DialectBytecodeReaderEE3$_1EET_S8_PNS_11MLIRContextET0_
FNDA:16,_ZN4mlir3hlo8bytecode17readEnumAttributeINS_4chlo18ComparisonTypeAttrEZNKS3_12_GLOBAL__N_121ChloBytecodeInterface22readComparisonTypeAttrERNS_21DialectBytecodeReaderEE3$_1EET_S8_PNS_11MLIRContextET0_
FN:178,_ZN4mlir3hlo8bytecode18writeEnumAttributeINS_4chlo19ComparisonDirectionENS3_23ComparisonDirectionAttrEEEvT0_RNS_21DialectBytecodeWriterE
FNDA:48,_ZN4mlir3hlo8bytecode18writeEnumAttributeINS_4chlo19ComparisonDirectionENS3_23ComparisonDirectionAttrEEEvT0_RNS_21DialectBytecodeWriterE
FN:178,_ZN4mlir3hlo8bytecode18writeEnumAttributeINS_4chlo14ComparisonTypeENS3_18ComparisonTypeAttrEEEvT0_RNS_21DialectBytecodeWriterE
FNDA:48,_ZN4mlir3hlo8bytecode18writeEnumAttributeINS_4chlo14ComparisonTypeENS3_18ComparisonTypeAttrEEEvT0_RNS_21DialectBytecodeWriterE
DA:166,32
DA:167,32
DA:168,32
DA:169,32
DA:171,32
DA:172,32
DA:174,32
DA:175,32
DA:178,96
DA:184,192
DA:185,96
DA:186,96
DA:187,96
end_of_record
SF:/usr/local/google/home/gleasonk/Coding/openxla/stablehlo/stablehlo/dialect/ChloBytecode.cpp
FN:104,_ZN4mlir4chlo12_GLOBAL__N_121ChloBytecodeInterfaceD0Ev
FNDA:328,_ZN4mlir4chlo12_GLOBAL__N_121ChloBytecodeInterfaceD0Ev
FN:106,_ZN4mlir4chlo12_GLOBAL__N_121ChloBytecodeInterfaceC2EPNS_7DialectE
FNDA:328,_ZN4mlir4chlo12_GLOBAL__N_121ChloBytecodeInterfaceC2EPNS_7DialectE
FN:152,_ZNK4mlir4chlo12_GLOBAL__N_121ChloBytecodeInterface13readAttributeERNS_21DialectBytecodeReaderE
FNDA:32,_ZNK4mlir4chlo12_GLOBAL__N_121ChloBytecodeInterface13readAttributeERNS_21DialectBytecodeReaderE
FN:167,_ZNK4mlir4chlo12_GLOBAL__N_121ChloBytecodeInterface27readComparisonDirectionAttrERNS_21DialectBytecodeReaderE
FNDA:16,_ZNK4mlir4chlo12_GLOBAL__N_121ChloBytecodeInterface27readComparisonDirectionAttrERNS_21DialectBytecodeReaderE
FN:172,_ZZNK4mlir4chlo12_GLOBAL__N_121ChloBytecodeInterface27readComparisonDirectionAttrERNS_21DialectBytecodeReaderEENK3$_0clEj
FNDA:16,_ZZNK4mlir4chlo12_GLOBAL__N_121ChloBytecodeInterface27readComparisonDirectionAttrERNS_21DialectBytecodeReaderEENK3$_0clEj
FN:175,_ZNK4mlir4chlo12_GLOBAL__N_121ChloBytecodeInterface22readComparisonTypeAttrERNS_21DialectBytecodeReaderE
FNDA:16,_ZNK4mlir4chlo12_GLOBAL__N_121ChloBytecodeInterface22readComparisonTypeAttrERNS_21DialectBytecodeReaderE
FN:180,_ZZNK4mlir4chlo12_GLOBAL__N_121ChloBytecodeInterface22readComparisonTypeAttrERNS_21DialectBytecodeReaderEENK3$_1clEj
FNDA:16,_ZZNK4mlir4chlo12_GLOBAL__N_121ChloBytecodeInterface22readComparisonTypeAttrERNS_21DialectBytecodeReaderEENK3$_1clEj
FN:189,_ZNK4mlir4chlo12_GLOBAL__N_121ChloBytecodeInterface14writeAttributeENS_9AttributeERNS_21DialectBytecodeWriterE
FNDA:96,_ZNK4mlir4chlo12_GLOBAL__N_121ChloBytecodeInterface14writeAttributeENS_9AttributeERNS_21DialectBytecodeWriterE
FN:192,_ZZNK4mlir4chlo12_GLOBAL__N_121ChloBytecodeInterface14writeAttributeENS_9AttributeERNS_21DialectBytecodeWriterEENK3$_2clINS0_23ComparisonDirectionAttrEEEDaT_
FNDA:48,_ZZNK4mlir4chlo12_GLOBAL__N_121ChloBytecodeInterface14writeAttributeENS_9AttributeERNS_21DialectBytecodeWriterEENK3$_2clINS0_23ComparisonDirectionAttrEEEDaT_
FN:192,_ZZNK4mlir4chlo12_GLOBAL__N_121ChloBytecodeInterface14writeAttributeENS_9AttributeERNS_21DialectBytecodeWriterEENK3$_2clINS0_18ComparisonTypeAttrEEEDaT_
FNDA:48,_ZZNK4mlir4chlo12_GLOBAL__N_121ChloBytecodeInterface14writeAttributeENS_9AttributeERNS_21DialectBytecodeWriterEENK3$_2clINS0_18ComparisonTypeAttrEEEDaT_
FN:197,_ZZNK4mlir4chlo12_GLOBAL__N_121ChloBytecodeInterface14writeAttributeENS_9AttributeERNS_21DialectBytecodeWriterEENK3$_3clES3_
FNDA:0,_ZZNK4mlir4chlo12_GLOBAL__N_121ChloBytecodeInterface14writeAttributeENS_9AttributeERNS_21DialectBytecodeWriterEENK3$_3clES3_
FN:203,_ZNK4mlir4chlo12_GLOBAL__N_121ChloBytecodeInterface5writeENS0_23ComparisonDirectionAttrERNS_21DialectBytecodeWriterE
FNDA:48,_ZNK4mlir4chlo12_GLOBAL__N_121ChloBytecodeInterface5writeENS0_23ComparisonDirectionAttrERNS_21DialectBytecodeWriterE
FN:209,_ZNK4mlir4chlo12_GLOBAL__N_121ChloBytecodeInterface5writeENS0_18ComparisonTypeAttrERNS_21DialectBytecodeWriterE
FNDA:48,_ZNK4mlir4chlo12_GLOBAL__N_121ChloBytecodeInterface5writeENS0_18ComparisonTypeAttrERNS_21DialectBytecodeWriterE
FN:219,_ZNK4mlir4chlo12_GLOBAL__N_121ChloBytecodeInterface8readTypeERNS_21DialectBytecodeReaderE
FNDA:0,_ZNK4mlir4chlo12_GLOBAL__N_121ChloBytecodeInterface8readTypeERNS_21DialectBytecodeReaderE
FN:234,_ZNK4mlir4chlo12_GLOBAL__N_121ChloBytecodeInterface9writeTypeENS_4TypeERNS_21DialectBytecodeWriterE
FNDA:0,_ZNK4mlir4chlo12_GLOBAL__N_121ChloBytecodeInterface9writeTypeENS_4TypeERNS_21DialectBytecodeWriterE
FN:236,_ZZNK4mlir4chlo12_GLOBAL__N_121ChloBytecodeInterface9writeTypeENS_4TypeERNS_21DialectBytecodeWriterEENK3$_4clES3_
FNDA:0,_ZZNK4mlir4chlo12_GLOBAL__N_121ChloBytecodeInterface9writeTypeENS_4TypeERNS_21DialectBytecodeWriterEENK3$_4clES3_
FN:244,_ZN4mlir4chlo20addBytecodeInterfaceEPNS0_11ChloDialectE
FNDA:328,_ZN4mlir4chlo20addBytecodeInterfaceEPNS0_11ChloDialectE
DA:106,328
DA:152,32
DA:153,32
DA:154,32
DA:155,32
DA:156,32
DA:158,32
DA:160,16
DA:162,0
DA:163,0
DA:165,32
DA:167,16
DA:168,16
DA:169,16
DA:170,16
DA:171,16
DA:172,16
DA:175,16
DA:176,16
DA:177,16
DA:178,16
DA:179,16
DA:180,16
DA:189,96
DA:190,96
DA:191,192
DA:192,192
DA:193,96
DA:194,96
DA:195,96
DA:197,96
DA:198,0
DA:199,0
DA:203,48
DA:204,48
DA:205,48
DA:206,48
DA:207,48
DA:209,48
DA:210,48
DA:211,48
DA:212,48
DA:213,48
DA:219,0
DA:220,0
DA:221,0
DA:223,0
DA:225,0
DA:226,0
DA:228,0
DA:234,0
DA:235,0
DA:236,0
DA:237,0
DA:238,0
DA:244,328
DA:245,328
DA:246,328
end_of_record
TN:
SF:/usr/local/google/home/gleasonk/Coding/openxla/stablehlo/stablehlo/dialect/ChloOps.cpp
FN:57,_ZN4mlir4chlo6AcosOp25inferReturnTypeComponentsEPNS_11MLIRContextESt8optionalINS_8LocationEENS_15ValueShapeRangeENS_14DictionaryAttrENS_11RegionRangeERN4llvm15SmallVectorImplINS_20ShapedTypeComponentsEEE
FNDA:0,_ZN4mlir4chlo6AcosOp25inferReturnTypeComponentsEPNS_11MLIRContextESt8optionalINS_8LocationEENS_15ValueShapeRangeENS_14DictionaryAttrENS_11RegionRangeERN4llvm15SmallVectorImplINS_20ShapedTypeComponentsEEE
FN:58,_ZN4mlir4chlo7AcoshOp25inferReturnTypeComponentsEPNS_11MLIRContextESt8optionalINS_8LocationEENS_15ValueShapeRangeENS_14DictionaryAttrENS_11RegionRangeERN4llvm15SmallVectorImplINS_20ShapedTypeComponentsEEE
FNDA:0,_ZN4mlir4chlo7AcoshOp25inferReturnTypeComponentsEPNS_11MLIRContextESt8optionalINS_8LocationEENS_15ValueShapeRangeENS_14DictionaryAttrENS_11RegionRangeERN4llvm15SmallVectorImplINS_20ShapedTypeComponentsEEE
FN:59,_ZN4mlir4chlo6AsinOp25inferReturnTypeComponentsEPNS_11MLIRContextESt8optionalINS_8LocationEENS_15ValueShapeRangeENS_14DictionaryAttrENS_11RegionRangeERN4llvm15SmallVectorImplINS_20ShapedTypeComponentsEEE
FNDA:0,_ZN4mlir4chlo6AsinOp25inferReturnTypeComponentsEPNS_11MLIRContextESt8optionalINS_8LocationEENS_15ValueShapeRangeENS_14DictionaryAttrENS_11RegionRangeERN4llvm15SmallVectorImplINS_20ShapedTypeComponentsEEE
FN:60,_ZN4mlir4chlo7AsinhOp25inferReturnTypeComponentsEPNS_11MLIRContextESt8optionalINS_8LocationEENS_15ValueShapeRangeENS_14DictionaryAttrENS_11RegionRangeERN4llvm15SmallVectorImplINS_20ShapedTypeComponentsEEE
FNDA:0,_ZN4mlir4chlo7AsinhOp25inferReturnTypeComponentsEPNS_11MLIRContextESt8optionalINS_8LocationEENS_15ValueShapeRangeENS_14DictionaryAttrENS_11RegionRangeERN4llvm15SmallVectorImplINS_20ShapedTypeComponentsEEE
FN:61,_ZN4mlir4chlo6AtanOp25inferReturnTypeComponentsEPNS_11MLIRContextESt8optionalINS_8LocationEENS_15ValueShapeRangeENS_14DictionaryAttrENS_11RegionRangeERN4llvm15SmallVectorImplINS_20ShapedTypeComponentsEEE
FNDA:0,_ZN4mlir4chlo6AtanOp25inferReturnTypeComponentsEPNS_11MLIRContextESt8optionalINS_8LocationEENS_15ValueShapeRangeENS_14DictionaryAttrENS_11RegionRangeERN4llvm15SmallVectorImplINS_20ShapedTypeComponentsEEE
FN:62,_ZN4mlir4chlo7AtanhOp25inferReturnTypeComponentsEPNS_11MLIRContextESt8optionalINS_8LocationEENS_15ValueShapeRangeENS_14DictionaryAttrENS_11RegionRangeERN4llvm15SmallVectorImplINS_20ShapedTypeComponentsEEE
FNDA:0,_ZN4mlir4chlo7AtanhOp25inferReturnTypeComponentsEPNS_11MLIRContextESt8optionalINS_8LocationEENS_15ValueShapeRangeENS_14DictionaryAttrENS_11RegionRangeERN4llvm15SmallVectorImplINS_20ShapedTypeComponentsEEE
FN:63,_ZN4mlir4chlo11BesselI1eOp25inferReturnTypeComponentsEPNS_11MLIRContextESt8optionalINS_8LocationEENS_15ValueShapeRangeENS_14DictionaryAttrENS_11RegionRangeERN4llvm15SmallVectorImplINS_20ShapedTypeComponentsEEE
FNDA:0,_ZN4mlir4chlo11BesselI1eOp25inferReturnTypeComponentsEPNS_11MLIRContextESt8optionalINS_8LocationEENS_15ValueShapeRangeENS_14DictionaryAttrENS_11RegionRangeERN4llvm15SmallVectorImplINS_20ShapedTypeComponentsEEE
FN:64,_ZN4mlir4chlo6ConjOp25inferReturnTypeComponentsEPNS_11MLIRContextESt8optionalINS_8LocationEENS_15ValueShapeRangeENS_14DictionaryAttrENS_11RegionRangeERN4llvm15SmallVectorImplINS_20ShapedTypeComponentsEEE
FNDA:0,_ZN4mlir4chlo6ConjOp25inferReturnTypeComponentsEPNS_11MLIRContextESt8optionalINS_8LocationEENS_15ValueShapeRangeENS_14DictionaryAttrENS_11RegionRangeERN4llvm15SmallVectorImplINS_20ShapedTypeComponentsEEE
FN:65,_ZN4mlir4chlo6CoshOp25inferReturnTypeComponentsEPNS_11MLIRContextESt8optionalINS_8LocationEENS_15ValueShapeRangeENS_14DictionaryAttrENS_11RegionRangeERN4llvm15SmallVectorImplINS_20ShapedTypeComponentsEEE
FNDA:0,_ZN4mlir4chlo6CoshOp25inferReturnTypeComponentsEPNS_11MLIRContextESt8optionalINS_8LocationEENS_15ValueShapeRangeENS_14DictionaryAttrENS_11RegionRangeERN4llvm15SmallVectorImplINS_20ShapedTypeComponentsEEE
FN:66,_ZN4mlir4chlo9DigammaOp25inferReturnTypeComponentsEPNS_11MLIRContextESt8optionalINS_8LocationEENS_15ValueShapeRangeENS_14DictionaryAttrENS_11RegionRangeERN4llvm15SmallVectorImplINS_20ShapedTypeComponentsEEE
FNDA:0,_ZN4mlir4chlo9DigammaOp25inferReturnTypeComponentsEPNS_11MLIRContextESt8optionalINS_8LocationEENS_15ValueShapeRangeENS_14DictionaryAttrENS_11RegionRangeERN4llvm15SmallVectorImplINS_20ShapedTypeComponentsEEE
FN:67,_ZN4mlir4chlo5ErfOp25inferReturnTypeComponentsEPNS_11MLIRContextESt8optionalINS_8LocationEENS_15ValueShapeRangeENS_14DictionaryAttrENS_11RegionRangeERN4llvm15SmallVectorImplINS_20ShapedTypeComponentsEEE
FNDA:0,_ZN4mlir4chlo5ErfOp25inferReturnTypeComponentsEPNS_11MLIRContextESt8optionalINS_8LocationEENS_15ValueShapeRangeENS_14DictionaryAttrENS_11RegionRangeERN4llvm15SmallVectorImplINS_20ShapedTypeComponentsEEE
FN:68,_ZN4mlir4chlo6ErfcOp25inferReturnTypeComponentsEPNS_11MLIRContextESt8optionalINS_8LocationEENS_15ValueShapeRangeENS_14DictionaryAttrENS_11RegionRangeERN4llvm15SmallVectorImplINS_20ShapedTypeComponentsEEE
FNDA:0,_ZN4mlir4chlo6ErfcOp25inferReturnTypeComponentsEPNS_11MLIRContextESt8optionalINS_8LocationEENS_15ValueShapeRangeENS_14DictionaryAttrENS_11RegionRangeERN4llvm15SmallVectorImplINS_20ShapedTypeComponentsEEE
FN:69,_ZN4mlir4chlo8LgammaOp25inferReturnTypeComponentsEPNS_11MLIRContextESt8optionalINS_8LocationEENS_15ValueShapeRangeENS_14DictionaryAttrENS_11RegionRangeERN4llvm15SmallVectorImplINS_20ShapedTypeComponentsEEE
FNDA:0,_ZN4mlir4chlo8LgammaOp25inferReturnTypeComponentsEPNS_11MLIRContextESt8optionalINS_8LocationEENS_15ValueShapeRangeENS_14DictionaryAttrENS_11RegionRangeERN4llvm15SmallVectorImplINS_20ShapedTypeComponentsEEE
FN:70,_ZN4mlir4chlo11NextAfterOp25inferReturnTypeComponentsEPNS_11MLIRContextESt8optionalINS_8LocationEENS_15ValueShapeRangeENS_14DictionaryAttrENS_11RegionRangeERN4llvm15SmallVectorImplINS_20ShapedTypeComponentsEEE
FNDA:0,_ZN4mlir4chlo11NextAfterOp25inferReturnTypeComponentsEPNS_11MLIRContextESt8optionalINS_8LocationEENS_15ValueShapeRangeENS_14DictionaryAttrENS_11RegionRangeERN4llvm15SmallVectorImplINS_20ShapedTypeComponentsEEE
FN:71,_ZN4mlir4chlo11PolygammaOp25inferReturnTypeComponentsEPNS_11MLIRContextESt8optionalINS_8LocationEENS_15ValueShapeRangeENS_14DictionaryAttrENS_11RegionRangeERN4llvm15SmallVectorImplINS_20ShapedTypeComponentsEEE
FNDA:0,_ZN4mlir4chlo11PolygammaOp25inferReturnTypeComponentsEPNS_11MLIRContextESt8optionalINS_8LocationEENS_15ValueShapeRangeENS_14DictionaryAttrENS_11RegionRangeERN4llvm15SmallVectorImplINS_20ShapedTypeComponentsEEE
FN:72,_ZN4mlir4chlo6SinhOp25inferReturnTypeComponentsEPNS_11MLIRContextESt8optionalINS_8LocationEENS_15ValueShapeRangeENS_14DictionaryAttrENS_11RegionRangeERN4llvm15SmallVectorImplINS_20ShapedTypeComponentsEEE
FNDA:0,_ZN4mlir4chlo6SinhOp25inferReturnTypeComponentsEPNS_11MLIRContextESt8optionalINS_8LocationEENS_15ValueShapeRangeENS_14DictionaryAttrENS_11RegionRangeERN4llvm15SmallVectorImplINS_20ShapedTypeComponentsEEE
FN:73,_ZN4mlir4chlo5TanOp25inferReturnTypeComponentsEPNS_11MLIRContextESt8optionalINS_8LocationEENS_15ValueShapeRangeENS_14DictionaryAttrENS_11RegionRangeERN4llvm15SmallVectorImplINS_20ShapedTypeComponentsEEE
FNDA:0,_ZN4mlir4chlo5TanOp25inferReturnTypeComponentsEPNS_11MLIRContextESt8optionalINS_8LocationEENS_15ValueShapeRangeENS_14DictionaryAttrENS_11RegionRangeERN4llvm15SmallVectorImplINS_20ShapedTypeComponentsEEE
FN:74,_ZN4mlir4chlo6ZetaOp25inferReturnTypeComponentsEPNS_11MLIRContextESt8optionalINS_8LocationEENS_15ValueShapeRangeENS_14DictionaryAttrENS_11RegionRangeERN4llvm15SmallVectorImplINS_20ShapedTypeComponentsEEE
FNDA:0,_ZN4mlir4chlo6ZetaOp25inferReturnTypeComponentsEPNS_11MLIRContextESt8optionalINS_8LocationEENS_15ValueShapeRangeENS_14DictionaryAttrENS_11RegionRangeERN4llvm15SmallVectorImplINS_20ShapedTypeComponentsEEE
FN:82,_ZN4mlir4chlo12_GLOBAL__N_116getBroadcastTypeENS_4TypeES2_S2_NS_20DenseIntElementsAttrE
FNDA:2023,_ZN4mlir4chlo12_GLOBAL__N_116getBroadcastTypeENS_4TypeES2_S2_NS_20DenseIntElementsAttrE
FN:132,_ZN4mlir4chlo12_GLOBAL__N_142InferBroadcastBinaryOpReturnTypeComponentsEPNS_11MLIRContextESt8optionalINS_8LocationEENS_10ValueRangeENS_14DictionaryAttrENS_4TypeERN4llvm15SmallVectorImplINS_20ShapedTypeComponentsEEE
FNDA:1890,_ZN4mlir4chlo12_GLOBAL__N_142InferBroadcastBinaryOpReturnTypeComponentsEPNS_11MLIRContextESt8optionalINS_8LocationEENS_10ValueRangeENS_14DictionaryAttrENS_4TypeERN4llvm15SmallVectorImplINS_20ShapedTypeComponentsEEE
FN:152,_ZN4mlir4chlo12_GLOBAL__N_138ReifyBroadcastBinaryOpReturnTypeShapesERNS_9OpBuilderEPNS_9OperationENS_10ValueRangeERN4llvm15SmallVectorImplINS_5ValueEEE
FNDA:40,_ZN4mlir4chlo12_GLOBAL__N_138ReifyBroadcastBinaryOpReturnTypeShapesERNS_9OpBuilderEPNS_9OperationENS_10ValueRangeERN4llvm15SmallVectorImplINS_5ValueEEE
FN:187,_ZN4mlir4chlo18BroadcastComplexOp25inferReturnTypeComponentsEPNS_11MLIRContextESt8optionalINS_8LocationEENS_15ValueShapeRangeENS_14DictionaryAttrENS_11RegionRangeERN4llvm15SmallVectorImplINS_20ShapedTypeComponentsEEE
FNDA:120,_ZN4mlir4chlo18BroadcastComplexOp25inferReturnTypeComponentsEPNS_11MLIRContextESt8optionalINS_8LocationEENS_15ValueShapeRangeENS_14DictionaryAttrENS_11RegionRangeERN4llvm15SmallVectorImplINS_20ShapedTypeComponentsEEE
FN:199,_ZN4mlir4chlo18BroadcastComplexOp21reifyReturnTypeShapesERNS_9OpBuilderENS_10ValueRangeERN4llvm15SmallVectorImplINS_5ValueEEE
FNDA:8,_ZN4mlir4chlo18BroadcastComplexOp21reifyReturnTypeShapesERNS_9OpBuilderENS_10ValueRangeERN4llvm15SmallVectorImplINS_5ValueEEE
FN:210,_ZN4mlir4chlo18BroadcastCompareOp5buildERNS_9OpBuilderERNS_14OperationStateENS_5ValueES6_NS_20DenseIntElementsAttrENS0_19ComparisonDirectionENS0_14ComparisonTypeE
FNDA:0,_ZN4mlir4chlo18BroadcastCompareOp5buildERNS_9OpBuilderERNS_14OperationStateENS_5ValueES6_NS_20DenseIntElementsAttrENS0_19ComparisonDirectionENS0_14ComparisonTypeE
FN:221,_ZN4mlir4chlo18BroadcastCompareOp25inferReturnTypeComponentsEPNS_11MLIRContextESt8optionalINS_8LocationEENS_15ValueShapeRangeENS_14DictionaryAttrENS_11RegionRangeERN4llvm15SmallVectorImplINS_20ShapedTypeComponentsEEE
FNDA:280,_ZN4mlir4chlo18BroadcastCompareOp25inferReturnTypeComponentsEPNS_11MLIRContextESt8optionalINS_8LocationEENS_15ValueShapeRangeENS_14DictionaryAttrENS_11RegionRangeERN4llvm15SmallVectorImplINS_20ShapedTypeComponentsEEE
FN:232,_ZN4mlir4chlo18BroadcastCompareOp21reifyReturnTypeShapesERNS_9OpBuilderENS_10ValueRangeERN4llvm15SmallVectorImplINS_5ValueEEE
FNDA:16,_ZN4mlir4chlo18BroadcastCompareOp21reifyReturnTypeShapesERNS_9OpBuilderENS_10ValueRangeERN4llvm15SmallVectorImplINS_5ValueEEE
FN:243,_ZN4mlir4chloL22getIsInfLikeReturnTypeENS_5ValueE
FNDA:96,_ZN4mlir4chloL22getIsInfLikeReturnTypeENS_5ValueE
FN:249,_ZN4mlir4chlo7IsInfOp16inferReturnTypesEPNS_11MLIRContextESt8optionalINS_8LocationEENS_10ValueRangeENS_14DictionaryAttrENS_11RegionRangeERN4llvm15SmallVectorImplINS_4TypeEEE
FNDA:32,_ZN4mlir4chlo7IsInfOp16inferReturnTypesEPNS_11MLIRContextESt8optionalINS_8LocationEENS_10ValueRangeENS_14DictionaryAttrENS_11RegionRangeERN4llvm15SmallVectorImplINS_4TypeEEE
FN:260,_ZN4mlir4chlo10IsNegInfOp16inferReturnTypesEPNS_11MLIRContextESt8optionalINS_8LocationEENS_10ValueRangeENS_14DictionaryAttrENS_11RegionRangeERN4llvm15SmallVectorImplINS_4TypeEEE
FNDA:32,_ZN4mlir4chlo10IsNegInfOp16inferReturnTypesEPNS_11MLIRContextESt8optionalINS_8LocationEENS_10ValueRangeENS_14DictionaryAttrENS_11RegionRangeERN4llvm15SmallVectorImplINS_4TypeEEE
FN:271,_ZN4mlir4chlo10IsPosInfOp16inferReturnTypesEPNS_11MLIRContextESt8optionalINS_8LocationEENS_10ValueRangeENS_14DictionaryAttrENS_11RegionRangeERN4llvm15SmallVectorImplINS_4TypeEEE
FNDA:32,_ZN4mlir4chlo10IsPosInfOp16inferReturnTypesEPNS_11MLIRContextESt8optionalINS_8LocationEENS_10ValueRangeENS_14DictionaryAttrENS_11RegionRangeERN4llvm15SmallVectorImplINS_4TypeEEE
FN:299,_ZN4mlir4chlo14BroadcastAddOp25inferReturnTypeComponentsEPNS_11MLIRContextESt8optionalINS_8LocationEENS_15ValueShapeRangeENS_14DictionaryAttrENS_11RegionRangeERN4llvm15SmallVectorImplINS_20ShapedTypeComponentsEEE
FNDA:280,_ZN4mlir4chlo14BroadcastAddOp25inferReturnTypeComponentsEPNS_11MLIRContextESt8optionalINS_8LocationEENS_15ValueShapeRangeENS_14DictionaryAttrENS_11RegionRangeERN4llvm15SmallVectorImplINS_20ShapedTypeComponentsEEE
FN:299,_ZN4mlir4chlo14BroadcastAddOp21reifyReturnTypeShapesERNS_9OpBuilderENS_10ValueRangeERN4llvm15SmallVectorImplINS_5ValueEEE
FNDA:16,_ZN4mlir4chlo14BroadcastAddOp21reifyReturnTypeShapesERNS_9OpBuilderENS_10ValueRangeERN4llvm15SmallVectorImplINS_5ValueEEE
FN:300,_ZN4mlir4chlo14BroadcastAndOp25inferReturnTypeComponentsEPNS_11MLIRContextESt8optionalINS_8LocationEENS_15ValueShapeRangeENS_14DictionaryAttrENS_11RegionRangeERN4llvm15SmallVectorImplINS_20ShapedTypeComponentsEEE
FNDA:72,_ZN4mlir4chlo14BroadcastAndOp25inferReturnTypeComponentsEPNS_11MLIRContextESt8optionalINS_8LocationEENS_15ValueShapeRangeENS_14DictionaryAttrENS_11RegionRangeERN4llvm15SmallVectorImplINS_20ShapedTypeComponentsEEE
FN:300,_ZN4mlir4chlo14BroadcastAndOp21reifyReturnTypeShapesERNS_9OpBuilderENS_10ValueRangeERN4llvm15SmallVectorImplINS_5ValueEEE
FNDA:0,_ZN4mlir4chlo14BroadcastAndOp21reifyReturnTypeShapesERNS_9OpBuilderENS_10ValueRangeERN4llvm15SmallVectorImplINS_5ValueEEE
FN:301,_ZN4mlir4chlo16BroadcastAtan2Op25inferReturnTypeComponentsEPNS_11MLIRContextESt8optionalINS_8LocationEENS_15ValueShapeRangeENS_14DictionaryAttrENS_11RegionRangeERN4llvm15SmallVectorImplINS_20ShapedTypeComponentsEEE
FNDA:72,_ZN4mlir4chlo16BroadcastAtan2Op25inferReturnTypeComponentsEPNS_11MLIRContextESt8optionalINS_8LocationEENS_15ValueShapeRangeENS_14DictionaryAttrENS_11RegionRangeERN4llvm15SmallVectorImplINS_20ShapedTypeComponentsEEE
FN:301,_ZN4mlir4chlo16BroadcastAtan2Op21reifyReturnTypeShapesERNS_9OpBuilderENS_10ValueRangeERN4llvm15SmallVectorImplINS_5ValueEEE
FNDA:0,_ZN4mlir4chlo16BroadcastAtan2Op21reifyReturnTypeShapesERNS_9OpBuilderENS_10ValueRangeERN4llvm15SmallVectorImplINS_5ValueEEE
FN:302,_ZN4mlir4chlo14BroadcastDivOp25inferReturnTypeComponentsEPNS_11MLIRContextESt8optionalINS_8LocationEENS_15ValueShapeRangeENS_14DictionaryAttrENS_11RegionRangeERN4llvm15SmallVectorImplINS_20ShapedTypeComponentsEEE
FNDA:72,_ZN4mlir4chlo14BroadcastDivOp25inferReturnTypeComponentsEPNS_11MLIRContextESt8optionalINS_8LocationEENS_15ValueShapeRangeENS_14DictionaryAttrENS_11RegionRangeERN4llvm15SmallVectorImplINS_20ShapedTypeComponentsEEE
FN:302,_ZN4mlir4chlo14BroadcastDivOp21reifyReturnTypeShapesERNS_9OpBuilderENS_10ValueRangeERN4llvm15SmallVectorImplINS_5ValueEEE
FNDA:0,_ZN4mlir4chlo14BroadcastDivOp21reifyReturnTypeShapesERNS_9OpBuilderENS_10ValueRangeERN4llvm15SmallVectorImplINS_5ValueEEE
FN:303,_ZN4mlir4chlo14BroadcastMaxOp25inferReturnTypeComponentsEPNS_11MLIRContextESt8optionalINS_8LocationEENS_15ValueShapeRangeENS_14DictionaryAttrENS_11RegionRangeERN4llvm15SmallVectorImplINS_20ShapedTypeComponentsEEE
FNDA:72,_ZN4mlir4chlo14BroadcastMaxOp25inferReturnTypeComponentsEPNS_11MLIRContextESt8optionalINS_8LocationEENS_15ValueShapeRangeENS_14DictionaryAttrENS_11RegionRangeERN4llvm15SmallVectorImplINS_20ShapedTypeComponentsEEE
FN:303,_ZN4mlir4chlo14BroadcastMaxOp21reifyReturnTypeShapesERNS_9OpBuilderENS_10ValueRangeERN4llvm15SmallVectorImplINS_5ValueEEE
FNDA:0,_ZN4mlir4chlo14BroadcastMaxOp21reifyReturnTypeShapesERNS_9OpBuilderENS_10ValueRangeERN4llvm15SmallVectorImplINS_5ValueEEE
FN:304,_ZN4mlir4chlo14BroadcastMinOp25inferReturnTypeComponentsEPNS_11MLIRContextESt8optionalINS_8LocationEENS_15ValueShapeRangeENS_14DictionaryAttrENS_11RegionRangeERN4llvm15SmallVectorImplINS_20ShapedTypeComponentsEEE
FNDA:72,_ZN4mlir4chlo14BroadcastMinOp25inferReturnTypeComponentsEPNS_11MLIRContextESt8optionalINS_8LocationEENS_15ValueShapeRangeENS_14DictionaryAttrENS_11RegionRangeERN4llvm15SmallVectorImplINS_20ShapedTypeComponentsEEE
FN:304,_ZN4mlir4chlo14BroadcastMinOp21reifyReturnTypeShapesERNS_9OpBuilderENS_10ValueRangeERN4llvm15SmallVectorImplINS_5ValueEEE
FNDA:0,_ZN4mlir4chlo14BroadcastMinOp21reifyReturnTypeShapesERNS_9OpBuilderENS_10ValueRangeERN4llvm15SmallVectorImplINS_5ValueEEE
FN:305,_ZN4mlir4chlo14BroadcastMulOp25inferReturnTypeComponentsEPNS_11MLIRContextESt8optionalINS_8LocationEENS_15ValueShapeRangeENS_14DictionaryAttrENS_11RegionRangeERN4llvm15SmallVectorImplINS_20ShapedTypeComponentsEEE
FNDA:88,_ZN4mlir4chlo14BroadcastMulOp25inferReturnTypeComponentsEPNS_11MLIRContextESt8optionalINS_8LocationEENS_15ValueShapeRangeENS_14DictionaryAttrENS_11RegionRangeERN4llvm15SmallVectorImplINS_20ShapedTypeComponentsEEE
FN:305,_ZN4mlir4chlo14BroadcastMulOp21reifyReturnTypeShapesERNS_9OpBuilderENS_10ValueRangeERN4llvm15SmallVectorImplINS_5ValueEEE
FNDA:0,_ZN4mlir4chlo14BroadcastMulOp21reifyReturnTypeShapesERNS_9OpBuilderENS_10ValueRangeERN4llvm15SmallVectorImplINS_5ValueEEE
FN:306,_ZN4mlir4chlo20BroadcastNextAfterOp25inferReturnTypeComponentsEPNS_11MLIRContextESt8optionalINS_8LocationEENS_15ValueShapeRangeENS_14DictionaryAttrENS_11RegionRangeERN4llvm15SmallVectorImplINS_20ShapedTypeComponentsEEE
FNDA:72,_ZN4mlir4chlo20BroadcastNextAfterOp25inferReturnTypeComponentsEPNS_11MLIRContextESt8optionalINS_8LocationEENS_15ValueShapeRangeENS_14DictionaryAttrENS_11RegionRangeERN4llvm15SmallVectorImplINS_20ShapedTypeComponentsEEE
FN:306,_ZN4mlir4chlo20BroadcastNextAfterOp21reifyReturnTypeShapesERNS_9OpBuilderENS_10ValueRangeERN4llvm15SmallVectorImplINS_5ValueEEE
FNDA:0,_ZN4mlir4chlo20BroadcastNextAfterOp21reifyReturnTypeShapesERNS_9OpBuilderENS_10ValueRangeERN4llvm15SmallVectorImplINS_5ValueEEE
FN:307,_ZN4mlir4chlo13BroadcastOrOp25inferReturnTypeComponentsEPNS_11MLIRContextESt8optionalINS_8LocationEENS_15ValueShapeRangeENS_14DictionaryAttrENS_11RegionRangeERN4llvm15SmallVectorImplINS_20ShapedTypeComponentsEEE
FNDA:72,_ZN4mlir4chlo13BroadcastOrOp25inferReturnTypeComponentsEPNS_11MLIRContextESt8optionalINS_8LocationEENS_15ValueShapeRangeENS_14DictionaryAttrENS_11RegionRangeERN4llvm15SmallVectorImplINS_20ShapedTypeComponentsEEE
FN:307,_ZN4mlir4chlo13BroadcastOrOp21reifyReturnTypeShapesERNS_9OpBuilderENS_10ValueRangeERN4llvm15SmallVectorImplINS_5ValueEEE
FNDA:0,_ZN4mlir4chlo13BroadcastOrOp21reifyReturnTypeShapesERNS_9OpBuilderENS_10ValueRangeERN4llvm15SmallVectorImplINS_5ValueEEE
FN:308,_ZN4mlir4chlo20BroadcastPolygammaOp25inferReturnTypeComponentsEPNS_11MLIRContextESt8optionalINS_8LocationEENS_15ValueShapeRangeENS_14DictionaryAttrENS_11RegionRangeERN4llvm15SmallVectorImplINS_20ShapedTypeComponentsEEE
FNDA:72,_ZN4mlir4chlo20BroadcastPolygammaOp25inferReturnTypeComponentsEPNS_11MLIRContextESt8optionalINS_8LocationEENS_15ValueShapeRangeENS_14DictionaryAttrENS_11RegionRangeERN4llvm15SmallVectorImplINS_20ShapedTypeComponentsEEE
FN:308,_ZN4mlir4chlo20BroadcastPolygammaOp21reifyReturnTypeShapesERNS_9OpBuilderENS_10ValueRangeERN4llvm15SmallVectorImplINS_5ValueEEE
FNDA:0,_ZN4mlir4chlo20BroadcastPolygammaOp21reifyReturnTypeShapesERNS_9OpBuilderENS_10ValueRangeERN4llvm15SmallVectorImplINS_5ValueEEE
FN:309,_ZN4mlir4chlo14BroadcastPowOp25inferReturnTypeComponentsEPNS_11MLIRContextESt8optionalINS_8LocationEENS_15ValueShapeRangeENS_14DictionaryAttrENS_11RegionRangeERN4llvm15SmallVectorImplINS_20ShapedTypeComponentsEEE
FNDA:72,_ZN4mlir4chlo14BroadcastPowOp25inferReturnTypeComponentsEPNS_11MLIRContextESt8optionalINS_8LocationEENS_15ValueShapeRangeENS_14DictionaryAttrENS_11RegionRangeERN4llvm15SmallVectorImplINS_20ShapedTypeComponentsEEE
FN:309,_ZN4mlir4chlo14BroadcastPowOp21reifyReturnTypeShapesERNS_9OpBuilderENS_10ValueRangeERN4llvm15SmallVectorImplINS_5ValueEEE
FNDA:0,_ZN4mlir4chlo14BroadcastPowOp21reifyReturnTypeShapesERNS_9OpBuilderENS_10ValueRangeERN4llvm15SmallVectorImplINS_5ValueEEE
FN:310,_ZN4mlir4chlo14BroadcastRemOp25inferReturnTypeComponentsEPNS_11MLIRContextESt8optionalINS_8LocationEENS_15ValueShapeRangeENS_14DictionaryAttrENS_11RegionRangeERN4llvm15SmallVectorImplINS_20ShapedTypeComponentsEEE
FNDA:72,_ZN4mlir4chlo14BroadcastRemOp25inferReturnTypeComponentsEPNS_11MLIRContextESt8optionalINS_8LocationEENS_15ValueShapeRangeENS_14DictionaryAttrENS_11RegionRangeERN4llvm15SmallVectorImplINS_20ShapedTypeComponentsEEE
FN:310,_ZN4mlir4chlo14BroadcastRemOp21reifyReturnTypeShapesERNS_9OpBuilderENS_10ValueRangeERN4llvm15SmallVectorImplINS_5ValueEEE
FNDA:0,_ZN4mlir4chlo14BroadcastRemOp21reifyReturnTypeShapesERNS_9OpBuilderENS_10ValueRangeERN4llvm15SmallVectorImplINS_5ValueEEE
FN:311,_ZN4mlir4chlo20BroadcastShiftLeftOp25inferReturnTypeComponentsEPNS_11MLIRContextESt8optionalINS_8LocationEENS_15ValueShapeRangeENS_14DictionaryAttrENS_11RegionRangeERN4llvm15SmallVectorImplINS_20ShapedTypeComponentsEEE
FNDA:72,_ZN4mlir4chlo20BroadcastShiftLeftOp25inferReturnTypeComponentsEPNS_11MLIRContextESt8optionalINS_8LocationEENS_15ValueShapeRangeENS_14DictionaryAttrENS_11RegionRangeERN4llvm15SmallVectorImplINS_20ShapedTypeComponentsEEE
FN:311,_ZN4mlir4chlo20BroadcastShiftLeftOp21reifyReturnTypeShapesERNS_9OpBuilderENS_10ValueRangeERN4llvm15SmallVectorImplINS_5ValueEEE
FNDA:0,_ZN4mlir4chlo20BroadcastShiftLeftOp21reifyReturnTypeShapesERNS_9OpBuilderENS_10ValueRangeERN4llvm15SmallVectorImplINS_5ValueEEE
FN:312,_ZN4mlir4chlo31BroadcastShiftRightArithmeticOp25inferReturnTypeComponentsEPNS_11MLIRContextESt8optionalINS_8LocationEENS_15ValueShapeRangeENS_14DictionaryAttrENS_11RegionRangeERN4llvm15SmallVectorImplINS_20ShapedTypeComponentsEEE
FNDA:72,_ZN4mlir4chlo31BroadcastShiftRightArithmeticOp25inferReturnTypeComponentsEPNS_11MLIRContextESt8optionalINS_8LocationEENS_15ValueShapeRangeENS_14DictionaryAttrENS_11RegionRangeERN4llvm15SmallVectorImplINS_20ShapedTypeComponentsEEE
FN:312,_ZN4mlir4chlo31BroadcastShiftRightArithmeticOp21reifyReturnTypeShapesERNS_9OpBuilderENS_10ValueRangeERN4llvm15SmallVectorImplINS_5ValueEEE
FNDA:0,_ZN4mlir4chlo31BroadcastShiftRightArithmeticOp21reifyReturnTypeShapesERNS_9OpBuilderENS_10ValueRangeERN4llvm15SmallVectorImplINS_5ValueEEE
FN:313,_ZN4mlir4chlo28BroadcastShiftRightLogicalOp25inferReturnTypeComponentsEPNS_11MLIRContextESt8optionalINS_8LocationEENS_15ValueShapeRangeENS_14DictionaryAttrENS_11RegionRangeERN4llvm15SmallVectorImplINS_20ShapedTypeComponentsEEE
FNDA:72,_ZN4mlir4chlo28BroadcastShiftRightLogicalOp25inferReturnTypeComponentsEPNS_11MLIRContextESt8optionalINS_8LocationEENS_15ValueShapeRangeENS_14DictionaryAttrENS_11RegionRangeERN4llvm15SmallVectorImplINS_20ShapedTypeComponentsEEE
FN:313,_ZN4mlir4chlo28BroadcastShiftRightLogicalOp21reifyReturnTypeShapesERNS_9OpBuilderENS_10ValueRangeERN4llvm15SmallVectorImplINS_5ValueEEE
FNDA:0,_ZN4mlir4chlo28BroadcastShiftRightLogicalOp21reifyReturnTypeShapesERNS_9OpBuilderENS_10ValueRangeERN4llvm15SmallVectorImplINS_5ValueEEE
FN:314,_ZN4mlir4chlo14BroadcastSubOp25inferReturnTypeComponentsEPNS_11MLIRContextESt8optionalINS_8LocationEENS_15ValueShapeRangeENS_14DictionaryAttrENS_11RegionRangeERN4llvm15SmallVectorImplINS_20ShapedTypeComponentsEEE
FNDA:72,_ZN4mlir4chlo14BroadcastSubOp25inferReturnTypeComponentsEPNS_11MLIRContextESt8optionalINS_8LocationEENS_15ValueShapeRangeENS_14DictionaryAttrENS_11RegionRangeERN4llvm15SmallVectorImplINS_20ShapedTypeComponentsEEE
FN:314,_ZN4mlir4chlo14BroadcastSubOp21reifyReturnTypeShapesERNS_9OpBuilderENS_10ValueRangeERN4llvm15SmallVectorImplINS_5ValueEEE
FNDA:0,_ZN4mlir4chlo14BroadcastSubOp21reifyReturnTypeShapesERNS_9OpBuilderENS_10ValueRangeERN4llvm15SmallVectorImplINS_5ValueEEE
FN:315,_ZN4mlir4chlo14BroadcastXorOp25inferReturnTypeComponentsEPNS_11MLIRContextESt8optionalINS_8LocationEENS_15ValueShapeRangeENS_14DictionaryAttrENS_11RegionRangeERN4llvm15SmallVectorImplINS_20ShapedTypeComponentsEEE
FNDA:72,_ZN4mlir4chlo14BroadcastXorOp25inferReturnTypeComponentsEPNS_11MLIRContextESt8optionalINS_8LocationEENS_15ValueShapeRangeENS_14DictionaryAttrENS_11RegionRangeERN4llvm15SmallVectorImplINS_20ShapedTypeComponentsEEE
FN:315,_ZN4mlir4chlo14BroadcastXorOp21reifyReturnTypeShapesERNS_9OpBuilderENS_10ValueRangeERN4llvm15SmallVectorImplINS_5ValueEEE
FNDA:0,_ZN4mlir4chlo14BroadcastXorOp21reifyReturnTypeShapesERNS_9OpBuilderENS_10ValueRangeERN4llvm15SmallVectorImplINS_5ValueEEE
FN:316,_ZN4mlir4chlo15BroadcastZetaOp25inferReturnTypeComponentsEPNS_11MLIRContextESt8optionalINS_8LocationEENS_15ValueShapeRangeENS_14DictionaryAttrENS_11RegionRangeERN4llvm15SmallVectorImplINS_20ShapedTypeComponentsEEE
FNDA:72,_ZN4mlir4chlo15BroadcastZetaOp25inferReturnTypeComponentsEPNS_11MLIRContextESt8optionalINS_8LocationEENS_15ValueShapeRangeENS_14DictionaryAttrENS_11RegionRangeERN4llvm15SmallVectorImplINS_20ShapedTypeComponentsEEE
FN:316,_ZN4mlir4chlo15BroadcastZetaOp21reifyReturnTypeShapesERNS_9OpBuilderENS_10ValueRangeERN4llvm15SmallVectorImplINS_5ValueEEE
FNDA:0,_ZN4mlir4chlo15BroadcastZetaOp21reifyReturnTypeShapesERNS_9OpBuilderENS_10ValueRangeERN4llvm15SmallVectorImplINS_5ValueEEE
FN:320,_ZN4mlir4chlo14ConstantLikeOp6verifyEv
FNDA:64,_ZN4mlir4chlo14ConstantLikeOp6verifyEv
FN:329,_ZN4mlir4chlo24MinimumBroadcastShapesOp6verifyEv
FNDA:104,_ZN4mlir4chlo24MinimumBroadcastShapesOp6verifyEv
FN:343,_ZN4mlir4chlo14ConstantLikeOp25inferReturnTypeComponentsEPNS_11MLIRContextESt8optionalINS_8LocationEENS_15ValueShapeRangeENS_14DictionaryAttrENS_11RegionRangeERN4llvm15SmallVectorImplINS_20ShapedTypeComponentsEEE
FNDA:72,_ZN4mlir4chlo14ConstantLikeOp25inferReturnTypeComponentsEPNS_11MLIRContextESt8optionalINS_8LocationEENS_15ValueShapeRangeENS_14DictionaryAttrENS_11RegionRangeERN4llvm15SmallVectorImplINS_20ShapedTypeComponentsEEE
FN:361,_ZN4mlir4chlo14ConstantLikeOp21reifyReturnTypeShapesERNS_9OpBuilderENS_10ValueRangeERN4llvm15SmallVectorImplINS_5ValueEEE
FNDA:8,_ZN4mlir4chlo14ConstantLikeOp21reifyReturnTypeShapesERNS_9OpBuilderENS_10ValueRangeERN4llvm15SmallVectorImplINS_5ValueEEE
FN:368,_ZN4mlir4chlo14ConstantLikeOp4foldENS0_28ConstantLikeOpGenericAdaptorIN4llvm8ArrayRefINS_9AttributeEEEEE
FNDA:32,_ZN4mlir4chlo14ConstantLikeOp4foldENS0_28ConstantLikeOpGenericAdaptorIN4llvm8ArrayRefINS_9AttributeEEEEE
FN:377,_ZN4mlir4chlo17BroadcastSelectOp25inferReturnTypeComponentsEPNS_11MLIRContextESt8optionalINS_8LocationEENS_15ValueShapeRangeENS_14DictionaryAttrENS_11RegionRangeERN4llvm15SmallVectorImplINS_20ShapedTypeComponentsEEE
FNDA:88,_ZN4mlir4chlo17BroadcastSelectOp25inferReturnTypeComponentsEPNS_11MLIRContextESt8optionalINS_8LocationEENS_15ValueShapeRangeENS_14DictionaryAttrENS_11RegionRangeERN4llvm15SmallVectorImplINS_20ShapedTypeComponentsEEE
FN:402,_ZN4mlir4chlo17BroadcastSelectOp21reifyReturnTypeShapesERNS_9OpBuilderENS_10ValueRangeERN4llvm15SmallVectorImplINS_5ValueEEE
FNDA:8,_ZN4mlir4chlo17BroadcastSelectOp21reifyReturnTypeShapesERNS_9OpBuilderENS_10ValueRangeERN4llvm15SmallVectorImplINS_5ValueEEE
FN:413,_ZN4mlir4chlo27RankSpecializationClusterOp19getSuccessorRegionsESt8optionalIjEN4llvm8ArrayRefINS_9AttributeEEERNS4_15SmallVectorImplINS_15RegionSuccessorEEE
FNDA:192,_ZN4mlir4chlo27RankSpecializationClusterOp19getSuccessorRegionsESt8optionalIjEN4llvm8ArrayRefINS_9AttributeEEERNS4_15SmallVectorImplINS_15RegionSuccessorEEE
FN:426,_ZN4mlir4chlo27RankSpecializationClusterOp6verifyEv
FNDA:112,_ZN4mlir4chlo27RankSpecializationClusterOp6verifyEv
FN:434,_ZZN4mlir4chlo27RankSpecializationClusterOp6verifyEvENK3$_2clERNS_9OpOperandE
FNDA:96,_ZZN4mlir4chlo27RankSpecializationClusterOp6verifyEvENK3$_2clERNS_9OpOperandE
FN:449,_ZN4mlir4chlo6TopKOp25inferReturnTypeComponentsEPNS_11MLIRContextESt8optionalINS_8LocationEENS_15ValueShapeRangeENS_14DictionaryAttrENS_11RegionRangeERN4llvm15SmallVectorImplINS_20ShapedTypeComponentsEEE
FNDA:136,_ZN4mlir4chlo6TopKOp25inferReturnTypeComponentsEPNS_11MLIRContextESt8optionalINS_8LocationEENS_15ValueShapeRangeENS_14DictionaryAttrENS_11RegionRangeERN4llvm15SmallVectorImplINS_20ShapedTypeComponentsEEE
FN:483,_ZN4mlir4chlo10ConstantOp4foldENS0_24ConstantOpGenericAdaptorIN4llvm8ArrayRefINS_9AttributeEEEEE
FNDA:48,_ZN4mlir4chlo10ConstantOp4foldENS0_24ConstantOpGenericAdaptorIN4llvm8ArrayRefINS_9AttributeEEEEE
FN:485,_ZN4mlir4chlo10ConstantOp16inferReturnTypesEPNS_11MLIRContextESt8optionalINS_8LocationEENS_10ValueRangeENS_14DictionaryAttrENS_11RegionRangeERN4llvm15SmallVectorImplINS_4TypeEEE
FNDA:32,_ZN4mlir4chlo10ConstantOp16inferReturnTypesEPNS_11MLIRContextESt8optionalINS_8LocationEENS_10ValueRangeENS_14DictionaryAttrENS_11RegionRangeERN4llvm15SmallVectorImplINS_4TypeEEE
FN:504,_ZN4mlir4chlo12_GLOBAL__N_127ChloDialectInlinerInterfaceD0Ev
FNDA:328,_ZN4mlir4chlo12_GLOBAL__N_127ChloDialectInlinerInterfaceD0Ev
FN:505,_ZN4mlir4chlo12_GLOBAL__N_127ChloDialectInlinerInterfaceCI2NS_23DialectInlinerInterfaceEEPNS_7DialectE
FNDA:328,_ZN4mlir4chlo12_GLOBAL__N_127ChloDialectInlinerInterfaceCI2NS_23DialectInlinerInterfaceEEPNS_7DialectE
FN:508,_ZNK4mlir4chlo12_GLOBAL__N_127ChloDialectInlinerInterface15isLegalToInlineEPNS_9OperationES4_b
FNDA:0,_ZNK4mlir4chlo12_GLOBAL__N_127ChloDialectInlinerInterface15isLegalToInlineEPNS_9OperationES4_b
FN:514,_ZNK4mlir4chlo12_GLOBAL__N_127ChloDialectInlinerInterface15isLegalToInlineEPNS_6RegionES4_bRNS_9IRMappingE
FNDA:0,_ZNK4mlir4chlo12_GLOBAL__N_127ChloDialectInlinerInterface15isLegalToInlineEPNS_6RegionES4_bRNS_9IRMappingE
FN:519,_ZNK4mlir4chlo12_GLOBAL__N_127ChloDialectInlinerInterface15isLegalToInlineEPNS_9OperationEPNS_6RegionEbRNS_9IRMappingE
FNDA:8,_ZNK4mlir4chlo12_GLOBAL__N_127ChloDialectInlinerInterface15isLegalToInlineEPNS_9OperationEPNS_6RegionEbRNS_9IRMappingE
FN:529,_ZN4mlir4chlo11ChloDialectC2EPNS_11MLIRContextE
FNDA:328,_ZN4mlir4chlo11ChloDialectC2EPNS_11MLIRContextE
FN:544,_ZN4mlir4chlo11ChloDialect19materializeConstantERNS_9OpBuilderENS_9AttributeENS_4TypeENS_8LocationE
FNDA:0,_ZN4mlir4chlo11ChloDialect19materializeConstantERNS_9OpBuilderENS_9AttributeENS_4TypeENS_8LocationE
FN:554,_ZNK4mlir4chlo11ChloDialect14parseAttributeERNS_16DialectAsmParserENS_4TypeE
FNDA:152,_ZNK4mlir4chlo11ChloDialect14parseAttributeERNS_16DialectAsmParserENS_4TypeE
FN:566,_ZNK4mlir4chlo11ChloDialect14printAttributeENS_9AttributeERNS_17DialectAsmPrinterE
FNDA:176,_ZNK4mlir4chlo11ChloDialect14printAttributeENS_9AttributeERNS_17DialectAsmPrinterE
DA:57,0
DA:58,0
DA:59,0
DA:60,0
DA:61,0
DA:62,0
DA:63,0
DA:64,0
DA:65,0
DA:66,0
DA:67,0
DA:68,0
DA:69,0
DA:70,0
DA:71,0
DA:72,0
DA:73,0
DA:74,0
DA:82,2023
DA:84,2023
DA:85,2023
DA:86,2023
DA:87,2023
DA:89,1987
DA:90,1987
DA:93,1987
DA:94,1955
DA:95,1955
DA:97,0
DA:99,1955
DA:100,1955
DA:102,32
DA:103,32
DA:105,32
DA:106,32
DA:108,0
DA:110,32
DA:111,32
DA:112,64
DA:113,32
DA:114,32
DA:115,32
DA:116,32
DA:117,64
DA:118,32
DA:120,0
DA:123,32
DA:124,64
DA:125,32
DA:126,32
DA:127,32
DA:129,32
DA:130,2043
DA:132,1890
DA:135,1890
DA:137,1890
DA:138,3780
DA:139,1890
DA:141,1890
DA:142,1890
DA:143,1890
DA:144,1887
DA:145,8
DA:146,1878
DA:147,3756
DA:148,1878
DA:149,1878
DA:150,1886
DA:152,40
DA:154,40
DA:155,40
DA:156,40
DA:157,40
DA:158,40
DA:161,80
DA:162,40
DA:163,40
DA:164,8
DA:172,16
DA:173,8
DA:174,8
DA:177,64
DA:178,32
DA:179,32
DA:180,40
DA:187,120
DA:191,120
DA:192,120
DA:193,120
DA:194,120
DA:195,240
DA:196,120
DA:197,120
DA:198,120
DA:199,8
DA:201,8
DA:202,16
DA:203,8
DA:210,0
DA:214,0
DA:215,0
DA:216,0
DA:217,0
DA:218,0
DA:219,0
DA:221,280
DA:225,280
DA:226,280
DA:227,560
DA:228,280
DA:229,280
DA:230,280
DA:232,16
DA:234,16
DA:235,32
DA:236,16
DA:243,96
DA:244,96
DA:245,192
DA:246,96
DA:247,96
DA:249,32
DA:251,32
DA:252,32
DA:253,32
DA:260,32
DA:262,32
DA:263,32
DA:264,32
DA:271,32
DA:273,32
DA:274,32
DA:275,32
DA:299,296
DA:300,72
DA:301,72
DA:302,72
DA:303,72
DA:304,72
DA:305,88
DA:306,72
DA:307,72
DA:308,72
DA:309,72
DA:310,72
DA:311,72
DA:312,72
DA:313,72
DA:314,72
DA:315,72
DA:316,72
DA:320,64
DA:321,64
DA:322,8
DA:323,56
DA:324,64
DA:329,104
DA:331,104
DA:332,104
DA:333,104
DA:334,16
DA:335,8
DA:336,8
DA:337,96
DA:338,16
DA:339,8
DA:340,88
DA:341,104
DA:343,72
DA:347,72
DA:348,72
DA:349,72
DA:350,72
DA:351,72
DA:352,72
DA:353,32
DA:354,32
DA:355,40
DA:356,40
DA:357,40
DA:358,72
DA:359,72
DA:361,8
DA:363,8
DA:364,16
DA:365,8
DA:368,32
DA:369,32
DA:370,32
DA:371,0
DA:372,0
DA:373,0
DA:374,0
DA:375,32
DA:377,88
DA:380,88
DA:381,88
DA:382,88
DA:383,88
DA:384,88
DA:386,88
DA:387,88
DA:388,8
DA:390,80
DA:393,160
DA:394,80
DA:395,80
DA:396,160
DA:397,80
DA:398,80
DA:399,80
DA:400,88
DA:402,8
DA:403,8
DA:404,16
DA:405,8
DA:406,8
DA:413,192
DA:415,192
DA:419,192
DA:420,96
DA:421,96
DA:423,96
DA:424,192
DA:426,112
DA:427,112
DA:428,112
DA:429,8
DA:433,152
DA:434,144
DA:435,96
DA:436,96
DA:437,72
DA:438,96
DA:439,8
DA:440,48
DA:442,96
DA:443,112
DA:449,136
DA:452,136
DA:453,136
DA:454,136
DA:455,136
DA:456,136
DA:458,136
DA:459,136
DA:460,128
DA:461,8
DA:462,120
DA:463,120
DA:464,8
DA:466,112
DA:467,8
DA:470,104
DA:471,104
DA:472,104
DA:474,104
DA:475,104
DA:476,104
DA:477,136
DA:483,48
DA:485,32
DA:488,32
DA:489,32
DA:490,32
DA:491,32
DA:492,32
DA:508,0
DA:509,0
DA:510,0
DA:514,0
DA:515,0
DA:516,0
DA:519,8
DA:520,8
DA:529,328
DA:530,328
DA:531,328
DA:535,328
DA:536,328
DA:541,328
DA:542,328
DA:544,0
DA:545,0
DA:546,0
DA:547,0
DA:548,0
DA:549,0
DA:550,0
DA:554,152
DA:555,152
DA:556,152
DA:557,152
DA:558,152
DA:559,152
DA:560,0
DA:561,0
DA:562,152
DA:566,176
DA:567,176
DA:569,176
DA:570,176
end_of_record
SF:/usr/local/google/home/gleasonk/Coding/openxla/stablehlo/stablehlo/dialect/ChloOps.h
FN:48,_ZN4mlir4chlo11ChloDialectD0Ev
FNDA:328,_ZN4mlir4chlo11ChloDialectD0Ev
FN:51,_ZN4mlir4chlo11ChloDialect19getDialectNamespaceEv
FNDA:328,_ZN4mlir4chlo11ChloDialect19getDialectNamespaceEv
DA:51,328
end_of_record
SF:/usr/local/google/home/gleasonk/Coding/openxla/stablehlo/stablehlo/dialect/Base.h
FN:225,_ZN4mlir3hlo7OpTrait31CompatibleOperandsAndResultTypeINS_4chlo6AcosOpEE11verifyTraitEPNS_9OperationE
FNDA:96,_ZN4mlir3hlo7OpTrait31CompatibleOperandsAndResultTypeINS_4chlo6AcosOpEE11verifyTraitEPNS_9OperationE
FN:225,_ZN4mlir3hlo7OpTrait31CompatibleOperandsAndResultTypeINS_4chlo7AcoshOpEE11verifyTraitEPNS_9OperationE
FNDA:96,_ZN4mlir3hlo7OpTrait31CompatibleOperandsAndResultTypeINS_4chlo7AcoshOpEE11verifyTraitEPNS_9OperationE
FN:225,_ZN4mlir3hlo7OpTrait31CompatibleOperandsAndResultTypeINS_4chlo6AsinOpEE11verifyTraitEPNS_9OperationE
FNDA:96,_ZN4mlir3hlo7OpTrait31CompatibleOperandsAndResultTypeINS_4chlo6AsinOpEE11verifyTraitEPNS_9OperationE
FN:225,_ZN4mlir3hlo7OpTrait31CompatibleOperandsAndResultTypeINS_4chlo7AsinhOpEE11verifyTraitEPNS_9OperationE
FNDA:96,_ZN4mlir3hlo7OpTrait31CompatibleOperandsAndResultTypeINS_4chlo7AsinhOpEE11verifyTraitEPNS_9OperationE
FN:225,_ZN4mlir3hlo7OpTrait31CompatibleOperandsAndResultTypeINS_4chlo6AtanOpEE11verifyTraitEPNS_9OperationE
FNDA:96,_ZN4mlir3hlo7OpTrait31CompatibleOperandsAndResultTypeINS_4chlo6AtanOpEE11verifyTraitEPNS_9OperationE
FN:225,_ZN4mlir3hlo7OpTrait31CompatibleOperandsAndResultTypeINS_4chlo7AtanhOpEE11verifyTraitEPNS_9OperationE
FNDA:96,_ZN4mlir3hlo7OpTrait31CompatibleOperandsAndResultTypeINS_4chlo7AtanhOpEE11verifyTraitEPNS_9OperationE
FN:225,_ZN4mlir3hlo7OpTrait31CompatibleOperandsAndResultTypeINS_4chlo11BesselI1eOpEE11verifyTraitEPNS_9OperationE
FNDA:96,_ZN4mlir3hlo7OpTrait31CompatibleOperandsAndResultTypeINS_4chlo11BesselI1eOpEE11verifyTraitEPNS_9OperationE
FN:225,_ZN4mlir3hlo7OpTrait31CompatibleOperandsAndResultTypeINS_4chlo6ConjOpEE11verifyTraitEPNS_9OperationE
FNDA:96,_ZN4mlir3hlo7OpTrait31CompatibleOperandsAndResultTypeINS_4chlo6ConjOpEE11verifyTraitEPNS_9OperationE
FN:225,_ZN4mlir3hlo7OpTrait31CompatibleOperandsAndResultTypeINS_4chlo6CoshOpEE11verifyTraitEPNS_9OperationE
FNDA:96,_ZN4mlir3hlo7OpTrait31CompatibleOperandsAndResultTypeINS_4chlo6CoshOpEE11verifyTraitEPNS_9OperationE
FN:225,_ZN4mlir3hlo7OpTrait31CompatibleOperandsAndResultTypeINS_4chlo9DigammaOpEE11verifyTraitEPNS_9OperationE
FNDA:96,_ZN4mlir3hlo7OpTrait31CompatibleOperandsAndResultTypeINS_4chlo9DigammaOpEE11verifyTraitEPNS_9OperationE
FN:225,_ZN4mlir3hlo7OpTrait31CompatibleOperandsAndResultTypeINS_4chlo5ErfOpEE11verifyTraitEPNS_9OperationE
FNDA:96,_ZN4mlir3hlo7OpTrait31CompatibleOperandsAndResultTypeINS_4chlo5ErfOpEE11verifyTraitEPNS_9OperationE
FN:225,_ZN4mlir3hlo7OpTrait31CompatibleOperandsAndResultTypeINS_4chlo6ErfcOpEE11verifyTraitEPNS_9OperationE
FNDA:96,_ZN4mlir3hlo7OpTrait31CompatibleOperandsAndResultTypeINS_4chlo6ErfcOpEE11verifyTraitEPNS_9OperationE
FN:225,_ZN4mlir3hlo7OpTrait31CompatibleOperandsAndResultTypeINS_4chlo8LgammaOpEE11verifyTraitEPNS_9OperationE
FNDA:96,_ZN4mlir3hlo7OpTrait31CompatibleOperandsAndResultTypeINS_4chlo8LgammaOpEE11verifyTraitEPNS_9OperationE
FN:225,_ZN4mlir3hlo7OpTrait31CompatibleOperandsAndResultTypeINS_4chlo11NextAfterOpEE11verifyTraitEPNS_9OperationE
FNDA:96,_ZN4mlir3hlo7OpTrait31CompatibleOperandsAndResultTypeINS_4chlo11NextAfterOpEE11verifyTraitEPNS_9OperationE
FN:225,_ZN4mlir3hlo7OpTrait31CompatibleOperandsAndResultTypeINS_4chlo11PolygammaOpEE11verifyTraitEPNS_9OperationE
FNDA:96,_ZN4mlir3hlo7OpTrait31CompatibleOperandsAndResultTypeINS_4chlo11PolygammaOpEE11verifyTraitEPNS_9OperationE
FN:225,_ZN4mlir3hlo7OpTrait31CompatibleOperandsAndResultTypeINS_4chlo6SinhOpEE11verifyTraitEPNS_9OperationE
FNDA:96,_ZN4mlir3hlo7OpTrait31CompatibleOperandsAndResultTypeINS_4chlo6SinhOpEE11verifyTraitEPNS_9OperationE
FN:225,_ZN4mlir3hlo7OpTrait31CompatibleOperandsAndResultTypeINS_4chlo5TanOpEE11verifyTraitEPNS_9OperationE
FNDA:96,_ZN4mlir3hlo7OpTrait31CompatibleOperandsAndResultTypeINS_4chlo5TanOpEE11verifyTraitEPNS_9OperationE
FN:225,_ZN4mlir3hlo7OpTrait31CompatibleOperandsAndResultTypeINS_4chlo6ZetaOpEE11verifyTraitEPNS_9OperationE
FNDA:96,_ZN4mlir3hlo7OpTrait31CompatibleOperandsAndResultTypeINS_4chlo6ZetaOpEE11verifyTraitEPNS_9OperationE
FN:231,_ZZN4mlir3hlo7OpTrait31CompatibleOperandsAndResultTypeINS_4chlo6AcosOpEE11verifyTraitEPNS_9OperationEENKUlNS_4TypeEE_clES8_
FNDA:192,_ZZN4mlir3hlo7OpTrait31CompatibleOperandsAndResultTypeINS_4chlo6AcosOpEE11verifyTraitEPNS_9OperationEENKUlNS_4TypeEE_clES8_
FN:231,_ZZN4mlir3hlo7OpTrait31CompatibleOperandsAndResultTypeINS_4chlo7AcoshOpEE11verifyTraitEPNS_9OperationEENKUlNS_4TypeEE_clES8_
FNDA:192,_ZZN4mlir3hlo7OpTrait31CompatibleOperandsAndResultTypeINS_4chlo7AcoshOpEE11verifyTraitEPNS_9OperationEENKUlNS_4TypeEE_clES8_
FN:231,_ZZN4mlir3hlo7OpTrait31CompatibleOperandsAndResultTypeINS_4chlo6AsinOpEE11verifyTraitEPNS_9OperationEENKUlNS_4TypeEE_clES8_
FNDA:192,_ZZN4mlir3hlo7OpTrait31CompatibleOperandsAndResultTypeINS_4chlo6AsinOpEE11verifyTraitEPNS_9OperationEENKUlNS_4TypeEE_clES8_
FN:231,_ZZN4mlir3hlo7OpTrait31CompatibleOperandsAndResultTypeINS_4chlo7AsinhOpEE11verifyTraitEPNS_9OperationEENKUlNS_4TypeEE_clES8_
FNDA:192,_ZZN4mlir3hlo7OpTrait31CompatibleOperandsAndResultTypeINS_4chlo7AsinhOpEE11verifyTraitEPNS_9OperationEENKUlNS_4TypeEE_clES8_
FN:231,_ZZN4mlir3hlo7OpTrait31CompatibleOperandsAndResultTypeINS_4chlo6AtanOpEE11verifyTraitEPNS_9OperationEENKUlNS_4TypeEE_clES8_
FNDA:192,_ZZN4mlir3hlo7OpTrait31CompatibleOperandsAndResultTypeINS_4chlo6AtanOpEE11verifyTraitEPNS_9OperationEENKUlNS_4TypeEE_clES8_
FN:231,_ZZN4mlir3hlo7OpTrait31CompatibleOperandsAndResultTypeINS_4chlo7AtanhOpEE11verifyTraitEPNS_9OperationEENKUlNS_4TypeEE_clES8_
FNDA:192,_ZZN4mlir3hlo7OpTrait31CompatibleOperandsAndResultTypeINS_4chlo7AtanhOpEE11verifyTraitEPNS_9OperationEENKUlNS_4TypeEE_clES8_
FN:231,_ZZN4mlir3hlo7OpTrait31CompatibleOperandsAndResultTypeINS_4chlo11BesselI1eOpEE11verifyTraitEPNS_9OperationEENKUlNS_4TypeEE_clES8_
FNDA:192,_ZZN4mlir3hlo7OpTrait31CompatibleOperandsAndResultTypeINS_4chlo11BesselI1eOpEE11verifyTraitEPNS_9OperationEENKUlNS_4TypeEE_clES8_
FN:231,_ZZN4mlir3hlo7OpTrait31CompatibleOperandsAndResultTypeINS_4chlo6ConjOpEE11verifyTraitEPNS_9OperationEENKUlNS_4TypeEE_clES8_
FNDA:192,_ZZN4mlir3hlo7OpTrait31CompatibleOperandsAndResultTypeINS_4chlo6ConjOpEE11verifyTraitEPNS_9OperationEENKUlNS_4TypeEE_clES8_
FN:231,_ZZN4mlir3hlo7OpTrait31CompatibleOperandsAndResultTypeINS_4chlo6CoshOpEE11verifyTraitEPNS_9OperationEENKUlNS_4TypeEE_clES8_
FNDA:192,_ZZN4mlir3hlo7OpTrait31CompatibleOperandsAndResultTypeINS_4chlo6CoshOpEE11verifyTraitEPNS_9OperationEENKUlNS_4TypeEE_clES8_
FN:231,_ZZN4mlir3hlo7OpTrait31CompatibleOperandsAndResultTypeINS_4chlo9DigammaOpEE11verifyTraitEPNS_9OperationEENKUlNS_4TypeEE_clES8_
FNDA:192,_ZZN4mlir3hlo7OpTrait31CompatibleOperandsAndResultTypeINS_4chlo9DigammaOpEE11verifyTraitEPNS_9OperationEENKUlNS_4TypeEE_clES8_
FN:231,_ZZN4mlir3hlo7OpTrait31CompatibleOperandsAndResultTypeINS_4chlo5ErfOpEE11verifyTraitEPNS_9OperationEENKUlNS_4TypeEE_clES8_
FNDA:192,_ZZN4mlir3hlo7OpTrait31CompatibleOperandsAndResultTypeINS_4chlo5ErfOpEE11verifyTraitEPNS_9OperationEENKUlNS_4TypeEE_clES8_
FN:231,_ZZN4mlir3hlo7OpTrait31CompatibleOperandsAndResultTypeINS_4chlo6ErfcOpEE11verifyTraitEPNS_9OperationEENKUlNS_4TypeEE_clES8_
FNDA:192,_ZZN4mlir3hlo7OpTrait31CompatibleOperandsAndResultTypeINS_4chlo6ErfcOpEE11verifyTraitEPNS_9OperationEENKUlNS_4TypeEE_clES8_
FN:231,_ZZN4mlir3hlo7OpTrait31CompatibleOperandsAndResultTypeINS_4chlo8LgammaOpEE11verifyTraitEPNS_9OperationEENKUlNS_4TypeEE_clES8_
FNDA:192,_ZZN4mlir3hlo7OpTrait31CompatibleOperandsAndResultTypeINS_4chlo8LgammaOpEE11verifyTraitEPNS_9OperationEENKUlNS_4TypeEE_clES8_
FN:231,_ZZN4mlir3hlo7OpTrait31CompatibleOperandsAndResultTypeINS_4chlo11NextAfterOpEE11verifyTraitEPNS_9OperationEENKUlNS_4TypeEE_clES8_
FNDA:288,_ZZN4mlir3hlo7OpTrait31CompatibleOperandsAndResultTypeINS_4chlo11NextAfterOpEE11verifyTraitEPNS_9OperationEENKUlNS_4TypeEE_clES8_
FN:231,_ZZN4mlir3hlo7OpTrait31CompatibleOperandsAndResultTypeINS_4chlo11PolygammaOpEE11verifyTraitEPNS_9OperationEENKUlNS_4TypeEE_clES8_
FNDA:288,_ZZN4mlir3hlo7OpTrait31CompatibleOperandsAndResultTypeINS_4chlo11PolygammaOpEE11verifyTraitEPNS_9OperationEENKUlNS_4TypeEE_clES8_
FN:231,_ZZN4mlir3hlo7OpTrait31CompatibleOperandsAndResultTypeINS_4chlo6SinhOpEE11verifyTraitEPNS_9OperationEENKUlNS_4TypeEE_clES8_
FNDA:192,_ZZN4mlir3hlo7OpTrait31CompatibleOperandsAndResultTypeINS_4chlo6SinhOpEE11verifyTraitEPNS_9OperationEENKUlNS_4TypeEE_clES8_
FN:231,_ZZN4mlir3hlo7OpTrait31CompatibleOperandsAndResultTypeINS_4chlo5TanOpEE11verifyTraitEPNS_9OperationEENKUlNS_4TypeEE_clES8_
FNDA:192,_ZZN4mlir3hlo7OpTrait31CompatibleOperandsAndResultTypeINS_4chlo5TanOpEE11verifyTraitEPNS_9OperationEENKUlNS_4TypeEE_clES8_
FN:231,_ZZN4mlir3hlo7OpTrait31CompatibleOperandsAndResultTypeINS_4chlo6ZetaOpEE11verifyTraitEPNS_9OperationEENKUlNS_4TypeEE_clES8_
FNDA:288,_ZZN4mlir3hlo7OpTrait31CompatibleOperandsAndResultTypeINS_4chlo6ZetaOpEE11verifyTraitEPNS_9OperationEENKUlNS_4TypeEE_clES8_
FN:244,_ZN4mlir3hlo7OpTrait31CompatibleOperandsAndResultTypeINS_4chlo6AcosOpEE16inferReturnTypesEPNS_11MLIRContextESt8optionalINS_8LocationEENS_10ValueRangeENS_14DictionaryAttrENS_11RegionRangeERN4llvm15SmallVectorImplINS_4TypeEEE
FNDA:104,_ZN4mlir3hlo7OpTrait31CompatibleOperandsAndResultTypeINS_4chlo6AcosOpEE16inferReturnTypesEPNS_11MLIRContextESt8optionalINS_8LocationEENS_10ValueRangeENS_14DictionaryAttrENS_11RegionRangeERN4llvm15SmallVectorImplINS_4TypeEEE
FN:244,_ZN4mlir3hlo7OpTrait31CompatibleOperandsAndResultTypeINS_4chlo7AcoshOpEE16inferReturnTypesEPNS_11MLIRContextESt8optionalINS_8LocationEENS_10ValueRangeENS_14DictionaryAttrENS_11RegionRangeERN4llvm15SmallVectorImplINS_4TypeEEE
FNDA:104,_ZN4mlir3hlo7OpTrait31CompatibleOperandsAndResultTypeINS_4chlo7AcoshOpEE16inferReturnTypesEPNS_11MLIRContextESt8optionalINS_8LocationEENS_10ValueRangeENS_14DictionaryAttrENS_11RegionRangeERN4llvm15SmallVectorImplINS_4TypeEEE
FN:244,_ZN4mlir3hlo7OpTrait31CompatibleOperandsAndResultTypeINS_4chlo6AsinOpEE16inferReturnTypesEPNS_11MLIRContextESt8optionalINS_8LocationEENS_10ValueRangeENS_14DictionaryAttrENS_11RegionRangeERN4llvm15SmallVectorImplINS_4TypeEEE
FNDA:104,_ZN4mlir3hlo7OpTrait31CompatibleOperandsAndResultTypeINS_4chlo6AsinOpEE16inferReturnTypesEPNS_11MLIRContextESt8optionalINS_8LocationEENS_10ValueRangeENS_14DictionaryAttrENS_11RegionRangeERN4llvm15SmallVectorImplINS_4TypeEEE
FN:244,_ZN4mlir3hlo7OpTrait31CompatibleOperandsAndResultTypeINS_4chlo7AsinhOpEE16inferReturnTypesEPNS_11MLIRContextESt8optionalINS_8LocationEENS_10ValueRangeENS_14DictionaryAttrENS_11RegionRangeERN4llvm15SmallVectorImplINS_4TypeEEE
FNDA:104,_ZN4mlir3hlo7OpTrait31CompatibleOperandsAndResultTypeINS_4chlo7AsinhOpEE16inferReturnTypesEPNS_11MLIRContextESt8optionalINS_8LocationEENS_10ValueRangeENS_14DictionaryAttrENS_11RegionRangeERN4llvm15SmallVectorImplINS_4TypeEEE
FN:244,_ZN4mlir3hlo7OpTrait31CompatibleOperandsAndResultTypeINS_4chlo6AtanOpEE16inferReturnTypesEPNS_11MLIRContextESt8optionalINS_8LocationEENS_10ValueRangeENS_14DictionaryAttrENS_11RegionRangeERN4llvm15SmallVectorImplINS_4TypeEEE
FNDA:104,_ZN4mlir3hlo7OpTrait31CompatibleOperandsAndResultTypeINS_4chlo6AtanOpEE16inferReturnTypesEPNS_11MLIRContextESt8optionalINS_8LocationEENS_10ValueRangeENS_14DictionaryAttrENS_11RegionRangeERN4llvm15SmallVectorImplINS_4TypeEEE
FN:244,_ZN4mlir3hlo7OpTrait31CompatibleOperandsAndResultTypeINS_4chlo7AtanhOpEE16inferReturnTypesEPNS_11MLIRContextESt8optionalINS_8LocationEENS_10ValueRangeENS_14DictionaryAttrENS_11RegionRangeERN4llvm15SmallVectorImplINS_4TypeEEE
FNDA:104,_ZN4mlir3hlo7OpTrait31CompatibleOperandsAndResultTypeINS_4chlo7AtanhOpEE16inferReturnTypesEPNS_11MLIRContextESt8optionalINS_8LocationEENS_10ValueRangeENS_14DictionaryAttrENS_11RegionRangeERN4llvm15SmallVectorImplINS_4TypeEEE
FN:244,_ZN4mlir3hlo7OpTrait31CompatibleOperandsAndResultTypeINS_4chlo11BesselI1eOpEE16inferReturnTypesEPNS_11MLIRContextESt8optionalINS_8LocationEENS_10ValueRangeENS_14DictionaryAttrENS_11RegionRangeERN4llvm15SmallVectorImplINS_4TypeEEE
FNDA:104,_ZN4mlir3hlo7OpTrait31CompatibleOperandsAndResultTypeINS_4chlo11BesselI1eOpEE16inferReturnTypesEPNS_11MLIRContextESt8optionalINS_8LocationEENS_10ValueRangeENS_14DictionaryAttrENS_11RegionRangeERN4llvm15SmallVectorImplINS_4TypeEEE
FN:244,_ZN4mlir3hlo7OpTrait31CompatibleOperandsAndResultTypeINS_4chlo6ConjOpEE16inferReturnTypesEPNS_11MLIRContextESt8optionalINS_8LocationEENS_10ValueRangeENS_14DictionaryAttrENS_11RegionRangeERN4llvm15SmallVectorImplINS_4TypeEEE
FNDA:104,_ZN4mlir3hlo7OpTrait31CompatibleOperandsAndResultTypeINS_4chlo6ConjOpEE16inferReturnTypesEPNS_11MLIRContextESt8optionalINS_8LocationEENS_10ValueRangeENS_14DictionaryAttrENS_11RegionRangeERN4llvm15SmallVectorImplINS_4TypeEEE
FN:244,_ZN4mlir3hlo7OpTrait31CompatibleOperandsAndResultTypeINS_4chlo6CoshOpEE16inferReturnTypesEPNS_11MLIRContextESt8optionalINS_8LocationEENS_10ValueRangeENS_14DictionaryAttrENS_11RegionRangeERN4llvm15SmallVectorImplINS_4TypeEEE
FNDA:104,_ZN4mlir3hlo7OpTrait31CompatibleOperandsAndResultTypeINS_4chlo6CoshOpEE16inferReturnTypesEPNS_11MLIRContextESt8optionalINS_8LocationEENS_10ValueRangeENS_14DictionaryAttrENS_11RegionRangeERN4llvm15SmallVectorImplINS_4TypeEEE
FN:244,_ZN4mlir3hlo7OpTrait31CompatibleOperandsAndResultTypeINS_4chlo9DigammaOpEE16inferReturnTypesEPNS_11MLIRContextESt8optionalINS_8LocationEENS_10ValueRangeENS_14DictionaryAttrENS_11RegionRangeERN4llvm15SmallVectorImplINS_4TypeEEE
FNDA:104,_ZN4mlir3hlo7OpTrait31CompatibleOperandsAndResultTypeINS_4chlo9DigammaOpEE16inferReturnTypesEPNS_11MLIRContextESt8optionalINS_8LocationEENS_10ValueRangeENS_14DictionaryAttrENS_11RegionRangeERN4llvm15SmallVectorImplINS_4TypeEEE
FN:244,_ZN4mlir3hlo7OpTrait31CompatibleOperandsAndResultTypeINS_4chlo5ErfOpEE16inferReturnTypesEPNS_11MLIRContextESt8optionalINS_8LocationEENS_10ValueRangeENS_14DictionaryAttrENS_11RegionRangeERN4llvm15SmallVectorImplINS_4TypeEEE
FNDA:104,_ZN4mlir3hlo7OpTrait31CompatibleOperandsAndResultTypeINS_4chlo5ErfOpEE16inferReturnTypesEPNS_11MLIRContextESt8optionalINS_8LocationEENS_10ValueRangeENS_14DictionaryAttrENS_11RegionRangeERN4llvm15SmallVectorImplINS_4TypeEEE
FN:244,_ZN4mlir3hlo7OpTrait31CompatibleOperandsAndResultTypeINS_4chlo6ErfcOpEE16inferReturnTypesEPNS_11MLIRContextESt8optionalINS_8LocationEENS_10ValueRangeENS_14DictionaryAttrENS_11RegionRangeERN4llvm15SmallVectorImplINS_4TypeEEE
FNDA:104,_ZN4mlir3hlo7OpTrait31CompatibleOperandsAndResultTypeINS_4chlo6ErfcOpEE16inferReturnTypesEPNS_11MLIRContextESt8optionalINS_8LocationEENS_10ValueRangeENS_14DictionaryAttrENS_11RegionRangeERN4llvm15SmallVectorImplINS_4TypeEEE
FN:244,_ZN4mlir3hlo7OpTrait31CompatibleOperandsAndResultTypeINS_4chlo8LgammaOpEE16inferReturnTypesEPNS_11MLIRContextESt8optionalINS_8LocationEENS_10ValueRangeENS_14DictionaryAttrENS_11RegionRangeERN4llvm15SmallVectorImplINS_4TypeEEE
FNDA:104,_ZN4mlir3hlo7OpTrait31CompatibleOperandsAndResultTypeINS_4chlo8LgammaOpEE16inferReturnTypesEPNS_11MLIRContextESt8optionalINS_8LocationEENS_10ValueRangeENS_14DictionaryAttrENS_11RegionRangeERN4llvm15SmallVectorImplINS_4TypeEEE
FN:244,_ZN4mlir3hlo7OpTrait31CompatibleOperandsAndResultTypeINS_4chlo11NextAfterOpEE16inferReturnTypesEPNS_11MLIRContextESt8optionalINS_8LocationEENS_10ValueRangeENS_14DictionaryAttrENS_11RegionRangeERN4llvm15SmallVectorImplINS_4TypeEEE
FNDA:104,_ZN4mlir3hlo7OpTrait31CompatibleOperandsAndResultTypeINS_4chlo11NextAfterOpEE16inferReturnTypesEPNS_11MLIRContextESt8optionalINS_8LocationEENS_10ValueRangeENS_14DictionaryAttrENS_11RegionRangeERN4llvm15SmallVectorImplINS_4TypeEEE
FN:244,_ZN4mlir3hlo7OpTrait31CompatibleOperandsAndResultTypeINS_4chlo11PolygammaOpEE16inferReturnTypesEPNS_11MLIRContextESt8optionalINS_8LocationEENS_10ValueRangeENS_14DictionaryAttrENS_11RegionRangeERN4llvm15SmallVectorImplINS_4TypeEEE
FNDA:104,_ZN4mlir3hlo7OpTrait31CompatibleOperandsAndResultTypeINS_4chlo11PolygammaOpEE16inferReturnTypesEPNS_11MLIRContextESt8optionalINS_8LocationEENS_10ValueRangeENS_14DictionaryAttrENS_11RegionRangeERN4llvm15SmallVectorImplINS_4TypeEEE
FN:244,_ZN4mlir3hlo7OpTrait31CompatibleOperandsAndResultTypeINS_4chlo6SinhOpEE16inferReturnTypesEPNS_11MLIRContextESt8optionalINS_8LocationEENS_10ValueRangeENS_14DictionaryAttrENS_11RegionRangeERN4llvm15SmallVectorImplINS_4TypeEEE
FNDA:104,_ZN4mlir3hlo7OpTrait31CompatibleOperandsAndResultTypeINS_4chlo6SinhOpEE16inferReturnTypesEPNS_11MLIRContextESt8optionalINS_8LocationEENS_10ValueRangeENS_14DictionaryAttrENS_11RegionRangeERN4llvm15SmallVectorImplINS_4TypeEEE
FN:244,_ZN4mlir3hlo7OpTrait31CompatibleOperandsAndResultTypeINS_4chlo5TanOpEE16inferReturnTypesEPNS_11MLIRContextESt8optionalINS_8LocationEENS_10ValueRangeENS_14DictionaryAttrENS_11RegionRangeERN4llvm15SmallVectorImplINS_4TypeEEE
FNDA:104,_ZN4mlir3hlo7OpTrait31CompatibleOperandsAndResultTypeINS_4chlo5TanOpEE16inferReturnTypesEPNS_11MLIRContextESt8optionalINS_8LocationEENS_10ValueRangeENS_14DictionaryAttrENS_11RegionRangeERN4llvm15SmallVectorImplINS_4TypeEEE
FN:244,_ZN4mlir3hlo7OpTrait31CompatibleOperandsAndResultTypeINS_4chlo6ZetaOpEE16inferReturnTypesEPNS_11MLIRContextESt8optionalINS_8LocationEENS_10ValueRangeENS_14DictionaryAttrENS_11RegionRangeERN4llvm15SmallVectorImplINS_4TypeEEE
FNDA:104,_ZN4mlir3hlo7OpTrait31CompatibleOperandsAndResultTypeINS_4chlo6ZetaOpEE16inferReturnTypesEPNS_11MLIRContextESt8optionalINS_8LocationEENS_10ValueRangeENS_14DictionaryAttrENS_11RegionRangeERN4llvm15SmallVectorImplINS_4TypeEEE
FN:265,_ZN4mlir3hlo7OpTrait31CompatibleOperandsAndResultTypeINS_4chlo6AcosOpEE37inferReturnTypeComponentsFromOperandsEPNS_11MLIRContextESt8optionalINS_8LocationEENS_15ValueShapeRangeENS_14DictionaryAttrENS_11RegionRangeERN4llvm15SmallVectorImplINS_20ShapedTypeComponentsEEE
FNDA:0,_ZN4mlir3hlo7OpTrait31CompatibleOperandsAndResultTypeINS_4chlo6AcosOpEE37inferReturnTypeComponentsFromOperandsEPNS_11MLIRContextESt8optionalINS_8LocationEENS_15ValueShapeRangeENS_14DictionaryAttrENS_11RegionRangeERN4llvm15SmallVectorImplINS_20ShapedTypeComponentsEEE
FN:265,_ZN4mlir3hlo7OpTrait31CompatibleOperandsAndResultTypeINS_4chlo7AcoshOpEE37inferReturnTypeComponentsFromOperandsEPNS_11MLIRContextESt8optionalINS_8LocationEENS_15ValueShapeRangeENS_14DictionaryAttrENS_11RegionRangeERN4llvm15SmallVectorImplINS_20ShapedTypeComponentsEEE
FNDA:0,_ZN4mlir3hlo7OpTrait31CompatibleOperandsAndResultTypeINS_4chlo7AcoshOpEE37inferReturnTypeComponentsFromOperandsEPNS_11MLIRContextESt8optionalINS_8LocationEENS_15ValueShapeRangeENS_14DictionaryAttrENS_11RegionRangeERN4llvm15SmallVectorImplINS_20ShapedTypeComponentsEEE
FN:265,_ZN4mlir3hlo7OpTrait31CompatibleOperandsAndResultTypeINS_4chlo6AsinOpEE37inferReturnTypeComponentsFromOperandsEPNS_11MLIRContextESt8optionalINS_8LocationEENS_15ValueShapeRangeENS_14DictionaryAttrENS_11RegionRangeERN4llvm15SmallVectorImplINS_20ShapedTypeComponentsEEE
FNDA:0,_ZN4mlir3hlo7OpTrait31CompatibleOperandsAndResultTypeINS_4chlo6AsinOpEE37inferReturnTypeComponentsFromOperandsEPNS_11MLIRContextESt8optionalINS_8LocationEENS_15ValueShapeRangeENS_14DictionaryAttrENS_11RegionRangeERN4llvm15SmallVectorImplINS_20ShapedTypeComponentsEEE
FN:265,_ZN4mlir3hlo7OpTrait31CompatibleOperandsAndResultTypeINS_4chlo7AsinhOpEE37inferReturnTypeComponentsFromOperandsEPNS_11MLIRContextESt8optionalINS_8LocationEENS_15ValueShapeRangeENS_14DictionaryAttrENS_11RegionRangeERN4llvm15SmallVectorImplINS_20ShapedTypeComponentsEEE
FNDA:0,_ZN4mlir3hlo7OpTrait31CompatibleOperandsAndResultTypeINS_4chlo7AsinhOpEE37inferReturnTypeComponentsFromOperandsEPNS_11MLIRContextESt8optionalINS_8LocationEENS_15ValueShapeRangeENS_14DictionaryAttrENS_11RegionRangeERN4llvm15SmallVectorImplINS_20ShapedTypeComponentsEEE
FN:265,_ZN4mlir3hlo7OpTrait31CompatibleOperandsAndResultTypeINS_4chlo6AtanOpEE37inferReturnTypeComponentsFromOperandsEPNS_11MLIRContextESt8optionalINS_8LocationEENS_15ValueShapeRangeENS_14DictionaryAttrENS_11RegionRangeERN4llvm15SmallVectorImplINS_20ShapedTypeComponentsEEE
FNDA:0,_ZN4mlir3hlo7OpTrait31CompatibleOperandsAndResultTypeINS_4chlo6AtanOpEE37inferReturnTypeComponentsFromOperandsEPNS_11MLIRContextESt8optionalINS_8LocationEENS_15ValueShapeRangeENS_14DictionaryAttrENS_11RegionRangeERN4llvm15SmallVectorImplINS_20ShapedTypeComponentsEEE
FN:265,_ZN4mlir3hlo7OpTrait31CompatibleOperandsAndResultTypeINS_4chlo7AtanhOpEE37inferReturnTypeComponentsFromOperandsEPNS_11MLIRContextESt8optionalINS_8LocationEENS_15ValueShapeRangeENS_14DictionaryAttrENS_11RegionRangeERN4llvm15SmallVectorImplINS_20ShapedTypeComponentsEEE
FNDA:0,_ZN4mlir3hlo7OpTrait31CompatibleOperandsAndResultTypeINS_4chlo7AtanhOpEE37inferReturnTypeComponentsFromOperandsEPNS_11MLIRContextESt8optionalINS_8LocationEENS_15ValueShapeRangeENS_14DictionaryAttrENS_11RegionRangeERN4llvm15SmallVectorImplINS_20ShapedTypeComponentsEEE
FN:265,_ZN4mlir3hlo7OpTrait31CompatibleOperandsAndResultTypeINS_4chlo11BesselI1eOpEE37inferReturnTypeComponentsFromOperandsEPNS_11MLIRContextESt8optionalINS_8LocationEENS_15ValueShapeRangeENS_14DictionaryAttrENS_11RegionRangeERN4llvm15SmallVectorImplINS_20ShapedTypeComponentsEEE
FNDA:0,_ZN4mlir3hlo7OpTrait31CompatibleOperandsAndResultTypeINS_4chlo11BesselI1eOpEE37inferReturnTypeComponentsFromOperandsEPNS_11MLIRContextESt8optionalINS_8LocationEENS_15ValueShapeRangeENS_14DictionaryAttrENS_11RegionRangeERN4llvm15SmallVectorImplINS_20ShapedTypeComponentsEEE
FN:265,_ZN4mlir3hlo7OpTrait31CompatibleOperandsAndResultTypeINS_4chlo6ConjOpEE37inferReturnTypeComponentsFromOperandsEPNS_11MLIRContextESt8optionalINS_8LocationEENS_15ValueShapeRangeENS_14DictionaryAttrENS_11RegionRangeERN4llvm15SmallVectorImplINS_20ShapedTypeComponentsEEE
FNDA:0,_ZN4mlir3hlo7OpTrait31CompatibleOperandsAndResultTypeINS_4chlo6ConjOpEE37inferReturnTypeComponentsFromOperandsEPNS_11MLIRContextESt8optionalINS_8LocationEENS_15ValueShapeRangeENS_14DictionaryAttrENS_11RegionRangeERN4llvm15SmallVectorImplINS_20ShapedTypeComponentsEEE
FN:265,_ZN4mlir3hlo7OpTrait31CompatibleOperandsAndResultTypeINS_4chlo6CoshOpEE37inferReturnTypeComponentsFromOperandsEPNS_11MLIRContextESt8optionalINS_8LocationEENS_15ValueShapeRangeENS_14DictionaryAttrENS_11RegionRangeERN4llvm15SmallVectorImplINS_20ShapedTypeComponentsEEE
FNDA:0,_ZN4mlir3hlo7OpTrait31CompatibleOperandsAndResultTypeINS_4chlo6CoshOpEE37inferReturnTypeComponentsFromOperandsEPNS_11MLIRContextESt8optionalINS_8LocationEENS_15ValueShapeRangeENS_14DictionaryAttrENS_11RegionRangeERN4llvm15SmallVectorImplINS_20ShapedTypeComponentsEEE
FN:265,_ZN4mlir3hlo7OpTrait31CompatibleOperandsAndResultTypeINS_4chlo9DigammaOpEE37inferReturnTypeComponentsFromOperandsEPNS_11MLIRContextESt8optionalINS_8LocationEENS_15ValueShapeRangeENS_14DictionaryAttrENS_11RegionRangeERN4llvm15SmallVectorImplINS_20ShapedTypeComponentsEEE
FNDA:0,_ZN4mlir3hlo7OpTrait31CompatibleOperandsAndResultTypeINS_4chlo9DigammaOpEE37inferReturnTypeComponentsFromOperandsEPNS_11MLIRContextESt8optionalINS_8LocationEENS_15ValueShapeRangeENS_14DictionaryAttrENS_11RegionRangeERN4llvm15SmallVectorImplINS_20ShapedTypeComponentsEEE
FN:265,_ZN4mlir3hlo7OpTrait31CompatibleOperandsAndResultTypeINS_4chlo5ErfOpEE37inferReturnTypeComponentsFromOperandsEPNS_11MLIRContextESt8optionalINS_8LocationEENS_15ValueShapeRangeENS_14DictionaryAttrENS_11RegionRangeERN4llvm15SmallVectorImplINS_20ShapedTypeComponentsEEE
FNDA:0,_ZN4mlir3hlo7OpTrait31CompatibleOperandsAndResultTypeINS_4chlo5ErfOpEE37inferReturnTypeComponentsFromOperandsEPNS_11MLIRContextESt8optionalINS_8LocationEENS_15ValueShapeRangeENS_14DictionaryAttrENS_11RegionRangeERN4llvm15SmallVectorImplINS_20ShapedTypeComponentsEEE
FN:265,_ZN4mlir3hlo7OpTrait31CompatibleOperandsAndResultTypeINS_4chlo6ErfcOpEE37inferReturnTypeComponentsFromOperandsEPNS_11MLIRContextESt8optionalINS_8LocationEENS_15ValueShapeRangeENS_14DictionaryAttrENS_11RegionRangeERN4llvm15SmallVectorImplINS_20ShapedTypeComponentsEEE
FNDA:0,_ZN4mlir3hlo7OpTrait31CompatibleOperandsAndResultTypeINS_4chlo6ErfcOpEE37inferReturnTypeComponentsFromOperandsEPNS_11MLIRContextESt8optionalINS_8LocationEENS_15ValueShapeRangeENS_14DictionaryAttrENS_11RegionRangeERN4llvm15SmallVectorImplINS_20ShapedTypeComponentsEEE
FN:265,_ZN4mlir3hlo7OpTrait31CompatibleOperandsAndResultTypeINS_4chlo8LgammaOpEE37inferReturnTypeComponentsFromOperandsEPNS_11MLIRContextESt8optionalINS_8LocationEENS_15ValueShapeRangeENS_14DictionaryAttrENS_11RegionRangeERN4llvm15SmallVectorImplINS_20ShapedTypeComponentsEEE
FNDA:0,_ZN4mlir3hlo7OpTrait31CompatibleOperandsAndResultTypeINS_4chlo8LgammaOpEE37inferReturnTypeComponentsFromOperandsEPNS_11MLIRContextESt8optionalINS_8LocationEENS_15ValueShapeRangeENS_14DictionaryAttrENS_11RegionRangeERN4llvm15SmallVectorImplINS_20ShapedTypeComponentsEEE
FN:265,_ZN4mlir3hlo7OpTrait31CompatibleOperandsAndResultTypeINS_4chlo11NextAfterOpEE37inferReturnTypeComponentsFromOperandsEPNS_11MLIRContextESt8optionalINS_8LocationEENS_15ValueShapeRangeENS_14DictionaryAttrENS_11RegionRangeERN4llvm15SmallVectorImplINS_20ShapedTypeComponentsEEE
FNDA:0,_ZN4mlir3hlo7OpTrait31CompatibleOperandsAndResultTypeINS_4chlo11NextAfterOpEE37inferReturnTypeComponentsFromOperandsEPNS_11MLIRContextESt8optionalINS_8LocationEENS_15ValueShapeRangeENS_14DictionaryAttrENS_11RegionRangeERN4llvm15SmallVectorImplINS_20ShapedTypeComponentsEEE
FN:265,_ZN4mlir3hlo7OpTrait31CompatibleOperandsAndResultTypeINS_4chlo11PolygammaOpEE37inferReturnTypeComponentsFromOperandsEPNS_11MLIRContextESt8optionalINS_8LocationEENS_15ValueShapeRangeENS_14DictionaryAttrENS_11RegionRangeERN4llvm15SmallVectorImplINS_20ShapedTypeComponentsEEE
FNDA:0,_ZN4mlir3hlo7OpTrait31CompatibleOperandsAndResultTypeINS_4chlo11PolygammaOpEE37inferReturnTypeComponentsFromOperandsEPNS_11MLIRContextESt8optionalINS_8LocationEENS_15ValueShapeRangeENS_14DictionaryAttrENS_11RegionRangeERN4llvm15SmallVectorImplINS_20ShapedTypeComponentsEEE
FN:265,_ZN4mlir3hlo7OpTrait31CompatibleOperandsAndResultTypeINS_4chlo6SinhOpEE37inferReturnTypeComponentsFromOperandsEPNS_11MLIRContextESt8optionalINS_8LocationEENS_15ValueShapeRangeENS_14DictionaryAttrENS_11RegionRangeERN4llvm15SmallVectorImplINS_20ShapedTypeComponentsEEE
FNDA:0,_ZN4mlir3hlo7OpTrait31CompatibleOperandsAndResultTypeINS_4chlo6SinhOpEE37inferReturnTypeComponentsFromOperandsEPNS_11MLIRContextESt8optionalINS_8LocationEENS_15ValueShapeRangeENS_14DictionaryAttrENS_11RegionRangeERN4llvm15SmallVectorImplINS_20ShapedTypeComponentsEEE
FN:265,_ZN4mlir3hlo7OpTrait31CompatibleOperandsAndResultTypeINS_4chlo5TanOpEE37inferReturnTypeComponentsFromOperandsEPNS_11MLIRContextESt8optionalINS_8LocationEENS_15ValueShapeRangeENS_14DictionaryAttrENS_11RegionRangeERN4llvm15SmallVectorImplINS_20ShapedTypeComponentsEEE
FNDA:0,_ZN4mlir3hlo7OpTrait31CompatibleOperandsAndResultTypeINS_4chlo5TanOpEE37inferReturnTypeComponentsFromOperandsEPNS_11MLIRContextESt8optionalINS_8LocationEENS_15ValueShapeRangeENS_14DictionaryAttrENS_11RegionRangeERN4llvm15SmallVectorImplINS_20ShapedTypeComponentsEEE
FN:265,_ZN4mlir3hlo7OpTrait31CompatibleOperandsAndResultTypeINS_4chlo6ZetaOpEE37inferReturnTypeComponentsFromOperandsEPNS_11MLIRContextESt8optionalINS_8LocationEENS_15ValueShapeRangeENS_14DictionaryAttrENS_11RegionRangeERN4llvm15SmallVectorImplINS_20ShapedTypeComponentsEEE
FNDA:0,_ZN4mlir3hlo7OpTrait31CompatibleOperandsAndResultTypeINS_4chlo6ZetaOpEE37inferReturnTypeComponentsFromOperandsEPNS_11MLIRContextESt8optionalINS_8LocationEENS_15ValueShapeRangeENS_14DictionaryAttrENS_11RegionRangeERN4llvm15SmallVectorImplINS_20ShapedTypeComponentsEEE
DA:225,1728
DA:226,1728
DA:227,1728
DA:228,1728
DA:229,1728
DA:231,5472
DA:232,3744
DA:234,1728
DA:235,1728
DA:236,1728
DA:237,0
DA:238,0
DA:241,1728
DA:242,1728
DA:244,1872
DA:247,1872
DA:250,1872
DA:251,0
DA:252,0
DA:255,1872
DA:256,1872
DA:257,1872
DA:258,1872
DA:259,1872
DA:260,1872
DA:265,0
DA:268,0
DA:269,0
DA:270,0
DA:271,0
DA:272,0
DA:273,0
DA:274,0
DA:275,0
DA:276,0
end_of_record
TN:
SF:/usr/local/google/home/gleasonk/Coding/openxla/stablehlo/stablehlo/transforms/StablehloRefineShapes.cpp
FN:63,_ZN4mlir9stablehlo12_GLOBAL__N_19matchIntsIN4llvm5APIntEEENS_13LogicalResultENS_5ValueERNS3_11SmallVectorIT_Xsr42CalculateSmallVectorDefaultInlinedElementsIS8_EE5valueEEE
FNDA:360,_ZN4mlir9stablehlo12_GLOBAL__N_19matchIntsIN4llvm5APIntEEENS_13LogicalResultENS_5ValueERNS3_11SmallVectorIT_Xsr42CalculateSmallVectorDefaultInlinedElementsIS8_EE5valueEEE
FN:63,_ZN4mlir9stablehlo12_GLOBAL__N_19matchIntsIlEENS_13LogicalResultENS_5ValueERN4llvm11SmallVectorIT_Xsr42CalculateSmallVectorDefaultInlinedElementsIS7_EE5valueEEE
FNDA:264,_ZN4mlir9stablehlo12_GLOBAL__N_19matchIntsIlEENS_13LogicalResultENS_5ValueERN4llvm11SmallVectorIT_Xsr42CalculateSmallVectorDefaultInlinedElementsIS7_EE5valueEEE
FN:77,_ZN4mlir9stablehlo12_GLOBAL__N_110evalBinaryINS0_5AddOpEZNKS1_16EvalAddOpPattern15matchAndRewriteES3_RNS_15PatternRewriterEEUlN4llvm5APIntES8_E_EENS_13LogicalResultES6_T_T0_
FNDA:72,_ZN4mlir9stablehlo12_GLOBAL__N_110evalBinaryINS0_5AddOpEZNKS1_16EvalAddOpPattern15matchAndRewriteES3_RNS_15PatternRewriterEEUlN4llvm5APIntES8_E_EENS_13LogicalResultES6_T_T0_
FN:77,_ZN4mlir9stablehlo12_GLOBAL__N_110evalBinaryINS0_5AndOpEZNKS1_16EvalAndOpPattern15matchAndRewriteES3_RNS_15PatternRewriterEEUlN4llvm5APIntES8_E_EENS_13LogicalResultES6_T_T0_
FNDA:8,_ZN4mlir9stablehlo12_GLOBAL__N_110evalBinaryINS0_5AndOpEZNKS1_16EvalAndOpPattern15matchAndRewriteES3_RNS_15PatternRewriterEEUlN4llvm5APIntES8_E_EENS_13LogicalResultES6_T_T0_
FN:77,_ZN4mlir9stablehlo12_GLOBAL__N_110evalBinaryINS0_9CompareOpEZNKS1_20EvalCompareOpPattern15matchAndRewriteES3_RNS_15PatternRewriterEEUlN4llvm5APIntES8_E_EENS_13LogicalResultES6_T_T0_
FNDA:48,_ZN4mlir9stablehlo12_GLOBAL__N_110evalBinaryINS0_9CompareOpEZNKS1_20EvalCompareOpPattern15matchAndRewriteES3_RNS_15PatternRewriterEEUlN4llvm5APIntES8_E_EENS_13LogicalResultES6_T_T0_
FN:77,_ZN4mlir9stablehlo12_GLOBAL__N_110evalBinaryINS0_5DivOpEZNKS1_16EvalDivOpPattern15matchAndRewriteES3_RNS_15PatternRewriterEEUlN4llvm5APIntES8_E_EENS_13LogicalResultES6_T_T0_
FNDA:8,_ZN4mlir9stablehlo12_GLOBAL__N_110evalBinaryINS0_5DivOpEZNKS1_16EvalDivOpPattern15matchAndRewriteES3_RNS_15PatternRewriterEEUlN4llvm5APIntES8_E_EENS_13LogicalResultES6_T_T0_
FN:77,_ZN4mlir9stablehlo12_GLOBAL__N_110evalBinaryINS0_5MaxOpEZNKS1_16EvalMaxOpPattern15matchAndRewriteES3_RNS_15PatternRewriterEEUlN4llvm5APIntES8_E_EENS_13LogicalResultES6_T_T0_
FNDA:8,_ZN4mlir9stablehlo12_GLOBAL__N_110evalBinaryINS0_5MaxOpEZNKS1_16EvalMaxOpPattern15matchAndRewriteES3_RNS_15PatternRewriterEEUlN4llvm5APIntES8_E_EENS_13LogicalResultES6_T_T0_
FN:77,_ZN4mlir9stablehlo12_GLOBAL__N_110evalBinaryINS0_5MulOpEZNKS1_16EvalMulOpPattern15matchAndRewriteES3_RNS_15PatternRewriterEEUlN4llvm5APIntES8_E_EENS_13LogicalResultES6_T_T0_
FNDA:8,_ZN4mlir9stablehlo12_GLOBAL__N_110evalBinaryINS0_5MulOpEZNKS1_16EvalMulOpPattern15matchAndRewriteES3_RNS_15PatternRewriterEEUlN4llvm5APIntES8_E_EENS_13LogicalResultES6_T_T0_
FN:77,_ZN4mlir9stablehlo12_GLOBAL__N_110evalBinaryINS0_5RemOpEZNKS1_16EvalRemOpPattern15matchAndRewriteES3_RNS_15PatternRewriterEEUlN4llvm5APIntES8_E_EENS_13LogicalResultES6_T_T0_
FNDA:8,_ZN4mlir9stablehlo12_GLOBAL__N_110evalBinaryINS0_5RemOpEZNKS1_16EvalRemOpPattern15matchAndRewriteES3_RNS_15PatternRewriterEEUlN4llvm5APIntES8_E_EENS_13LogicalResultES6_T_T0_
FN:77,_ZN4mlir9stablehlo12_GLOBAL__N_110evalBinaryINS0_10SubtractOpEZNKS1_21EvalSubtractOpPattern15matchAndRewriteES3_RNS_15PatternRewriterEEUlN4llvm5APIntES8_E_EENS_13LogicalResultES6_T_T0_
FNDA:8,_ZN4mlir9stablehlo12_GLOBAL__N_110evalBinaryINS0_10SubtractOpEZNKS1_21EvalSubtractOpPattern15matchAndRewriteES3_RNS_15PatternRewriterEEUlN4llvm5APIntES8_E_EENS_13LogicalResultES6_T_T0_
FN:94,_ZN4mlir9stablehlo12_GLOBAL__N_116EvalAddOpPatternD0Ev
FNDA:352,_ZN4mlir9stablehlo12_GLOBAL__N_116EvalAddOpPatternD0Ev
FN:95,_ZN4mlir9stablehlo12_GLOBAL__N_116EvalAddOpPatternCI2NS_16OpRewritePatternINS0_5AddOpEEEEPNS_11MLIRContextENS_14PatternBenefitEN4llvm8ArrayRefINS8_9StringRefEEE
FNDA:352,_ZN4mlir9stablehlo12_GLOBAL__N_116EvalAddOpPatternCI2NS_16OpRewritePatternINS0_5AddOpEEEEPNS_11MLIRContextENS_14PatternBenefitEN4llvm8ArrayRefINS8_9StringRefEEE
FN:96,_ZNK4mlir9stablehlo12_GLOBAL__N_116EvalAddOpPattern15matchAndRewriteENS0_5AddOpERNS_15PatternRewriterE
FNDA:72,_ZNK4mlir9stablehlo12_GLOBAL__N_116EvalAddOpPattern15matchAndRewriteENS0_5AddOpERNS_15PatternRewriterE
FN:99,_ZZNK4mlir9stablehlo12_GLOBAL__N_116EvalAddOpPattern15matchAndRewriteENS0_5AddOpERNS_15PatternRewriterEENKUlN4llvm5APIntES7_E_clES7_S7_
FNDA:8,_ZZNK4mlir9stablehlo12_GLOBAL__N_116EvalAddOpPattern15matchAndRewriteENS0_5AddOpERNS_15PatternRewriterEENKUlN4llvm5APIntES7_E_clES7_S7_
FN:103,_ZN4mlir9stablehlo12_GLOBAL__N_116EvalAndOpPatternD0Ev
FNDA:352,_ZN4mlir9stablehlo12_GLOBAL__N_116EvalAndOpPatternD0Ev
FN:104,_ZN4mlir9stablehlo12_GLOBAL__N_116EvalAndOpPatternCI2NS_16OpRewritePatternINS0_5AndOpEEEEPNS_11MLIRContextENS_14PatternBenefitEN4llvm8ArrayRefINS8_9StringRefEEE
FNDA:352,_ZN4mlir9stablehlo12_GLOBAL__N_116EvalAndOpPatternCI2NS_16OpRewritePatternINS0_5AndOpEEEEPNS_11MLIRContextENS_14PatternBenefitEN4llvm8ArrayRefINS8_9StringRefEEE
FN:105,_ZNK4mlir9stablehlo12_GLOBAL__N_116EvalAndOpPattern15matchAndRewriteENS0_5AndOpERNS_15PatternRewriterE
FNDA:8,_ZNK4mlir9stablehlo12_GLOBAL__N_116EvalAndOpPattern15matchAndRewriteENS0_5AndOpERNS_15PatternRewriterE
FN:111,_ZZNK4mlir9stablehlo12_GLOBAL__N_116EvalAndOpPattern15matchAndRewriteENS0_5AndOpERNS_15PatternRewriterEENKUlN4llvm5APIntES7_E_clES7_S7_
FNDA:8,_ZZNK4mlir9stablehlo12_GLOBAL__N_116EvalAndOpPattern15matchAndRewriteENS0_5AndOpERNS_15PatternRewriterEENKUlN4llvm5APIntES7_E_clES7_S7_
FN:118,_ZN4mlir9stablehlo12_GLOBAL__N_127EvalBroadcastInDimOpPatternD0Ev
FNDA:352,_ZN4mlir9stablehlo12_GLOBAL__N_127EvalBroadcastInDimOpPatternD0Ev
FN:119,_ZN4mlir9stablehlo12_GLOBAL__N_127EvalBroadcastInDimOpPatternCI2NS_16OpRewritePatternINS0_16BroadcastInDimOpEEEEPNS_11MLIRContextENS_14PatternBenefitEN4llvm8ArrayRefINS8_9StringRefEEE
FNDA:352,_ZN4mlir9stablehlo12_GLOBAL__N_127EvalBroadcastInDimOpPatternCI2NS_16OpRewritePatternINS0_16BroadcastInDimOpEEEEPNS_11MLIRContextENS_14PatternBenefitEN4llvm8ArrayRefINS8_9StringRefEEE
FN:120,_ZNK4mlir9stablehlo12_GLOBAL__N_127EvalBroadcastInDimOpPattern15matchAndRewriteENS0_16BroadcastInDimOpERNS_15PatternRewriterE
FNDA:8,_ZNK4mlir9stablehlo12_GLOBAL__N_127EvalBroadcastInDimOpPattern15matchAndRewriteENS0_16BroadcastInDimOpERNS_15PatternRewriterE
FN:137,_ZN4mlir9stablehlo12_GLOBAL__N_120EvalCompareOpPatternD0Ev
FNDA:352,_ZN4mlir9stablehlo12_GLOBAL__N_120EvalCompareOpPatternD0Ev
FN:138,_ZN4mlir9stablehlo12_GLOBAL__N_120EvalCompareOpPatternCI2NS_16OpRewritePatternINS0_9CompareOpEEEEPNS_11MLIRContextENS_14PatternBenefitEN4llvm8ArrayRefINS8_9StringRefEEE
FNDA:352,_ZN4mlir9stablehlo12_GLOBAL__N_120EvalCompareOpPatternCI2NS_16OpRewritePatternINS0_9CompareOpEEEEPNS_11MLIRContextENS_14PatternBenefitEN4llvm8ArrayRefINS8_9StringRefEEE
FN:139,_ZNK4mlir9stablehlo12_GLOBAL__N_120EvalCompareOpPattern15matchAndRewriteENS0_9CompareOpERNS_15PatternRewriterE
FNDA:48,_ZNK4mlir9stablehlo12_GLOBAL__N_120EvalCompareOpPattern15matchAndRewriteENS0_9CompareOpERNS_15PatternRewriterE
FN:143,_ZZNK4mlir9stablehlo12_GLOBAL__N_120EvalCompareOpPattern15matchAndRewriteENS0_9CompareOpERNS_15PatternRewriterEENKUlN4llvm5APIntES7_E_clES7_S7_
FNDA:48,_ZZNK4mlir9stablehlo12_GLOBAL__N_120EvalCompareOpPattern15matchAndRewriteENS0_9CompareOpERNS_15PatternRewriterEENKUlN4llvm5APIntES7_E_clES7_S7_
FN:170,_ZN4mlir9stablehlo12_GLOBAL__N_124EvalConcatenateOpPatternD0Ev
FNDA:352,_ZN4mlir9stablehlo12_GLOBAL__N_124EvalConcatenateOpPatternD0Ev
FN:171,_ZN4mlir9stablehlo12_GLOBAL__N_124EvalConcatenateOpPatternCI2NS_16OpRewritePatternINS0_13ConcatenateOpEEEEPNS_11MLIRContextENS_14PatternBenefitEN4llvm8ArrayRefINS8_9StringRefEEE
FNDA:352,_ZN4mlir9stablehlo12_GLOBAL__N_124EvalConcatenateOpPatternCI2NS_16OpRewritePatternINS0_13ConcatenateOpEEEEPNS_11MLIRContextENS_14PatternBenefitEN4llvm8ArrayRefINS8_9StringRefEEE
FN:172,_ZNK4mlir9stablehlo12_GLOBAL__N_124EvalConcatenateOpPattern15matchAndRewriteENS0_13ConcatenateOpERNS_15PatternRewriterE
FNDA:16,_ZNK4mlir9stablehlo12_GLOBAL__N_124EvalConcatenateOpPattern15matchAndRewriteENS0_13ConcatenateOpERNS_15PatternRewriterE
FN:190,_ZN4mlir9stablehlo12_GLOBAL__N_120EvalConvertOpPatternD0Ev
FNDA:352,_ZN4mlir9stablehlo12_GLOBAL__N_120EvalConvertOpPatternD0Ev
FN:191,_ZN4mlir9stablehlo12_GLOBAL__N_120EvalConvertOpPatternCI2NS_16OpRewritePatternINS0_9ConvertOpEEEEPNS_11MLIRContextENS_14PatternBenefitEN4llvm8ArrayRefINS8_9StringRefEEE
FNDA:352,_ZN4mlir9stablehlo12_GLOBAL__N_120EvalConvertOpPatternCI2NS_16OpRewritePatternINS0_9ConvertOpEEEEPNS_11MLIRContextENS_14PatternBenefitEN4llvm8ArrayRefINS8_9StringRefEEE
FN:192,_ZNK4mlir9stablehlo12_GLOBAL__N_120EvalConvertOpPattern15matchAndRewriteENS0_9ConvertOpERNS_15PatternRewriterE
FNDA:24,_ZNK4mlir9stablehlo12_GLOBAL__N_120EvalConvertOpPattern15matchAndRewriteENS0_9ConvertOpERNS_15PatternRewriterE
FN:218,_ZN4mlir9stablehlo12_GLOBAL__N_116EvalDivOpPatternD0Ev
FNDA:352,_ZN4mlir9stablehlo12_GLOBAL__N_116EvalDivOpPatternD0Ev
FN:219,_ZN4mlir9stablehlo12_GLOBAL__N_116EvalDivOpPatternCI2NS_16OpRewritePatternINS0_5DivOpEEEEPNS_11MLIRContextENS_14PatternBenefitEN4llvm8ArrayRefINS8_9StringRefEEE
FNDA:352,_ZN4mlir9stablehlo12_GLOBAL__N_116EvalDivOpPatternCI2NS_16OpRewritePatternINS0_5DivOpEEEEPNS_11MLIRContextENS_14PatternBenefitEN4llvm8ArrayRefINS8_9StringRefEEE
FN:220,_ZNK4mlir9stablehlo12_GLOBAL__N_116EvalDivOpPattern15matchAndRewriteENS0_5DivOpERNS_15PatternRewriterE
FNDA:8,_ZNK4mlir9stablehlo12_GLOBAL__N_116EvalDivOpPattern15matchAndRewriteENS0_5DivOpERNS_15PatternRewriterE
FN:224,_ZZNK4mlir9stablehlo12_GLOBAL__N_116EvalDivOpPattern15matchAndRewriteENS0_5DivOpERNS_15PatternRewriterEENKUlN4llvm5APIntES7_E_clES7_S7_
FNDA:8,_ZZNK4mlir9stablehlo12_GLOBAL__N_116EvalDivOpPattern15matchAndRewriteENS0_5DivOpERNS_15PatternRewriterEENKUlN4llvm5APIntES7_E_clES7_S7_
FN:230,_ZN4mlir9stablehlo12_GLOBAL__N_129EvalGetDimensionSizeOpPatternD0Ev
FNDA:352,_ZN4mlir9stablehlo12_GLOBAL__N_129EvalGetDimensionSizeOpPatternD0Ev
FN:232,_ZN4mlir9stablehlo12_GLOBAL__N_129EvalGetDimensionSizeOpPatternCI2NS_16OpRewritePatternINS0_18GetDimensionSizeOpEEEEPNS_11MLIRContextENS_14PatternBenefitEN4llvm8ArrayRefINS8_9StringRefEEE
FNDA:352,_ZN4mlir9stablehlo12_GLOBAL__N_129EvalGetDimensionSizeOpPatternCI2NS_16OpRewritePatternINS0_18GetDimensionSizeOpEEEEPNS_11MLIRContextENS_14PatternBenefitEN4llvm8ArrayRefINS8_9StringRefEEE
FN:233,_ZNK4mlir9stablehlo12_GLOBAL__N_129EvalGetDimensionSizeOpPattern15matchAndRewriteENS0_18GetDimensionSizeOpERNS_15PatternRewriterE
FNDA:8,_ZNK4mlir9stablehlo12_GLOBAL__N_129EvalGetDimensionSizeOpPattern15matchAndRewriteENS0_18GetDimensionSizeOpERNS_15PatternRewriterE
FN:249,_ZN4mlir9stablehlo12_GLOBAL__N_116EvalMaxOpPatternD0Ev
FNDA:352,_ZN4mlir9stablehlo12_GLOBAL__N_116EvalMaxOpPatternD0Ev
FN:250,_ZN4mlir9stablehlo12_GLOBAL__N_116EvalMaxOpPatternCI2NS_16OpRewritePatternINS0_5MaxOpEEEEPNS_11MLIRContextENS_14PatternBenefitEN4llvm8ArrayRefINS8_9StringRefEEE
FNDA:352,_ZN4mlir9stablehlo12_GLOBAL__N_116EvalMaxOpPatternCI2NS_16OpRewritePatternINS0_5MaxOpEEEEPNS_11MLIRContextENS_14PatternBenefitEN4llvm8ArrayRefINS8_9StringRefEEE
FN:251,_ZNK4mlir9stablehlo12_GLOBAL__N_116EvalMaxOpPattern15matchAndRewriteENS0_5MaxOpERNS_15PatternRewriterE
FNDA:8,_ZNK4mlir9stablehlo12_GLOBAL__N_116EvalMaxOpPattern15matchAndRewriteENS0_5MaxOpERNS_15PatternRewriterE
FN:255,_ZZNK4mlir9stablehlo12_GLOBAL__N_116EvalMaxOpPattern15matchAndRewriteENS0_5MaxOpERNS_15PatternRewriterEENKUlN4llvm5APIntES7_E_clES7_S7_
FNDA:8,_ZZNK4mlir9stablehlo12_GLOBAL__N_116EvalMaxOpPattern15matchAndRewriteENS0_5MaxOpERNS_15PatternRewriterEENKUlN4llvm5APIntES7_E_clES7_S7_
FN:262,_ZN4mlir9stablehlo12_GLOBAL__N_116EvalMulOpPatternD0Ev
FNDA:352,_ZN4mlir9stablehlo12_GLOBAL__N_116EvalMulOpPatternD0Ev
FN:263,_ZN4mlir9stablehlo12_GLOBAL__N_116EvalMulOpPatternCI2NS_16OpRewritePatternINS0_5MulOpEEEEPNS_11MLIRContextENS_14PatternBenefitEN4llvm8ArrayRefINS8_9StringRefEEE
FNDA:352,_ZN4mlir9stablehlo12_GLOBAL__N_116EvalMulOpPatternCI2NS_16OpRewritePatternINS0_5MulOpEEEEPNS_11MLIRContextENS_14PatternBenefitEN4llvm8ArrayRefINS8_9StringRefEEE
FN:264,_ZNK4mlir9stablehlo12_GLOBAL__N_116EvalMulOpPattern15matchAndRewriteENS0_5MulOpERNS_15PatternRewriterE
FNDA:8,_ZNK4mlir9stablehlo12_GLOBAL__N_116EvalMulOpPattern15matchAndRewriteENS0_5MulOpERNS_15PatternRewriterE
FN:267,_ZZNK4mlir9stablehlo12_GLOBAL__N_116EvalMulOpPattern15matchAndRewriteENS0_5MulOpERNS_15PatternRewriterEENKUlN4llvm5APIntES7_E_clES7_S7_
FNDA:8,_ZZNK4mlir9stablehlo12_GLOBAL__N_116EvalMulOpPattern15matchAndRewriteENS0_5MulOpERNS_15PatternRewriterEENKUlN4llvm5APIntES7_E_clES7_S7_
FN:271,_ZN4mlir9stablehlo12_GLOBAL__N_116EvalRemOpPatternD0Ev
FNDA:352,_ZN4mlir9stablehlo12_GLOBAL__N_116EvalRemOpPatternD0Ev
FN:272,_ZN4mlir9stablehlo12_GLOBAL__N_116EvalRemOpPatternCI2NS_16OpRewritePatternINS0_5RemOpEEEEPNS_11MLIRContextENS_14PatternBenefitEN4llvm8ArrayRefINS8_9StringRefEEE
FNDA:352,_ZN4mlir9stablehlo12_GLOBAL__N_116EvalRemOpPatternCI2NS_16OpRewritePatternINS0_5RemOpEEEEPNS_11MLIRContextENS_14PatternBenefitEN4llvm8ArrayRefINS8_9StringRefEEE
FN:273,_ZNK4mlir9stablehlo12_GLOBAL__N_116EvalRemOpPattern15matchAndRewriteENS0_5RemOpERNS_15PatternRewriterE
FNDA:8,_ZNK4mlir9stablehlo12_GLOBAL__N_116EvalRemOpPattern15matchAndRewriteENS0_5RemOpERNS_15PatternRewriterE
FN:277,_ZZNK4mlir9stablehlo12_GLOBAL__N_116EvalRemOpPattern15matchAndRewriteENS0_5RemOpERNS_15PatternRewriterEENKUlN4llvm5APIntES7_E_clES7_S7_
FNDA:8,_ZZNK4mlir9stablehlo12_GLOBAL__N_116EvalRemOpPattern15matchAndRewriteENS0_5RemOpERNS_15PatternRewriterEENKUlN4llvm5APIntES7_E_clES7_S7_
FN:283,_ZN4mlir9stablehlo12_GLOBAL__N_120EvalReshapeOpPatternD0Ev
FNDA:352,_ZN4mlir9stablehlo12_GLOBAL__N_120EvalReshapeOpPatternD0Ev
FN:284,_ZN4mlir9stablehlo12_GLOBAL__N_120EvalReshapeOpPatternCI2NS_16OpRewritePatternINS0_9ReshapeOpEEEEPNS_11MLIRContextENS_14PatternBenefitEN4llvm8ArrayRefINS8_9StringRefEEE
FNDA:352,_ZN4mlir9stablehlo12_GLOBAL__N_120EvalReshapeOpPatternCI2NS_16OpRewritePatternINS0_9ReshapeOpEEEEPNS_11MLIRContextENS_14PatternBenefitEN4llvm8ArrayRefINS8_9StringRefEEE
FN:285,_ZNK4mlir9stablehlo12_GLOBAL__N_120EvalReshapeOpPattern15matchAndRewriteENS0_9ReshapeOpERNS_15PatternRewriterE
FNDA:8,_ZNK4mlir9stablehlo12_GLOBAL__N_120EvalReshapeOpPattern15matchAndRewriteENS0_9ReshapeOpERNS_15PatternRewriterE
FN:295,_ZN4mlir9stablehlo12_GLOBAL__N_119EvalSelectOpPatternD0Ev
FNDA:352,_ZN4mlir9stablehlo12_GLOBAL__N_119EvalSelectOpPatternD0Ev
FN:296,_ZN4mlir9stablehlo12_GLOBAL__N_119EvalSelectOpPatternCI2NS_16OpRewritePatternINS0_8SelectOpEEEEPNS_11MLIRContextENS_14PatternBenefitEN4llvm8ArrayRefINS8_9StringRefEEE
FNDA:352,_ZN4mlir9stablehlo12_GLOBAL__N_119EvalSelectOpPatternCI2NS_16OpRewritePatternINS0_8SelectOpEEEEPNS_11MLIRContextENS_14PatternBenefitEN4llvm8ArrayRefINS8_9StringRefEEE
FN:297,_ZNK4mlir9stablehlo12_GLOBAL__N_119EvalSelectOpPattern15matchAndRewriteENS0_8SelectOpERNS_15PatternRewriterE
FNDA:8,_ZNK4mlir9stablehlo12_GLOBAL__N_119EvalSelectOpPattern15matchAndRewriteENS0_8SelectOpERNS_15PatternRewriterE
FN:317,_ZN4mlir9stablehlo12_GLOBAL__N_118EvalSliceOpPatternD0Ev
FNDA:352,_ZN4mlir9stablehlo12_GLOBAL__N_118EvalSliceOpPatternD0Ev
FN:318,_ZN4mlir9stablehlo12_GLOBAL__N_118EvalSliceOpPatternCI2NS_16OpRewritePatternINS0_7SliceOpEEEEPNS_11MLIRContextENS_14PatternBenefitEN4llvm8ArrayRefINS8_9StringRefEEE
FNDA:352,_ZN4mlir9stablehlo12_GLOBAL__N_118EvalSliceOpPatternCI2NS_16OpRewritePatternINS0_7SliceOpEEEEPNS_11MLIRContextENS_14PatternBenefitEN4llvm8ArrayRefINS8_9StringRefEEE
FN:319,_ZNK4mlir9stablehlo12_GLOBAL__N_118EvalSliceOpPattern15matchAndRewriteENS0_7SliceOpERNS_15PatternRewriterE
FNDA:8,_ZNK4mlir9stablehlo12_GLOBAL__N_118EvalSliceOpPattern15matchAndRewriteENS0_7SliceOpERNS_15PatternRewriterE
FN:343,_ZN4mlir9stablehlo12_GLOBAL__N_121EvalSubtractOpPatternD0Ev
FNDA:352,_ZN4mlir9stablehlo12_GLOBAL__N_121EvalSubtractOpPatternD0Ev
FN:344,_ZN4mlir9stablehlo12_GLOBAL__N_121EvalSubtractOpPatternCI2NS_16OpRewritePatternINS0_10SubtractOpEEEEPNS_11MLIRContextENS_14PatternBenefitEN4llvm8ArrayRefINS8_9StringRefEEE
FNDA:352,_ZN4mlir9stablehlo12_GLOBAL__N_121EvalSubtractOpPatternCI2NS_16OpRewritePatternINS0_10SubtractOpEEEEPNS_11MLIRContextENS_14PatternBenefitEN4llvm8ArrayRefINS8_9StringRefEEE
FN:345,_ZNK4mlir9stablehlo12_GLOBAL__N_121EvalSubtractOpPattern15matchAndRewriteENS0_10SubtractOpERNS_15PatternRewriterE
FNDA:8,_ZNK4mlir9stablehlo12_GLOBAL__N_121EvalSubtractOpPattern15matchAndRewriteENS0_10SubtractOpERNS_15PatternRewriterE
FN:348,_ZZNK4mlir9stablehlo12_GLOBAL__N_121EvalSubtractOpPattern15matchAndRewriteENS0_10SubtractOpERNS_15PatternRewriterEENKUlN4llvm5APIntES7_E_clES7_S7_
FNDA:8,_ZZNK4mlir9stablehlo12_GLOBAL__N_121EvalSubtractOpPattern15matchAndRewriteENS0_10SubtractOpERNS_15PatternRewriterEENKUlN4llvm5APIntES7_E_clES7_S7_
FN:366,_ZN4mlir9stablehlo12_GLOBAL__N_112refineValuesERNS_15PatternRewriterEPNS_9OperationENS_10ValueRangeENS_9TypeRangeE
FNDA:1192,_ZN4mlir9stablehlo12_GLOBAL__N_112refineValuesERNS_15PatternRewriterEPNS_9OperationENS_10ValueRangeENS_9TypeRangeE
FN:369,_ZZN4mlir9stablehlo12_GLOBAL__N_112refineValuesERNS_15PatternRewriterEPNS_9OperationENS_10ValueRangeENS_9TypeRangeEENK3$_1clERNS_10DiagnosticE
FNDA:0,_ZZN4mlir9stablehlo12_GLOBAL__N_112refineValuesERNS_15PatternRewriterEPNS_9OperationENS_10ValueRangeENS_9TypeRangeEENK3$_1clERNS_10DiagnosticE
FN:388,_ZZN4mlir9stablehlo12_GLOBAL__N_112refineValuesERNS_15PatternRewriterEPNS_9OperationENS_10ValueRangeENS_9TypeRangeEENK3$_2clERNS_10DiagnosticE
FNDA:0,_ZZN4mlir9stablehlo12_GLOBAL__N_112refineValuesERNS_15PatternRewriterEPNS_9OperationENS_10ValueRangeENS_9TypeRangeEENK3$_2clERNS_10DiagnosticE
FN:426,_ZZN4mlir9stablehlo12_GLOBAL__N_112refineValuesERNS_15PatternRewriterEPNS_9OperationENS_10ValueRangeENS_9TypeRangeEENK3$_3clERNS_10DiagnosticE
FNDA:0,_ZZN4mlir9stablehlo12_GLOBAL__N_112refineValuesERNS_15PatternRewriterEPNS_9OperationENS_10ValueRangeENS_9TypeRangeEENK3$_3clERNS_10DiagnosticE
FN:440,_ZZN4mlir9stablehlo12_GLOBAL__N_112refineValuesERNS_15PatternRewriterEPNS_9OperationENS_10ValueRangeENS_9TypeRangeEENK3$_4clERNS_9OpOperandE
FNDA:496,_ZZN4mlir9stablehlo12_GLOBAL__N_112refineValuesERNS_15PatternRewriterEPNS_9OperationENS_10ValueRangeENS_9TypeRangeEENK3$_4clERNS_9OpOperandE
FN:457,_ZN4mlir9stablehlo12_GLOBAL__N_117refineReturnTypesERNS_15PatternRewriterEPNS_9OperationEN4llvm8ArrayRefINS_4TypeEEE
FNDA:1144,_ZN4mlir9stablehlo12_GLOBAL__N_117refineReturnTypesERNS_15PatternRewriterEPNS_9OperationEN4llvm8ArrayRefINS_4TypeEEE
FN:467,_ZZN4mlir9stablehlo12_GLOBAL__N_117refineReturnTypesERNS_15PatternRewriterEPNS_9OperationEN4llvm8ArrayRefINS_4TypeEEEENK3$_5clERNS_9OpOperandE
FNDA:184,_ZZN4mlir9stablehlo12_GLOBAL__N_117refineReturnTypesERNS_15PatternRewriterEPNS_9OperationEN4llvm8ArrayRefINS_4TypeEEEENK3$_5clERNS_9OpOperandE
FN:475,_ZN4mlir9stablehlo12_GLOBAL__N_117refineReturnTypesERNS_15PatternRewriterEPNS_9OperationEN4llvm8ArrayRefINS_20ShapedTypeComponentsEEE
FNDA:192,_ZN4mlir9stablehlo12_GLOBAL__N_117refineReturnTypesERNS_15PatternRewriterEPNS_9OperationEN4llvm8ArrayRefINS_20ShapedTypeComponentsEEE
FN:478,_ZZN4mlir9stablehlo12_GLOBAL__N_117refineReturnTypesERNS_15PatternRewriterEPNS_9OperationEN4llvm8ArrayRefINS_20ShapedTypeComponentsEEEENK3$_6clERNS_10DiagnosticE
FNDA:0,_ZZN4mlir9stablehlo12_GLOBAL__N_117refineReturnTypesERNS_15PatternRewriterEPNS_9OperationEN4llvm8ArrayRefINS_20ShapedTypeComponentsEEEENK3$_6clERNS_10DiagnosticE
FN:508,_ZN4mlir9stablehlo12_GLOBAL__N_117refineReturnShapeINS0_16BitcastConvertOpEEENS_13LogicalResultERNS_15PatternRewriterET_N4llvm8ArrayRefIlEE
FNDA:16,_ZN4mlir9stablehlo12_GLOBAL__N_117refineReturnShapeINS0_16BitcastConvertOpEEENS_13LogicalResultERNS_15PatternRewriterET_N4llvm8ArrayRefIlEE
FN:508,_ZN4mlir9stablehlo12_GLOBAL__N_117refineReturnShapeINS0_23DynamicBroadcastInDimOpEEENS_13LogicalResultERNS_15PatternRewriterET_N4llvm8ArrayRefIlEE
FNDA:16,_ZN4mlir9stablehlo12_GLOBAL__N_117refineReturnShapeINS0_23DynamicBroadcastInDimOpEEENS_13LogicalResultERNS_15PatternRewriterET_N4llvm8ArrayRefIlEE
FN:508,_ZN4mlir9stablehlo12_GLOBAL__N_117refineReturnShapeINS0_13DynamicIotaOpEEENS_13LogicalResultERNS_15PatternRewriterET_N4llvm8ArrayRefIlEE
FNDA:16,_ZN4mlir9stablehlo12_GLOBAL__N_117refineReturnShapeINS0_13DynamicIotaOpEEENS_13LogicalResultERNS_15PatternRewriterET_N4llvm8ArrayRefIlEE
FN:508,_ZN4mlir9stablehlo12_GLOBAL__N_117refineReturnShapeINS0_16DynamicReshapeOpEEENS_13LogicalResultERNS_15PatternRewriterET_N4llvm8ArrayRefIlEE
FNDA:16,_ZN4mlir9stablehlo12_GLOBAL__N_117refineReturnShapeINS0_16DynamicReshapeOpEEENS_13LogicalResultERNS_15PatternRewriterET_N4llvm8ArrayRefIlEE
FN:508,_ZN4mlir9stablehlo12_GLOBAL__N_117refineReturnShapeINS0_5RngOpEEENS_13LogicalResultERNS_15PatternRewriterET_N4llvm8ArrayRefIlEE
FNDA:16,_ZN4mlir9stablehlo12_GLOBAL__N_117refineReturnShapeINS0_5RngOpEEENS_13LogicalResultERNS_15PatternRewriterET_N4llvm8ArrayRefIlEE
FN:518,_ZN4mlir9stablehlo12_GLOBAL__N_117refineReturnShapeINS0_23DynamicBroadcastInDimOpEEENS_13LogicalResultERNS_15PatternRewriterET_NS_5ValueE
FNDA:16,_ZN4mlir9stablehlo12_GLOBAL__N_117refineReturnShapeINS0_23DynamicBroadcastInDimOpEEENS_13LogicalResultERNS_15PatternRewriterET_NS_5ValueE
FN:518,_ZN4mlir9stablehlo12_GLOBAL__N_117refineReturnShapeINS0_13DynamicIotaOpEEENS_13LogicalResultERNS_15PatternRewriterET_NS_5ValueE
FNDA:16,_ZN4mlir9stablehlo12_GLOBAL__N_117refineReturnShapeINS0_13DynamicIotaOpEEENS_13LogicalResultERNS_15PatternRewriterET_NS_5ValueE
FN:518,_ZN4mlir9stablehlo12_GLOBAL__N_117refineReturnShapeINS0_16DynamicReshapeOpEEENS_13LogicalResultERNS_15PatternRewriterET_NS_5ValueE
FNDA:16,_ZN4mlir9stablehlo12_GLOBAL__N_117refineReturnShapeINS0_16DynamicReshapeOpEEENS_13LogicalResultERNS_15PatternRewriterET_NS_5ValueE
FN:518,_ZN4mlir9stablehlo12_GLOBAL__N_117refineReturnShapeINS0_5RngOpEEENS_13LogicalResultERNS_15PatternRewriterET_NS_5ValueE
FNDA:16,_ZN4mlir9stablehlo12_GLOBAL__N_117refineReturnShapeINS0_5RngOpEEENS_13LogicalResultERNS_15PatternRewriterET_NS_5ValueE
FN:529,_ZN4mlir9stablehlo12_GLOBAL__N_129RefineBitcastConvertOpPatternD0Ev
FNDA:352,_ZN4mlir9stablehlo12_GLOBAL__N_129RefineBitcastConvertOpPatternD0Ev
FN:531,_ZN4mlir9stablehlo12_GLOBAL__N_129RefineBitcastConvertOpPatternCI2NS_16OpRewritePatternINS0_16BitcastConvertOpEEEEPNS_11MLIRContextENS_14PatternBenefitEN4llvm8ArrayRefINS8_9StringRefEEE
FNDA:352,_ZN4mlir9stablehlo12_GLOBAL__N_129RefineBitcastConvertOpPatternCI2NS_16OpRewritePatternINS0_16BitcastConvertOpEEEEPNS_11MLIRContextENS_14PatternBenefitEN4llvm8ArrayRefINS8_9StringRefEEE
FN:532,_ZNK4mlir9stablehlo12_GLOBAL__N_129RefineBitcastConvertOpPattern15matchAndRewriteENS0_16BitcastConvertOpERNS_15PatternRewriterE
FNDA:24,_ZNK4mlir9stablehlo12_GLOBAL__N_129RefineBitcastConvertOpPattern15matchAndRewriteENS0_16BitcastConvertOpERNS_15PatternRewriterE
FN:551,_ZN4mlir9stablehlo12_GLOBAL__N_122RefineConvertOpPatternD0Ev
FNDA:352,_ZN4mlir9stablehlo12_GLOBAL__N_122RefineConvertOpPatternD0Ev
FN:552,_ZN4mlir9stablehlo12_GLOBAL__N_122RefineConvertOpPatternCI2NS_16OpRewritePatternINS0_9ConvertOpEEEEPNS_11MLIRContextENS_14PatternBenefitEN4llvm8ArrayRefINS8_9StringRefEEE
FNDA:352,_ZN4mlir9stablehlo12_GLOBAL__N_122RefineConvertOpPatternCI2NS_16OpRewritePatternINS0_9ConvertOpEEEEPNS_11MLIRContextENS_14PatternBenefitEN4llvm8ArrayRefINS8_9StringRefEEE
FN:553,_ZNK4mlir9stablehlo12_GLOBAL__N_122RefineConvertOpPattern15matchAndRewriteENS0_9ConvertOpERNS_15PatternRewriterE
FNDA:16,_ZNK4mlir9stablehlo12_GLOBAL__N_122RefineConvertOpPattern15matchAndRewriteENS0_9ConvertOpERNS_15PatternRewriterE
FN:563,_ZN4mlir9stablehlo12_GLOBAL__N_126RefineConvolutionOpPatternD0Ev
FNDA:352,_ZN4mlir9stablehlo12_GLOBAL__N_126RefineConvolutionOpPatternD0Ev
FN:564,_ZN4mlir9stablehlo12_GLOBAL__N_126RefineConvolutionOpPatternCI2NS_16OpRewritePatternINS0_13ConvolutionOpEEEEPNS_11MLIRContextENS_14PatternBenefitEN4llvm8ArrayRefINS8_9StringRefEEE
FNDA:352,_ZN4mlir9stablehlo12_GLOBAL__N_126RefineConvolutionOpPatternCI2NS_16OpRewritePatternINS0_13ConvolutionOpEEEEPNS_11MLIRContextENS_14PatternBenefitEN4llvm8ArrayRefINS8_9StringRefEEE
FN:565,_ZNK4mlir9stablehlo12_GLOBAL__N_126RefineConvolutionOpPattern15matchAndRewriteENS0_13ConvolutionOpERNS_15PatternRewriterE
FNDA:16,_ZNK4mlir9stablehlo12_GLOBAL__N_126RefineConvolutionOpPattern15matchAndRewriteENS0_13ConvolutionOpERNS_15PatternRewriterE
FN:588,_ZN4mlir9stablehlo12_GLOBAL__N_125RefineCustomCallOpPatternD0Ev
FNDA:352,_ZN4mlir9stablehlo12_GLOBAL__N_125RefineCustomCallOpPatternD0Ev
FN:589,_ZN4mlir9stablehlo12_GLOBAL__N_125RefineCustomCallOpPatternCI2NS_16OpRewritePatternINS0_12CustomCallOpEEEEPNS_11MLIRContextENS_14PatternBenefitEN4llvm8ArrayRefINS8_9StringRefEEE
FNDA:352,_ZN4mlir9stablehlo12_GLOBAL__N_125RefineCustomCallOpPatternCI2NS_16OpRewritePatternINS0_12CustomCallOpEEEEPNS_11MLIRContextENS_14PatternBenefitEN4llvm8ArrayRefINS8_9StringRefEEE
FN:590,_ZNK4mlir9stablehlo12_GLOBAL__N_125RefineCustomCallOpPattern15matchAndRewriteENS0_12CustomCallOpERNS_15PatternRewriterE
FNDA:16,_ZNK4mlir9stablehlo12_GLOBAL__N_125RefineCustomCallOpPattern15matchAndRewriteENS0_12CustomCallOpERNS_15PatternRewriterE
FN:606,_ZZNK4mlir9stablehlo12_GLOBAL__N_125RefineCustomCallOpPattern15matchAndRewriteENS0_12CustomCallOpERNS_15PatternRewriterEENKUllE_clEl
FNDA:64,_ZZNK4mlir9stablehlo12_GLOBAL__N_125RefineCustomCallOpPattern15matchAndRewriteENS0_12CustomCallOpERNS_15PatternRewriterEENKUllE_clEl
FN:614,_ZN4mlir9stablehlo12_GLOBAL__N_125RefineDotGeneralOpPatternD0Ev
FNDA:352,_ZN4mlir9stablehlo12_GLOBAL__N_125RefineDotGeneralOpPatternD0Ev
FN:615,_ZN4mlir9stablehlo12_GLOBAL__N_125RefineDotGeneralOpPatternCI2NS_16OpRewritePatternINS0_12DotGeneralOpEEEEPNS_11MLIRContextENS_14PatternBenefitEN4llvm8ArrayRefINS8_9StringRefEEE
FNDA:352,_ZN4mlir9stablehlo12_GLOBAL__N_125RefineDotGeneralOpPatternCI2NS_16OpRewritePatternINS0_12DotGeneralOpEEEEPNS_11MLIRContextENS_14PatternBenefitEN4llvm8ArrayRefINS8_9StringRefEEE
FN:616,_ZNK4mlir9stablehlo12_GLOBAL__N_125RefineDotGeneralOpPattern15matchAndRewriteENS0_12DotGeneralOpERNS_15PatternRewriterE
FNDA:16,_ZNK4mlir9stablehlo12_GLOBAL__N_125RefineDotGeneralOpPattern15matchAndRewriteENS0_12DotGeneralOpERNS_15PatternRewriterE
FN:631,_ZN4mlir9stablehlo12_GLOBAL__N_136RefineDynamicBroadcastInDimOpPatternD0Ev
FNDA:352,_ZN4mlir9stablehlo12_GLOBAL__N_136RefineDynamicBroadcastInDimOpPatternD0Ev
FN:633,_ZN4mlir9stablehlo12_GLOBAL__N_136RefineDynamicBroadcastInDimOpPatternCI2NS_16OpRewritePatternINS0_23DynamicBroadcastInDimOpEEEEPNS_11MLIRContextENS_14PatternBenefitEN4llvm8ArrayRefINS8_9StringRefEEE
FNDA:352,_ZN4mlir9stablehlo12_GLOBAL__N_136RefineDynamicBroadcastInDimOpPatternCI2NS_16OpRewritePatternINS0_23DynamicBroadcastInDimOpEEEEPNS_11MLIRContextENS_14PatternBenefitEN4llvm8ArrayRefINS8_9StringRefEEE
FN:634,_ZNK4mlir9stablehlo12_GLOBAL__N_136RefineDynamicBroadcastInDimOpPattern15matchAndRewriteENS0_23DynamicBroadcastInDimOpERNS_15PatternRewriterE
FNDA:16,_ZNK4mlir9stablehlo12_GLOBAL__N_136RefineDynamicBroadcastInDimOpPattern15matchAndRewriteENS0_23DynamicBroadcastInDimOpERNS_15PatternRewriterE
FN:640,_ZN4mlir9stablehlo12_GLOBAL__N_126RefineDynamicConvOpPatternD0Ev
FNDA:352,_ZN4mlir9stablehlo12_GLOBAL__N_126RefineDynamicConvOpPatternD0Ev
FN:641,_ZN4mlir9stablehlo12_GLOBAL__N_126RefineDynamicConvOpPatternCI2NS_16OpRewritePatternINS0_13DynamicConvOpEEEEPNS_11MLIRContextENS_14PatternBenefitEN4llvm8ArrayRefINS8_9StringRefEEE
FNDA:352,_ZN4mlir9stablehlo12_GLOBAL__N_126RefineDynamicConvOpPatternCI2NS_16OpRewritePatternINS0_13DynamicConvOpEEEEPNS_11MLIRContextENS_14PatternBenefitEN4llvm8ArrayRefINS8_9StringRefEEE
FN:642,_ZNK4mlir9stablehlo12_GLOBAL__N_126RefineDynamicConvOpPattern15matchAndRewriteENS0_13DynamicConvOpERNS_15PatternRewriterE
FNDA:16,_ZNK4mlir9stablehlo12_GLOBAL__N_126RefineDynamicConvOpPattern15matchAndRewriteENS0_13DynamicConvOpERNS_15PatternRewriterE
FN:674,_ZN4mlir9stablehlo12_GLOBAL__N_126RefineDynamicIotaOpPatternD0Ev
FNDA:352,_ZN4mlir9stablehlo12_GLOBAL__N_126RefineDynamicIotaOpPatternD0Ev
FN:675,_ZN4mlir9stablehlo12_GLOBAL__N_126RefineDynamicIotaOpPatternCI2NS_16OpRewritePatternINS0_13DynamicIotaOpEEEEPNS_11MLIRContextENS_14PatternBenefitEN4llvm8ArrayRefINS8_9StringRefEEE
FNDA:352,_ZN4mlir9stablehlo12_GLOBAL__N_126RefineDynamicIotaOpPatternCI2NS_16OpRewritePatternINS0_13DynamicIotaOpEEEEPNS_11MLIRContextENS_14PatternBenefitEN4llvm8ArrayRefINS8_9StringRefEEE
FN:676,_ZNK4mlir9stablehlo12_GLOBAL__N_126RefineDynamicIotaOpPattern15matchAndRewriteENS0_13DynamicIotaOpERNS_15PatternRewriterE
FNDA:16,_ZNK4mlir9stablehlo12_GLOBAL__N_126RefineDynamicIotaOpPattern15matchAndRewriteENS0_13DynamicIotaOpERNS_15PatternRewriterE
FN:682,_ZN4mlir9stablehlo12_GLOBAL__N_125RefineDynamicPadOpPatternD0Ev
FNDA:352,_ZN4mlir9stablehlo12_GLOBAL__N_125RefineDynamicPadOpPatternD0Ev
FN:683,_ZN4mlir9stablehlo12_GLOBAL__N_125RefineDynamicPadOpPatternCI2NS_16OpRewritePatternINS0_12DynamicPadOpEEEEPNS_11MLIRContextENS_14PatternBenefitEN4llvm8ArrayRefINS8_9StringRefEEE
FNDA:352,_ZN4mlir9stablehlo12_GLOBAL__N_125RefineDynamicPadOpPatternCI2NS_16OpRewritePatternINS0_12DynamicPadOpEEEEPNS_11MLIRContextENS_14PatternBenefitEN4llvm8ArrayRefINS8_9StringRefEEE
FN:684,_ZNK4mlir9stablehlo12_GLOBAL__N_125RefineDynamicPadOpPattern15matchAndRewriteENS0_12DynamicPadOpERNS_15PatternRewriterE
FNDA:16,_ZNK4mlir9stablehlo12_GLOBAL__N_125RefineDynamicPadOpPattern15matchAndRewriteENS0_12DynamicPadOpERNS_15PatternRewriterE
FN:711,_ZN4mlir9stablehlo12_GLOBAL__N_129RefineDynamicReshapeOpPatternD0Ev
FNDA:352,_ZN4mlir9stablehlo12_GLOBAL__N_129RefineDynamicReshapeOpPatternD0Ev
FN:713,_ZN4mlir9stablehlo12_GLOBAL__N_129RefineDynamicReshapeOpPatternCI2NS_16OpRewritePatternINS0_16DynamicReshapeOpEEEEPNS_11MLIRContextENS_14PatternBenefitEN4llvm8ArrayRefINS8_9StringRefEEE
FNDA:352,_ZN4mlir9stablehlo12_GLOBAL__N_129RefineDynamicReshapeOpPatternCI2NS_16OpRewritePatternINS0_16DynamicReshapeOpEEEEPNS_11MLIRContextENS_14PatternBenefitEN4llvm8ArrayRefINS8_9StringRefEEE
FN:714,_ZNK4mlir9stablehlo12_GLOBAL__N_129RefineDynamicReshapeOpPattern15matchAndRewriteENS0_16DynamicReshapeOpERNS_15PatternRewriterE
FNDA:16,_ZNK4mlir9stablehlo12_GLOBAL__N_129RefineDynamicReshapeOpPattern15matchAndRewriteENS0_16DynamicReshapeOpERNS_15PatternRewriterE
FN:720,_ZN4mlir9stablehlo12_GLOBAL__N_133RefineInferTypeOpInterfacePatternD0Ev
FNDA:352,_ZN4mlir9stablehlo12_GLOBAL__N_133RefineInferTypeOpInterfacePatternD0Ev
FN:722,_ZN4mlir9stablehlo12_GLOBAL__N_133RefineInferTypeOpInterfacePatternC2EPNS_11MLIRContextE
FNDA:352,_ZN4mlir9stablehlo12_GLOBAL__N_133RefineInferTypeOpInterfacePatternC2EPNS_11MLIRContextE
FN:724,_ZNK4mlir9stablehlo12_GLOBAL__N_133RefineInferTypeOpInterfacePattern15matchAndRewriteENS_20InferTypeOpInterfaceERNS_15PatternRewriterE
FNDA:952,_ZNK4mlir9stablehlo12_GLOBAL__N_133RefineInferTypeOpInterfacePattern15matchAndRewriteENS_20InferTypeOpInterfaceERNS_15PatternRewriterE
FN:746,_ZN4mlir9stablehlo12_GLOBAL__N_131RefineRealDynamicSliceOpPatternD0Ev
FNDA:352,_ZN4mlir9stablehlo12_GLOBAL__N_131RefineRealDynamicSliceOpPatternD0Ev
FN:748,_ZN4mlir9stablehlo12_GLOBAL__N_131RefineRealDynamicSliceOpPatternCI2NS_16OpRewritePatternINS0_18RealDynamicSliceOpEEEEPNS_11MLIRContextENS_14PatternBenefitEN4llvm8ArrayRefINS8_9StringRefEEE
FNDA:352,_ZN4mlir9stablehlo12_GLOBAL__N_131RefineRealDynamicSliceOpPatternCI2NS_16OpRewritePatternINS0_18RealDynamicSliceOpEEEEPNS_11MLIRContextENS_14PatternBenefitEN4llvm8ArrayRefINS8_9StringRefEEE
FN:749,_ZNK4mlir9stablehlo12_GLOBAL__N_131RefineRealDynamicSliceOpPattern15matchAndRewriteENS0_18RealDynamicSliceOpERNS_15PatternRewriterE
FNDA:40,_ZNK4mlir9stablehlo12_GLOBAL__N_131RefineRealDynamicSliceOpPattern15matchAndRewriteENS0_18RealDynamicSliceOpERNS_15PatternRewriterE
FN:779,_ZZNK4mlir9stablehlo12_GLOBAL__N_131RefineRealDynamicSliceOpPattern15matchAndRewriteENS0_18RealDynamicSliceOpERNS_15PatternRewriterEENKUllE_clEl
FNDA:24,_ZZNK4mlir9stablehlo12_GLOBAL__N_131RefineRealDynamicSliceOpPattern15matchAndRewriteENS0_18RealDynamicSliceOpERNS_15PatternRewriterEENKUllE_clEl
FN:814,_ZN4mlir9stablehlo12_GLOBAL__N_118RefineRngOpPatternD0Ev
FNDA:352,_ZN4mlir9stablehlo12_GLOBAL__N_118RefineRngOpPatternD0Ev
FN:815,_ZN4mlir9stablehlo12_GLOBAL__N_118RefineRngOpPatternCI2NS_16OpRewritePatternINS0_5RngOpEEEEPNS_11MLIRContextENS_14PatternBenefitEN4llvm8ArrayRefINS8_9StringRefEEE
FNDA:352,_ZN4mlir9stablehlo12_GLOBAL__N_118RefineRngOpPatternCI2NS_16OpRewritePatternINS0_5RngOpEEEEPNS_11MLIRContextENS_14PatternBenefitEN4llvm8ArrayRefINS8_9StringRefEEE
FN:816,_ZNK4mlir9stablehlo12_GLOBAL__N_118RefineRngOpPattern15matchAndRewriteENS0_5RngOpERNS_15PatternRewriterE
FNDA:16,_ZNK4mlir9stablehlo12_GLOBAL__N_118RefineRngOpPattern15matchAndRewriteENS0_5RngOpERNS_15PatternRewriterE
FN:822,_ZN4mlir9stablehlo12_GLOBAL__N_130RefineUniformQuantizeOpPatternD0Ev
FNDA:352,_ZN4mlir9stablehlo12_GLOBAL__N_130RefineUniformQuantizeOpPatternD0Ev
FN:824,_ZN4mlir9stablehlo12_GLOBAL__N_130RefineUniformQuantizeOpPatternCI2NS_16OpRewritePatternINS0_17UniformQuantizeOpEEEEPNS_11MLIRContextENS_14PatternBenefitEN4llvm8ArrayRefINS8_9StringRefEEE
FNDA:352,_ZN4mlir9stablehlo12_GLOBAL__N_130RefineUniformQuantizeOpPatternCI2NS_16OpRewritePatternINS0_17UniformQuantizeOpEEEEPNS_11MLIRContextENS_14PatternBenefitEN4llvm8ArrayRefINS8_9StringRefEEE
FN:825,_ZNK4mlir9stablehlo12_GLOBAL__N_130RefineUniformQuantizeOpPattern15matchAndRewriteENS0_17UniformQuantizeOpERNS_15PatternRewriterE
FNDA:16,_ZNK4mlir9stablehlo12_GLOBAL__N_130RefineUniformQuantizeOpPattern15matchAndRewriteENS0_17UniformQuantizeOpERNS_15PatternRewriterE
FN:835,_ZN4mlir9stablehlo12_GLOBAL__N_120RefineWhileOpPatternD0Ev
FNDA:352,_ZN4mlir9stablehlo12_GLOBAL__N_120RefineWhileOpPatternD0Ev
FN:836,_ZN4mlir9stablehlo12_GLOBAL__N_120RefineWhileOpPatternCI2NS_16OpRewritePatternINS0_7WhileOpEEEEPNS_11MLIRContextENS_14PatternBenefitEN4llvm8ArrayRefINS8_9StringRefEEE
FNDA:352,_ZN4mlir9stablehlo12_GLOBAL__N_120RefineWhileOpPatternCI2NS_16OpRewritePatternINS0_7WhileOpEEEEPNS_11MLIRContextENS_14PatternBenefitEN4llvm8ArrayRefINS8_9StringRefEEE
FN:837,_ZNK4mlir9stablehlo12_GLOBAL__N_120RefineWhileOpPattern15matchAndRewriteENS0_7WhileOpERNS_15PatternRewriterE
FNDA:24,_ZNK4mlir9stablehlo12_GLOBAL__N_120RefineWhileOpPattern15matchAndRewriteENS0_7WhileOpERNS_15PatternRewriterE
FN:865,_ZN4mlir9stablehlo12_GLOBAL__N_125UpdateFunctionTypePatternD0Ev
FNDA:352,_ZN4mlir9stablehlo12_GLOBAL__N_125UpdateFunctionTypePatternD0Ev
FN:866,_ZN4mlir9stablehlo12_GLOBAL__N_125UpdateFunctionTypePatternCI2NS_16OpRewritePatternINS_4func8ReturnOpEEEEPNS_11MLIRContextENS_14PatternBenefitEN4llvm8ArrayRefINS9_9StringRefEEE
FNDA:352,_ZN4mlir9stablehlo12_GLOBAL__N_125UpdateFunctionTypePatternCI2NS_16OpRewritePatternINS_4func8ReturnOpEEEEPNS_11MLIRContextENS_14PatternBenefitEN4llvm8ArrayRefINS9_9StringRefEEE
FN:867,_ZNK4mlir9stablehlo12_GLOBAL__N_125UpdateFunctionTypePattern15matchAndRewriteENS_4func8ReturnOpERNS_15PatternRewriterE
FNDA:832,_ZNK4mlir9stablehlo12_GLOBAL__N_125UpdateFunctionTypePattern15matchAndRewriteENS_4func8ReturnOpERNS_15PatternRewriterE
FN:908,_ZN4mlir9stablehlo12_GLOBAL__N_123UpdateRegionTypePatternD0Ev
FNDA:352,_ZN4mlir9stablehlo12_GLOBAL__N_123UpdateRegionTypePatternD0Ev
FN:909,_ZN4mlir9stablehlo12_GLOBAL__N_123UpdateRegionTypePatternCI2NS_16OpRewritePatternINS0_8ReturnOpEEEEPNS_11MLIRContextENS_14PatternBenefitEN4llvm8ArrayRefINS8_9StringRefEEE
FNDA:352,_ZN4mlir9stablehlo12_GLOBAL__N_123UpdateRegionTypePatternCI2NS_16OpRewritePatternINS0_8ReturnOpEEEEPNS_11MLIRContextENS_14PatternBenefitEN4llvm8ArrayRefINS8_9StringRefEEE
FN:910,_ZNK4mlir9stablehlo12_GLOBAL__N_123UpdateRegionTypePattern15matchAndRewriteENS0_8ReturnOpERNS_15PatternRewriterE
FNDA:64,_ZNK4mlir9stablehlo12_GLOBAL__N_123UpdateRegionTypePattern15matchAndRewriteENS0_8ReturnOpERNS_15PatternRewriterE
FN:927,_ZZNK4mlir9stablehlo12_GLOBAL__N_123UpdateRegionTypePattern15matchAndRewriteENS0_8ReturnOpERNS_15PatternRewriterEENKUlvE_clEv
FNDA:0,_ZZNK4mlir9stablehlo12_GLOBAL__N_123UpdateRegionTypePattern15matchAndRewriteENS0_8ReturnOpERNS_15PatternRewriterEENKUlvE_clEv
FN:932,_ZN4mlir9stablehlo12_GLOBAL__N_125StablehloRefineShapesPassC2Ev
FNDA:840,_ZN4mlir9stablehlo12_GLOBAL__N_125StablehloRefineShapesPassC2Ev
FN:932,_ZN4mlir9stablehlo12_GLOBAL__N_125StablehloRefineShapesPassD0Ev
FNDA:840,_ZN4mlir9stablehlo12_GLOBAL__N_125StablehloRefineShapesPassD0Ev
FN:932,_ZN4mlir9stablehlo12_GLOBAL__N_125StablehloRefineShapesPassC2ERKS2_
FNDA:0,_ZN4mlir9stablehlo12_GLOBAL__N_125StablehloRefineShapesPassC2ERKS2_
FN:936,_ZN4mlir9stablehlo12_GLOBAL__N_125StablehloRefineShapesPass14runOnOperationEv
FNDA:376,_ZN4mlir9stablehlo12_GLOBAL__N_125StablehloRefineShapesPass14runOnOperationEv
DA:63,624
DA:64,624
DA:65,624
DA:66,1232
DA:67,376
DA:68,376
DA:70,336
DA:72,712
DA:73,520
DA:74,624
DA:77,168
DA:78,168
DA:79,0
DA:81,168
DA:82,168
DA:83,104
DA:84,64
DA:85,208
DA:86,312
DA:87,104
DA:89,208
DA:90,104
DA:91,104
DA:92,168
DA:96,72
DA:97,72
DA:98,72
DA:99,8
DA:105,8
DA:106,8
DA:107,8
DA:108,8
DA:109,0
DA:111,16
DA:112,8
DA:113,8
DA:114,8
DA:115,8
DA:120,8
DA:121,8
DA:122,8
DA:123,8
DA:124,0
DA:126,8
DA:127,8
DA:128,0
DA:129,8
DA:131,16
DA:132,8
DA:133,8
DA:134,8
DA:139,48
DA:140,48
DA:141,48
DA:142,48
DA:143,96
DA:144,48
DA:145,48
DA:147,8
DA:148,16
DA:150,8
DA:151,16
DA:153,8
DA:154,16
DA:156,8
DA:157,16
DA:159,8
DA:160,16
DA:162,8
DA:163,8
DA:164,48
DA:165,48
DA:166,48
DA:167,48
DA:172,16
DA:173,16
DA:174,16
DA:175,16
DA:176,0
DA:178,16
DA:179,48
DA:180,32
DA:181,0
DA:182,32
DA:184,32
DA:185,16
DA:186,16
DA:187,16
DA:192,24
DA:193,24
DA:194,24
DA:195,24
DA:197,24
DA:198,24
DA:199,0
DA:202,24
DA:203,24
DA:204,16
DA:205,16
DA:206,8
DA:207,8
DA:208,8
DA:209,8
DA:210,8
DA:212,16
DA:213,8
DA:214,8
DA:215,24
DA:220,8
DA:221,8
DA:222,8
DA:223,8
DA:224,16
DA:225,8
DA:227,8
DA:233,8
DA:234,8
DA:235,8
DA:236,8
DA:237,0
DA:238,8
DA:239,0
DA:241,8
DA:242,8
DA:243,16
DA:244,8
DA:245,8
DA:246,8
DA:251,8
DA:252,8
DA:253,8
DA:254,8
DA:255,16
DA:256,8
DA:257,8
DA:259,8
DA:264,8
DA:265,8
DA:266,8
DA:267,8
DA:273,8
DA:274,8
DA:275,8
DA:276,8
DA:277,16
DA:278,8
DA:280,8
DA:285,8
DA:286,8
DA:287,8
DA:288,8
DA:289,0
DA:290,8
DA:291,8
DA:292,8
DA:297,8
DA:298,8
DA:299,8
DA:300,16
DA:301,8
DA:302,8
DA:303,0
DA:305,8
DA:306,24
DA:307,8
DA:308,32
DA:309,16
DA:311,16
DA:312,8
DA:313,8
DA:314,8
DA:319,8
DA:320,8
DA:321,8
DA:322,8
DA:323,0
DA:325,8
DA:326,8
DA:327,0
DA:329,8
DA:330,8
DA:331,8
DA:332,8
DA:333,24
DA:334,16
DA:335,16
DA:337,16
DA:338,8
DA:339,8
DA:340,8
DA:345,8
DA:346,8
DA:347,8
DA:348,8
DA:366,1192
DA:367,1192
DA:368,1192
DA:369,0
DA:370,0
DA:371,0
DA:372,0
DA:378,1192
DA:379,1192
DA:380,2400
DA:383,1208
DA:384,1208
DA:385,2416
DA:386,1208
DA:387,1208
DA:388,0
DA:389,0
DA:390,0
DA:391,0
DA:392,1208
DA:393,1208
DA:394,1208
DA:395,1192
DA:396,992
DA:398,408
DA:401,208
DA:402,208
DA:403,208
DA:407,408
DA:412,200
DA:413,40
DA:421,160
DA:426,8
DA:427,0
DA:428,0
DA:429,0
DA:430,200
DA:434,200
DA:435,200
DA:440,696
DA:441,496
DA:443,200
DA:444,152
DA:445,152
DA:446,152
DA:447,152
DA:448,208
DA:450,192
DA:451,1192
DA:457,1144
DA:458,1144
DA:459,1144
DA:460,968
DA:466,352
DA:467,360
DA:468,176
DA:469,1144
DA:475,192
DA:476,192
DA:477,192
DA:478,0
DA:479,0
DA:480,0
DA:481,0
DA:483,192
DA:484,400
DA:485,192
DA:486,208
DA:487,416
DA:488,16
DA:489,192
DA:490,208
DA:491,416
DA:492,416
DA:493,416
DA:494,208
DA:495,208
DA:496,0
DA:498,208
DA:500,192
DA:501,192
DA:508,80
DA:509,80
DA:510,80
DA:518,64
DA:519,64
DA:523,64
DA:524,64
DA:525,0
DA:526,64
DA:527,64
DA:532,24
DA:533,24
DA:534,24
DA:535,24
DA:536,0
DA:542,24
DA:543,48
DA:544,24
DA:545,8
DA:547,16
DA:548,24
DA:553,16
DA:554,16
DA:555,16
DA:556,16
DA:557,16
DA:558,0
DA:559,16
DA:560,16
DA:565,16
DA:566,16
DA:567,16
DA:568,16
DA:569,16
DA:570,16
DA:571,16
DA:572,16
DA:573,16
DA:574,16
DA:575,16
DA:576,16
DA:577,16
DA:578,16
DA:579,16
DA:580,16
DA:581,16
DA:582,16
DA:583,0
DA:584,16
DA:585,16
DA:590,16
DA:591,16
DA:592,32
DA:593,16
DA:594,16
DA:595,0
DA:598,16
DA:599,48
DA:600,32
DA:601,32
DA:602,0
DA:603,32
DA:604,32
DA:605,0
DA:606,96
DA:607,0
DA:608,32
DA:609,32
DA:610,16
DA:611,16
DA:616,16
DA:617,16
DA:618,16
DA:619,16
DA:620,16
DA:621,16
DA:622,16
DA:623,16
DA:624,16
DA:625,16
DA:626,0
DA:627,16
DA:628,16
DA:634,16
DA:635,16
DA:636,16
DA:642,16
DA:643,16
DA:644,16
DA:645,16
DA:646,0
DA:647,16
DA:648,0
DA:649,32
DA:650,16
DA:651,16
DA:653,16
DA:654,16
DA:655,16
DA:656,16
DA:657,16
DA:658,16
DA:659,16
DA:660,16
DA:661,16
DA:662,16
DA:663,16
DA:664,16
DA:665,16
DA:666,16
DA:667,16
DA:668,16
DA:669,0
DA:670,16
DA:671,16
DA:676,16
DA:677,16
DA:678,16
DA:684,16
DA:685,16
DA:689,16
DA:690,16
DA:691,0
DA:693,16
DA:694,0
DA:696,16
DA:697,0
DA:700,16
DA:701,16
DA:702,16
DA:703,16
DA:704,16
DA:705,16
DA:706,0
DA:707,16
DA:708,16
DA:714,16
DA:715,16
DA:716,16
DA:722,352
DA:723,352
DA:724,952
DA:725,952
DA:729,952
DA:730,16
DA:737,936
DA:738,1872
DA:739,936
DA:740,936
DA:741,16
DA:742,920
DA:743,952
DA:749,40
DA:750,40
DA:752,40
DA:753,56
DA:754,16
DA:755,16
DA:756,16
DA:757,32
DA:758,16
DA:759,16
DA:760,16
DA:761,16
DA:762,0
DA:763,16
DA:764,16
DA:769,24
DA:770,24
DA:771,24
DA:772,24
DA:773,48
DA:774,0
DA:775,0
DA:776,0
DA:777,24
DA:778,24
DA:779,48
DA:780,8
DA:785,16
DA:786,16
DA:787,32
DA:788,16
DA:789,16
DA:794,16
DA:795,32
DA:796,16
DA:797,16
DA:799,16
DA:800,16
